 editp

 Timestamp is 3f829754 (Tue Oct 07 16:07:08 2003)

 Preferred load address is 00400000

 Start         Length     Name                   Class
 0001:00000000 00000382H .text                   CODE
 0002:00000000 0000005cH .idata$5                DATA
 0002:0000005c 000001fbH .rdata                  DATA
 0002:00000258 0000003cH .idata$2                DATA
 0002:00000294 00000014H .idata$3                DATA
 0002:000002a8 0000005cH .idata$4                DATA
 0002:00000304 00000142H .idata$6                DATA
 0002:00000446 00000000H .edata                  DATA
 0003:00000000 00000000H .data                   DATA
 0003:00000000 00000015H .bss                    DATA
 0004:00000000 00000148H .rsrc$01                DATA
 0004:00000150 00000fc0H .rsrc$02                DATA

  Address         Publics by Value              Rva+Base     Lib:Object

 0001:00000000       _start                     00401000 f   editp.obj
 0001:0000002c       _dlgproc@16                0040102c f   editp.obj
 0001:000002d7       _abtdlgproc@16             004012d7 f   editp.obj
 0001:0000030a       _RegCloseKey@4             0040130a f   advapi32:advapi32.dll
 0001:00000310       _RegCreateKeyExA@36        00401310 f   advapi32:advapi32.dll
 0001:00000316       _RegOpenKeyExA@20          00401316 f   advapi32:advapi32.dll
 0001:0000031c       _RegSetValueExA@24         0040131c f   advapi32:advapi32.dll
 0001:00000322       _DialogBoxParamA@20        00401322 f   user32:user32.dll
 0001:00000328       _EnableWindow@8            00401328 f   user32:user32.dll
 0001:0000032e       _EndDialog@8               0040132e f   user32:user32.dll
 0001:00000334       _GetDlgItem@8              00401334 f   user32:user32.dll
 0001:0000033a       _LoadIconA@8               0040133a f   user32:user32.dll
 0001:00000340       _SendMessageA@16           00401340 f   user32:user32.dll
 0001:00000346       _SetDlgItemTextA@12        00401346 f   user32:user32.dll
 0001:0000034c       _CopyFileA@12              0040134c f   kernel32:kernel32.dll
 0001:00000352       _ExitProcess@4             00401352 f   kernel32:kernel32.dll
 0001:00000358       _GetFileSize@8             00401358 f   kernel32:kernel32.dll
 0001:0000035e       _GetModuleHandleA@4        0040135e f   kernel32:kernel32.dll
 0001:00000364       __lclose@4                 00401364 f   kernel32:kernel32.dll
 0001:0000036a       __llseek@12                0040136a f   kernel32:kernel32.dll
 0001:00000370       __lopen@8                  00401370 f   kernel32:kernel32.dll
 0001:00000376       __lread@12                 00401376 f   kernel32:kernel32.dll
 0001:0000037c       __lwrite@12                0040137c f   kernel32:kernel32.dll
 0002:00000000       __imp__RegCreateKeyExA@36  00402000     advapi32:advapi32.dll
 0002:00000004       __imp__RegOpenKeyExA@20    00402004     advapi32:advapi32.dll
 0002:00000008       __imp__RegSetValueExA@24   00402008     advapi32:advapi32.dll
 0002:0000000c       __imp__RegCloseKey@4       0040200c     advapi32:advapi32.dll
 0002:00000010       \177advapi32_NULL_THUNK_DATA 00402010     advapi32:advapi32.dll
 0002:00000014       __imp__CopyFileA@12        00402014     kernel32:kernel32.dll
 0002:00000018       __imp___lopen@8            00402018     kernel32:kernel32.dll
 0002:0000001c       __imp___llseek@12          0040201c     kernel32:kernel32.dll
 0002:00000020       __imp___lread@12           00402020     kernel32:kernel32.dll
 0002:00000024       __imp___lwrite@12          00402024     kernel32:kernel32.dll
 0002:00000028       __imp__GetModuleHandleA@4  00402028     kernel32:kernel32.dll
 0002:0000002c       __imp__GetFileSize@8       0040202c     kernel32:kernel32.dll
 0002:00000030       __imp__ExitProcess@4       00402030     kernel32:kernel32.dll
 0002:00000034       __imp___lclose@4           00402034     kernel32:kernel32.dll
 0002:00000038       \177kernel32_NULL_THUNK_DATA 00402038     kernel32:kernel32.dll
 0002:0000003c       __imp__LoadIconA@8         0040203c     user32:user32.dll
 0002:00000040       __imp__EndDialog@8         00402040     user32:user32.dll
 0002:00000044       __imp__GetDlgItem@8        00402044     user32:user32.dll
 0002:00000048       __imp__EnableWindow@8      00402048     user32:user32.dll
 0002:0000004c       __imp__DialogBoxParamA@20  0040204c     user32:user32.dll
 0002:00000050       __imp__SendMessageA@16     00402050     user32:user32.dll
 0002:00000054       __imp__SetDlgItemTextA@12  00402054     user32:user32.dll
 0002:00000058       \177user32_NULL_THUNK_DATA 00402058     user32:user32.dll
 0002:00000258       __IMPORT_DESCRIPTOR_advapi32 00402258     advapi32:advapi32.dll
 0002:0000026c       __IMPORT_DESCRIPTOR_user32 0040226c     user32:user32.dll
 0002:00000280       __IMPORT_DESCRIPTOR_kernel32 00402280     kernel32:kernel32.dll
 0002:00000294       __NULL_IMPORT_DESCRIPTOR   00402294     advapi32:advapi32.dll

 entry point at        0001:00000000

 Static symbols

 0001:00000000       _$$$00001@0                00401000 f   editp.obj
 0001:000002f8       @C001B                     004012f8 f   editp.obj
 0001:00000301       @C001F                     00401301 f   editp.obj
 0001:00000301       @C001D                     00401301 f   editp.obj
 0001:00000074       @C0001                     00401074 f   editp.obj
 0001:000000b3       @C0008                     004010b3 f   editp.obj
 0001:000000e9       @C000B                     004010e9 f   editp.obj
 0001:00000129       @C000E                     00401129 f   editp.obj
 0001:00000248       @C0011                     00401248 f   editp.obj
 0001:00000263       @C0013                     00401263 f   editp.obj
 0001:0000028f       @C0010                     0040128f f   editp.obj
 0001:0000028f       @C000D                     0040128f f   editp.obj
 0001:00000291       @C0006                     00401291 f   editp.obj
 0001:000002b3       @C0015                     004012b3 f   editp.obj
 0001:000002c5       @C0004                     004012c5 f   editp.obj
 0001:000002ce       @C001A                     004012ce f   editp.obj
 0001:000002ce       @C0003                     004012ce f   editp.obj
 0001:000002ce       @C0018                     004012ce f   editp.obj
 0001:000002ce       @C0017                     004012ce f   editp.obj
 0001:000002ce       @C0014                     004012ce f   editp.obj
 0001:000002ce       @C000A                     004012ce f   editp.obj

Line numbers for E:\PROGRA~1\WIN32ASM\crk\editp.obj(E:\PROGRA~1\WIN32ASM\crk\editp.asm) segment .text

    67 0001:00000000    68 0001:00000007    69 0001:0000000c    70 0001:00000025
    72 0001:0000002c    76 0001:00000032    77 0001:0000003b    78 0001:0000004b
    79 0001:0000004e    80 0001:00000060    81 0001:0000006f    82 0001:00000081
    83 0001:00000084    84 0001:0000008e    85 0001:0000009a    86 0001:0000009f
    87 0001:000000ae    88 0001:000000b3    89 0001:000000b6    90 0001:000000c0
    91 0001:000000c3    92 0001:000000cd    93 0001:000000d5    94 0001:000000e4
    95 0001:000000e9    96 0001:000000f9    97 0001:00000108    98 0001:0000010d
    99 0001:00000115   100 0001:00000124   101 0001:00000129   102 0001:00000139
   103 0001:0000014a   105 0001:00000159   106 0001:00000169   108 0001:00000178
   109 0001:00000193   110 0001:0000019b   111 0001:000001b6   112 0001:000001dd
   113 0001:00000204   114 0001:0000022b   115 0001:00000246   116 0001:00000248
   119 0001:00000263   121 0001:0000026e   124 0001:00000276   125 0001:00000285
   129 0001:0000028f   130 0001:00000297   131 0001:000002b1   132 0001:000002b9
   134 0001:000002c3   135 0001:000002c5   136 0001:000002ca   138 0001:000002ce
   139 0001:000002d3   142 0001:000002d7   143 0001:000002da   144 0001:000002e3
   145 0001:000002e6   146 0001:000002ec   148 0001:000002f6   149 0001:000002f8
   150 0001:000002fd   152 0001:00000301   153 0001:00000306
