 editplus

 Timestamp is 3f7a7005 (Wed Oct 01 11:41:17 2003)

 Preferred load address is 00400000

 Start         Length     Name                   Class
 0001:00000000 0000025aH .text                   CODE
 0002:00000000 0000004cH .idata$5                DATA
 0002:0000004c 000001e3H .rdata                  DATA
 0002:00000230 00000028H .idata$2                DATA
 0002:00000258 00000014H .idata$3                DATA
 0002:0000026c 0000004cH .idata$4                DATA
 0002:000002b8 000000feH .idata$6                DATA
 0002:000003b6 00000000H .edata                  DATA
 0003:00000000 00000000H .data                   DATA
 0003:00000000 00000006H .bss                    DATA
 0004:00000000 00000148H .rsrc$01                DATA
 0004:00000150 00001000H .rsrc$02                DATA

  Address         Publics by Value              Rva+Base     Lib:Object

 0001:00000000       _start                     00401000 f   editplus.obj
 0001:0000002c       _dlgproc@16                0040102c f   editplus.obj
 0001:000001c1       _abtdlgproc@16             004011c1 f   editplus.obj
 0001:000001f4       _wsprintfA                 004011f4 f   user32:user32.dll
 0001:000001fa       _DialogBoxParamA@20        004011fa f   user32:user32.dll
 0001:00000200       _EnableWindow@8            00401200 f   user32:user32.dll
 0001:00000206       _EndDialog@8               00401206 f   user32:user32.dll
 0001:0000020c       _GetDlgItem@8              0040120c f   user32:user32.dll
 0001:00000212       _LoadIconA@8               00401212 f   user32:user32.dll
 0001:00000218       _SendMessageA@16           00401218 f   user32:user32.dll
 0001:0000021e       _SetDlgItemTextA@12        0040121e f   user32:user32.dll
 0001:00000224       _CopyFileA@12              00401224 f   kernel32:kernel32.dll
 0001:0000022a       _ExitProcess@4             0040122a f   kernel32:kernel32.dll
 0001:00000230       _GetFileSize@8             00401230 f   kernel32:kernel32.dll
 0001:00000236       _GetModuleHandleA@4        00401236 f   kernel32:kernel32.dll
 0001:0000023c       __lclose@4                 0040123c f   kernel32:kernel32.dll
 0001:00000242       __llseek@12                00401242 f   kernel32:kernel32.dll
 0001:00000248       __lopen@8                  00401248 f   kernel32:kernel32.dll
 0001:0000024e       __lread@12                 0040124e f   kernel32:kernel32.dll
 0001:00000254       __lwrite@12                00401254 f   kernel32:kernel32.dll
 0002:00000000       __imp__CopyFileA@12        00402000     kernel32:kernel32.dll
 0002:00000004       __imp__ExitProcess@4       00402004     kernel32:kernel32.dll
 0002:00000008       __imp___lwrite@12          00402008     kernel32:kernel32.dll
 0002:0000000c       __imp___lread@12           0040200c     kernel32:kernel32.dll
 0002:00000010       __imp__GetModuleHandleA@4  00402010     kernel32:kernel32.dll
 0002:00000014       __imp__GetFileSize@8       00402014     kernel32:kernel32.dll
 0002:00000018       __imp___lopen@8            00402018     kernel32:kernel32.dll
 0002:0000001c       __imp___llseek@12          0040201c     kernel32:kernel32.dll
 0002:00000020       __imp___lclose@4           00402020     kernel32:kernel32.dll
 0002:00000024       \177kernel32_NULL_THUNK_DATA 00402024     kernel32:kernel32.dll
 0002:00000028       __imp__SetDlgItemTextA@12  00402028     user32:user32.dll
 0002:0000002c       __imp__SendMessageA@16     0040202c     user32:user32.dll
 0002:00000030       __imp__EndDialog@8         00402030     user32:user32.dll
 0002:00000034       __imp__LoadIconA@8         00402034     user32:user32.dll
 0002:00000038       __imp__GetDlgItem@8        00402038     user32:user32.dll
 0002:0000003c       __imp__wsprintfA           0040203c     user32:user32.dll
 0002:00000040       __imp__EnableWindow@8      00402040     user32:user32.dll
 0002:00000044       __imp__DialogBoxParamA@20  00402044     user32:user32.dll
 0002:00000048       \177user32_NULL_THUNK_DATA 00402048     user32:user32.dll
 0002:00000230       __IMPORT_DESCRIPTOR_user32 00402230     user32:user32.dll
 0002:00000244       __IMPORT_DESCRIPTOR_kernel32 00402244     kernel32:kernel32.dll
 0002:00000258       __NULL_IMPORT_DESCRIPTOR   00402258     user32:user32.dll

 entry point at        0001:00000000

 Static symbols

 0001:00000000       _$$$00001@0                00401000 f   editplus.obj
 0001:000001e2       @C0018                     004011e2 f   editplus.obj
 0001:000001eb       @C001C                     004011eb f   editplus.obj
 0001:000001eb       @C001A                     004011eb f   editplus.obj
 0001:00000074       @C0001                     00401074 f   editplus.obj
 0001:000000b3       @C0008                     004010b3 f   editplus.obj
 0001:000000e9       @C000B                     004010e9 f   editplus.obj
 0001:00000128       @C000E                     00401128 f   editplus.obj
 0001:00000179       @C0010                     00401179 f   editplus.obj
 0001:00000179       @C000D                     00401179 f   editplus.obj
 0001:0000017b       @C0006                     0040117b f   editplus.obj
 0001:0000019d       @C0012                     0040119d f   editplus.obj
 0001:000001af       @C0004                     004011af f   editplus.obj
 0001:000001b8       @C0017                     004011b8 f   editplus.obj
 0001:000001b8       @C0003                     004011b8 f   editplus.obj
 0001:000001b8       @C0015                     004011b8 f   editplus.obj
 0001:000001b8       @C0014                     004011b8 f   editplus.obj
 0001:000001b8       @C0011                     004011b8 f   editplus.obj
 0001:000001b8       @C000A                     004011b8 f   editplus.obj

Line numbers for E:\PROGRA~1\WIN32ASM\editplus.obj(E:\PROGRA~1\WIN32ASM\editplus.asm) segment .text

    45 0001:00000000    46 0001:00000007    47 0001:0000000c    48 0001:00000025
    50 0001:0000002c    54 0001:00000032    55 0001:0000003b    56 0001:0000004b
    57 0001:0000004e    58 0001:00000060    59 0001:0000006f    60 0001:00000081
    61 0001:00000084    62 0001:0000008e    63 0001:0000009a    64 0001:0000009f
    65 0001:000000ae    66 0001:000000b3    67 0001:000000b6    68 0001:000000c0
    69 0001:000000c3    70 0001:000000cd    71 0001:000000d5    72 0001:000000e4
    73 0001:000000e9    74 0001:000000f9    75 0001:00000108    76 0001:0000010e
    77 0001:00000117    78 0001:00000126    79 0001:00000128    80 0001:00000138
    81 0001:00000149    82 0001:00000158    83 0001:00000160    84 0001:0000016f
    88 0001:00000179    89 0001:00000181    90 0001:0000019b    91 0001:000001a3
    93 0001:000001ad    94 0001:000001af    95 0001:000001b4    97 0001:000001b8
    98 0001:000001bd   101 0001:000001c1   102 0001:000001c4   103 0001:000001cd
   104 0001:000001d0   105 0001:000001d6   107 0001:000001e0   108 0001:000001e2
   109 0001:000001e7   111 0001:000001eb   112 0001:000001f0
