; Listing generated by Microsoft (R) Optimizing Compiler Version 15.00.30729.01 

; Generated by VC++ for Common Language Runtime
.file "d:\mystuff\ULSLogView\ULSLogView\SPInterface.cpp"
.global	
	.bss
.local	,4
; Function compile flags: /Odtp
	.text
	.comdat	any, ?CheckError@_com_util@@$$FYAXJ@Z
.global	?CheckError@_com_util@@$$FYAXJ@Z		; _com_util::CheckError
?CheckError@_com_util@@$$FYAXJ@Z:			; _com_util::CheckError
;	.proc.def	D:V(I)

; Function Header:
; max stack depth = 2
; function size = 11 bytes
; local varsig tk = 0x0 
; Exception Information:
; 0 handlers, each consisting of filtered handlers

;	.formal.i4 0,"_hr$" SIG: Optional C Binding Modifier(token:0x4F6CDD).i4

;	.proc.beg
; File c:\program files (x86)\microsoft visual studio 9.0\vc\include\comutil.h
; Line 96
	ldarg.0				; _hr$
	ldc.i.0		0		; i32 0x0
	bge.s		$LN3@CheckError
; Line 97
	ldarg.0				; _hr$
	call		?_com_issue_error@@$$FYGXJ@Z
$LN3@CheckError:
; Line 99
	ret		
 .end ?CheckError@_com_util@@$$FYAXJ@Z			; _com_util::CheckError
;	.proc.end.void
_TEXT	ENDS
PUBLIC	__mep@?CheckError@_com_util@@$$FYAXJ@Z
PUBLIC	__t2m@?CheckError@_com_util@@YAXJ@Z
;	COMDAT __mep@?CheckError@_com_util@@$$FYAXJ@Z
data	SEGMENT
__mep@?CheckError@_com_util@@$$FYAXJ@Z TOKEN 0A000013
; Function compile flags: /Odtp
data	ENDS
;	COMDAT ?CheckError@_com_util@@YAXJ@Z
_TEXT	SEGMENT
__t2m@?CheckError@_com_util@@YAXJ@Z PROC		; COMDAT
	jmp	DWORD PTR __mep@?CheckError@_com_util@@$$FYAXJ@Z
__t2m@?CheckError@_com_util@@YAXJ@Z ENDP
.global	
	.bss
.local	$T73130,0
.local	,4
; Function compile flags: /Odtp
	.text
	.comdat	any, ?AddRef@Data_t@_bstr_t@@$$FQAEKXZ
.global	?AddRef@Data_t@_bstr_t@@$$FQAEKXZ		; _bstr_t::Data_t::AddRef
?AddRef@Data_t@_bstr_t@@$$FQAEKXZ:			; _bstr_t::Data_t::AddRef
;	.proc.def	D:I(I)

; Function Header:
; max stack depth = 2
; function size = 16 bytes
; local varsig tk = 0x11000008 
; Exception Information:
; 0 handlers, each consisting of filtered handlers

;	.formal.i4 0,"_this$" SIG: Optional C Binding Modifier(token:0x4CB8E9).Optional C Binding Modifier(token:0x4CB8EB).ptr.valueType (token:0x4CB8EE)
;	.local.u4 0,"$T73128" SIG: Optional C Binding Modifier(token:0x4838B5).u4

;	.proc.beg
; Line 767
	ldarg.0				; _this$
	ldc.i.8		8		; i32 0x8
	add		
	call		?InterlockedIncrement@@$$J14YGJPCJ@Z
	pop		
; Line 768
	ldarg.0				; _this$
	ldc.i.8		8		; i32 0x8
	add		
	ldind.i4	
	stloc.0				; $T73128
; Line 769
	ldloc.0				; $T73128
	ret		
 .end ?AddRef@Data_t@_bstr_t@@$$FQAEKXZ			; _bstr_t::Data_t::AddRef
;	.proc.end.u4
_TEXT	ENDS
PUBLIC	__mep@?AddRef@Data_t@_bstr_t@@$$FQAEKXZ
PUBLIC	__t2m@?AddRef@Data_t@_bstr_t@@QAEKXZ
;	COMDAT __mep@?AddRef@Data_t@_bstr_t@@$$FQAEKXZ
data	SEGMENT
__mep@?AddRef@Data_t@_bstr_t@@$$FQAEKXZ TOKEN 0A00002B
; Function compile flags: /Odtp
data	ENDS
;	COMDAT ?AddRef@Data_t@_bstr_t@@QAEKXZ
_TEXT	SEGMENT
__t2m@?AddRef@Data_t@_bstr_t@@QAEKXZ PROC		; COMDAT
	jmp	DWORD PTR __mep@?AddRef@Data_t@_bstr_t@@$$FQAEKXZ
__t2m@?AddRef@Data_t@_bstr_t@@QAEKXZ ENDP
.global	
.global	
	.bss
.local	,4
.local	,4
; Function compile flags: /Odtp
	.text
	.comdat	any, ??0_variant_t@@$$FQAE@ABV0@@Z
.global	??0_variant_t@@$$FQAE@ABV0@@Z			; _variant_t::_variant_t
??0_variant_t@@$$FQAE@ABV0@@Z:				; _variant_t::_variant_t
;	.proc.def	D:I(II)

; Function Header:
; max stack depth = 2
; function size = 20 bytes
; local varsig tk = 0x0 
; Exception Information:
; 0 handlers, each consisting of filtered handlers

;	.formal.i4 1,"_varSrc$" SIG: Optional C Binding Modifier(token:0x508A91).ptr.Optional C Binding Modifier(token:0x508A94).valueType (token:0x508A96)
;	.formal.i4 0,"_this$" SIG: Optional C Binding Modifier(token:0x4C9EF1).Optional C Binding Modifier(token:0x4C9EF3).ptr.valueType (token:0x4C9EF6)

;	.proc.beg
; Line 1156
	ldarg.0				; _this$
	call		?VariantInit@@$$J14YGXPAUtagVARIANT@@@Z
; Line 1157
	ldarg.0				; _this$
	ldarg.1				; _varSrc$
	call		?VariantCopy@@$$J18YGJPAUtagVARIANT@@PBU1@@Z
	call		?CheckError@_com_util@@$$FYAXJ@Z
; Line 1158
	ldarg.0				; _this$
	ret		
 .end ??0_variant_t@@$$FQAE@ABV0@@Z			; _variant_t::_variant_t
;	.proc.end.i4
_TEXT	ENDS
PUBLIC	__mep@??0_variant_t@@$$FQAE@ABV0@@Z
PUBLIC	__t2m@??0_variant_t@@QAE@ABV0@@Z
;	COMDAT __mep@??0_variant_t@@$$FQAE@ABV0@@Z
data	SEGMENT
__mep@??0_variant_t@@$$FQAE@ABV0@@Z TOKEN 0A000037
; Function compile flags: /Odtp
data	ENDS
;	COMDAT ??0_variant_t@@QAE@ABV0@@Z
_TEXT	SEGMENT
__t2m@??0_variant_t@@QAE@ABV0@@Z PROC			; COMDAT
	jmp	DWORD PTR __mep@??0_variant_t@@$$FQAE@ABV0@@Z
__t2m@??0_variant_t@@QAE@ABV0@@Z ENDP
.global	??_7_com_error@@6B@				; _com_error::`vftable'
.global	
.global	
.global	??_R4_com_error@@6B@				; _com_error::`RTTI Complete Object Locator'
.global	??_R0?AV_com_error@@@8				; _com_error `RTTI Type Descriptor'
.global	??_R3_com_error@@8				; _com_error::`RTTI Class Hierarchy Descriptor'
.global	??_R2_com_error@@8				; _com_error::`RTTI Base Class Array'
.global	??_R1A@?0A@EA@_com_error@@8			; _com_error::`RTTI Base Class Descriptor at (0,-1,0,64)'
	.bss
.local	$SigTok$$$A8IUnknown@@AGKXZ,4
.local	,4
.local	,4
; File c:\program files (x86)\microsoft visual studio 9.0\vc\include\comdef.h
	.rdataseg	.rdata$r
	.comdat	any, ??_R1A@?0A@EA@_com_error@@8

??_R1A@?0A@EA@_com_error@@8:				; _com_error::`RTTI Base Class Descriptor at (0,-1,0,64)'
	DD	??_R0?AV_com_error@@@8
	.word	0x0
	.word	0x0
	.word	0xffffffff
	.word	0x0
	.word	0x40
	DD	??_R3_com_error@@8
	.rdataseg	.rdata$r
	.comdat	any, ??_R2_com_error@@8

??_R2_com_error@@8:					; _com_error::`RTTI Base Class Array'
	DD	??_R1A@?0A@EA@_com_error@@8
	.rdataseg	.rdata$r
	.comdat	any, ??_R3_com_error@@8

??_R3_com_error@@8:					; _com_error::`RTTI Class Hierarchy Descriptor'
	.word	0x0
	.word	0x0
	.word	0x1
	DD	??_R2_com_error@@8
	.data
	.comdat	any, ??_R0?AV_com_error@@@8

??_R0?AV_com_error@@@8:					; _com_error `RTTI Type Descriptor'
	DD	??_7type_info@@6B@
	.word	0x0
	.ascii	".?AV_com_error@@\000"
	.rdataseg	.rdata$r
	.comdat	any, ??_R4_com_error@@6B@

??_R4_com_error@@6B@:					; _com_error::`RTTI Complete Object Locator'
	.word	0x0
	.word	0x0
	.word	0x0
	DD	??_R0?AV_com_error@@@8
	DD	??_R3_com_error@@8
	.data
	.comdat	largest, ??_7_com_error@@6B@

??_7_com_error@@6B@:					; _com_error::`vftable'
	DD	??_R4_com_error@@6B@
	DD	??_E_com_error@@UAEPAXI@Z
; Function compile flags: /Odtp
	.text
	.comdat	any, ??0_com_error@@$$FQAE@ABV0@@Z
.global	??0_com_error@@$$FQAE@ABV0@@Z			; _com_error::_com_error
??0_com_error@@$$FQAE@ABV0@@Z:				; _com_error::_com_error
;	.proc.def	D:I(II)

; Function Header:
; max stack depth = 3
; function size = 55 bytes
; local varsig tk = 0x0 
; Exception Information:
; 0 handlers, each consisting of filtered handlers

;	.formal.i4 1,"_that$" SIG: Optional C Binding Modifier(token:0x4FD29D).ptr.Optional C Binding Modifier(token:0x4FD2A0).valueType (token:0x4FD2A2)
;	.formal.i4 0,"_this$" SIG: Optional C Binding Modifier(token:0x4F66ED).Optional C Binding Modifier(token:0x4F66EF).ptr.valueType (token:0x4F66F2)

;	.proc.beg
; Line 147
	ldarg.0				; _this$
	ldsflda		??_7_com_error@@6B@
	stind.i4	
	ldarg.0				; _this$
	ldc.i.4		4		; i32 0x4
	add		
	ldarg.1				; _that$
	ldc.i.4		4		; i32 0x4
	add		
	ldind.i4	
	stind.i4	
	ldarg.0				; _this$
	ldc.i.8		8		; i32 0x8
	add		
	ldarg.1				; _that$
	ldc.i.8		8		; i32 0x8
	add		
	ldind.i4	
	stind.i4	
	ldarg.0				; _this$
	ldc.i4.s	12		; i32 0xc
	add		
	ldc.i.0		0		; i32 0x0
	stind.i4	
; Line 148
	ldarg.0				; _this$
	ldc.i.8		8		; i32 0x8
	add		
	ldind.i4	
	brfalse.s	$LN2@com_error
; Line 149
	ldarg.0				; _this$
	ldc.i.8		8		; i32 0x8
	add		
	ldind.i4	
	ldarg.0				; _this$
	ldc.i.8		8		; i32 0x8
	add		
	ldind.i4	
	ldind.i4	
	ldc.i.4		4		; i32 0x4
	add		
	ldind.i4	
	calli		D:I(I)
	pop		
$LN2@com_error:
; Line 151
	ldarg.0				; _this$
	ret		
 .end ??0_com_error@@$$FQAE@ABV0@@Z			; _com_error::_com_error
;	.proc.end.i4
_TEXT	ENDS
PUBLIC	__mep@??0_com_error@@$$FQAE@ABV0@@Z
PUBLIC	__t2m@??0_com_error@@QAE@ABV0@@Z
;	COMDAT __mep@??0_com_error@@$$FQAE@ABV0@@Z
data	SEGMENT
__mep@??0_com_error@@$$FQAE@ABV0@@Z TOKEN 0A00003D
; Function compile flags: /Odtp
data	ENDS
;	COMDAT ??0_com_error@@QAE@ABV0@@Z
_TEXT	SEGMENT
__t2m@??0_com_error@@QAE@ABV0@@Z PROC			; COMDAT
	jmp	DWORD PTR __mep@??0_com_error@@$$FQAE@ABV0@@Z
__t2m@??0_com_error@@QAE@ABV0@@Z ENDP
	.bss
.local	$T73155,0
; Function compile flags: /Odtp
	.text
	.comdat	any, ??_E_com_error@@$$FUAEPAXI@Z
.global	??_E_com_error@@$$FUAEPAXI@Z			; _com_error::`vector deleting destructor'
??_E_com_error@@$$FUAEPAXI@Z:				; _com_error::`vector deleting destructor'
;	.proc.def	D:I(II)

; Function Header:
; max stack depth = 4
; function size = 63 bytes
; local varsig tk = 0x1100000D 
; Exception Information:
; 0 handlers, each consisting of filtered handlers

;	.formal.i4 0,"_this$" SIG: Optional C Binding Modifier(token:0x4F66ED).Optional C Binding Modifier(token:0x4F66EF).ptr.valueType (token:0x4F66F2)
;	.formal.u4 1,"___flags$" SIG: u4
;	.local.i4 0,"$T73154" SIG: ptr.void

;	.proc.beg
	ldarg.1				; ___flags$
	ldc.i.2		2		; u32 0x2
	and		
	brfalse.s	$LN3@vector
	ldarg.0				; _this$
	ldc.i4.s	16		; u32 0x10
	ldarg.0				; _this$
	ldc.i.4		4		; i32 0x4
	sub		
	ldind.i4	
	ldftn		??1_com_error@@$$FUAE@XZ
	call		??_M@$$FYMXPAXIHP6MX0@Z@Z
	ldarg.1				; ___flags$
	ldc.i.1		1		; u32 0x1
	and		
	brfalse.s	$LN2@vector
	ldarg.0				; _this$
	ldc.i.4		4		; i32 0x4
	sub		
	call		??3@$$FYAXPAX@Z
$LN2@vector:
	ldarg.0				; _this$
	ldc.i.4		4		; i32 0x4
	sub		
	stloc.0				; $T73154
	br.s		$LN4@vector
$LN3@vector:
	ldarg.0				; _this$
	call		??1_com_error@@$$FUAE@XZ
	ldarg.1				; ___flags$
	ldc.i.1		1		; u32 0x1
	and		
	brfalse.s	$LN1@vector
	ldarg.0				; _this$
	call		??3@$$FYAXPAX@Z
$LN1@vector:
	ldarg.0				; _this$
	stloc.0				; $T73154
$LN4@vector:
	ldloc.0				; $T73154
	ret		
 .end ??_E_com_error@@$$FUAEPAXI@Z			; _com_error::`vector deleting destructor'
;	.proc.end.i4
.global	
	.bss
.local	$T73161,0
.local	,4
; Function compile flags: /Odtp
	.text
	.comdat	any, ??1_com_error@@$$FUAE@XZ
.global	??1_com_error@@$$FUAE@XZ			; _com_error::~_com_error
??1_com_error@@$$FUAE@XZ:				; _com_error::~_com_error
;	.proc.def	D:V(I)

; Function Header:
; max stack depth = 4
; function size = 61 bytes
; local varsig tk = 0x1100000D 
; Exception Information:
; 0 handlers, each consisting of filtered handlers

;	.formal.i4 0,"_this$" SIG: Optional C Binding Modifier(token:0x4F66ED).Optional C Binding Modifier(token:0x4F66EF).ptr.valueType (token:0x4F66F2)
;	.local.i4 0,"_hHeap$69496" SIG: ptr.void

;	.proc.beg
; Line 154
	ldarg.0				; _this$
	ldsflda		??_7_com_error@@6B@
	stind.i4	
; Line 155
	ldarg.0				; _this$
	ldc.i.8		8		; i32 0x8
	add		
	ldind.i4	
	brfalse.s	$LN3@com_error@2
; Line 156
	ldarg.0				; _this$
	ldc.i.8		8		; i32 0x8
	add		
	ldind.i4	
	ldarg.0				; _this$
	ldc.i.8		8		; i32 0x8
	add		
	ldind.i4	
	ldind.i4	
	ldc.i.8		8		; i32 0x8
	add		
	ldind.i4	
	calli		D:I(I)
	pop		
$LN3@com_error@2:
; Line 158
	ldarg.0				; _this$
	ldc.i4.s	12		; i32 0xc
	add		
	ldind.i4	
	brfalse.s	$LN4@com_error@2
; Line 159
	call		?GetProcessHeap@@$$J10YGPAXXZ
	stloc.0				; _hHeap$69496
; Line 160
	ldloc.0				; _hHeap$69496
	brfalse.s	$LN4@com_error@2
; Line 162
	ldloc.0				; _hHeap$69496
	ldc.i.0		0		; u32 0x0
	ldarg.0				; _this$
	ldc.i4.s	12		; i32 0xc
	add		
	ldind.i4	
	call		?HeapFree@@$$J212YGHPAXK0@Z
	pop		
$LN4@com_error@2:
; Line 165
	ret		
 .end ??1_com_error@@$$FUAE@XZ				; _com_error::~_com_error
;	.proc.end.void
_TEXT	ENDS
PUBLIC	__mep@??1_com_error@@$$FUAE@XZ
PUBLIC	__t2m@??1_com_error@@UAE@XZ
;	COMDAT __mep@??1_com_error@@$$FUAE@XZ
data	SEGMENT
__mep@??1_com_error@@$$FUAE@XZ TOKEN 0A00003E
; Function compile flags: /Odtp
data	ENDS
;	COMDAT ??1_com_error@@UAE@XZ
_TEXT	SEGMENT
__t2m@??1_com_error@@UAE@XZ PROC			; COMDAT
	jmp	DWORD PTR __mep@??1_com_error@@$$FUAE@XZ
__t2m@??1_com_error@@UAE@XZ ENDP
_TEXT	ENDS
PUBLIC	__mep@??_E_com_error@@$$FUAEPAXI@Z
PUBLIC	__t2m@??_E_com_error@@UAEPAXI@Z
;	COMDAT __mep@??_E_com_error@@$$FUAEPAXI@Z
data	SEGMENT
__mep@??_E_com_error@@$$FUAEPAXI@Z TOKEN 0A000042
; Function compile flags: /Odtp
data	ENDS
;	COMDAT ??_E_com_error@@UAEPAXI@Z
_TEXT	SEGMENT
__t2m@??_E_com_error@@UAEPAXI@Z PROC			; COMDAT
	jmp	DWORD PTR __mep@??_E_com_error@@$$FUAEPAXI@Z
__t2m@??_E_com_error@@UAEPAXI@Z ENDP
.global	
	.bss
.local	$T73172,0
.local	,4
; Function compile flags: /Odtp
	.text
	.comdat	any, ??C?$_com_ptr_t@V?$_com_IIID@UIUlsInfo@SPULS@@$1?_GUID_ed1ed747_b451_3bdc_998c_dc70841fb411@@3U__s_GUID@@B@@@@$$FQBEPAUIUlsInfo@SPULS@@XZ
.global	??C?$_com_ptr_t@V?$_com_IIID@UIUlsInfo@SPULS@@$1?_GUID_ed1ed747_b451_3bdc_998c_dc70841fb411@@3U__s_GUID@@B@@@@$$FQBEPAUIUlsInfo@SPULS@@XZ ; _com_ptr_t<_com_IIID<SPULS::IUlsInfo,&_GUID_ed1ed747_b451_3bdc_998c_dc70841fb411> >::operator->
??C?$_com_ptr_t@V?$_com_IIID@UIUlsInfo@SPULS@@$1?_GUID_ed1ed747_b451_3bdc_998c_dc70841fb411@@3U__s_GUID@@B@@@@$$FQBEPAUIUlsInfo@SPULS@@XZ: ; _com_ptr_t<_com_IIID<SPULS::IUlsInfo,&_GUID_ed1ed747_b451_3bdc_998c_dc70841fb411> >::operator->
;	.proc.def	D:I(I)

; Function Header:
; max stack depth = 1
; function size = 19 bytes
; local varsig tk = 0x11000010 
; Exception Information:
; 0 handlers, each consisting of filtered handlers

;	.formal.i4 0,"_this$" SIG: Optional C Binding Modifier(token:0x5049D5).Optional C Binding Modifier(token:0x5049D7).ptr.Optional C Binding Modifier(token:0x5049DA).valueType (token:0x5049DC)
;	.local.i4 0,"$T73170" SIG: ptr.valueType (token:0x48F90E)

;	.proc.beg
; File c:\program files (x86)\microsoft visual studio 9.0\vc\include\comip.h
; Line 395
	ldarg.0				; _this$
	ldind.i4	
	brtrue.s	$LN1@operator
; Line 396
	ldc.i4		-2147467261	; i32 0x80004003
	call		?_com_issue_error@@$$FYGXJ@Z
$LN1@operator:
; Line 399
	ldarg.0				; _this$
	ldind.i4	
	stloc.0				; $T73170
; Line 400
	ldloc.0				; $T73170
	ret		
 .end ??C?$_com_ptr_t@V?$_com_IIID@UIUlsInfo@SPULS@@$1?_GUID_ed1ed747_b451_3bdc_998c_dc70841fb411@@3U__s_GUID@@B@@@@$$FQBEPAUIUlsInfo@SPULS@@XZ ; _com_ptr_t<_com_IIID<SPULS::IUlsInfo,&_GUID_ed1ed747_b451_3bdc_998c_dc70841fb411> >::operator->
;	.proc.end.i4
_TEXT	ENDS
PUBLIC	__mep@??C?$_com_ptr_t@V?$_com_IIID@UIUlsInfo@SPULS@@$1?_GUID_ed1ed747_b451_3bdc_998c_dc70841fb411@@3U__s_GUID@@B@@@@$$FQBEPAUIUlsInfo@SPULS@@XZ
PUBLIC	__t2m@??C?$_com_ptr_t@V?$_com_IIID@UIUlsInfo@SPULS@@$1?_GUID_ed1ed747_b451_3bdc_998c_dc70841fb411@@3U__s_GUID@@B@@@@QBEPAUIUlsInfo@SPULS@@XZ
;	COMDAT __mep@??C?$_com_ptr_t@V?$_com_IIID@UIUlsInfo@SPULS@@$1?_GUID_ed1ed747_b451_3bdc_998c_dc70841fb411@@3U__s_GUID@@B@@@@$$FQBEPAUIUlsInfo@SPULS@@XZ
data	SEGMENT
__mep@??C?$_com_ptr_t@V?$_com_IIID@UIUlsInfo@SPULS@@$1?_GUID_ed1ed747_b451_3bdc_998c_dc70841fb411@@3U__s_GUID@@B@@@@$$FQBEPAUIUlsInfo@SPULS@@XZ TOKEN 0A000048
; Function compile flags: /Odtp
data	ENDS
;	COMDAT ??C?$_com_ptr_t@V?$_com_IIID@UIUlsInfo@SPULS@@$1?_GUID_ed1ed747_b451_3bdc_998c_dc70841fb411@@3U__s_GUID@@B@@@@QBEPAUIUlsInfo@SPULS@@XZ
_TEXT	SEGMENT
__t2m@??C?$_com_ptr_t@V?$_com_IIID@UIUlsInfo@SPULS@@$1?_GUID_ed1ed747_b451_3bdc_998c_dc70841fb411@@3U__s_GUID@@B@@@@QBEPAUIUlsInfo@SPULS@@XZ PROC ; COMDAT
	jmp	DWORD PTR __mep@??C?$_com_ptr_t@V?$_com_IIID@UIUlsInfo@SPULS@@$1?_GUID_ed1ed747_b451_3bdc_998c_dc70841fb411@@3U__s_GUID@@B@@@@$$FQBEPAUIUlsInfo@SPULS@@XZ
__t2m@??C?$_com_ptr_t@V?$_com_IIID@UIUlsInfo@SPULS@@$1?_GUID_ed1ed747_b451_3bdc_998c_dc70841fb411@@3U__s_GUID@@B@@@@QBEPAUIUlsInfo@SPULS@@XZ ENDP
.global	
	.bss
.local	,4
; Function compile flags: /Odtp
	.text
	.comdat	any, ?_Release@?$_com_ptr_t@V?$_com_IIID@UIUlsInfo@SPULS@@$1?_GUID_ed1ed747_b451_3bdc_998c_dc70841fb411@@3U__s_GUID@@B@@@@$$FAAEXXZ
.global	?_Release@?$_com_ptr_t@V?$_com_IIID@UIUlsInfo@SPULS@@$1?_GUID_ed1ed747_b451_3bdc_998c_dc70841fb411@@3U__s_GUID@@B@@@@$$FAAEXXZ ; _com_ptr_t<_com_IIID<SPULS::IUlsInfo,&_GUID_ed1ed747_b451_3bdc_998c_dc70841fb411> >::_Release
?_Release@?$_com_ptr_t@V?$_com_IIID@UIUlsInfo@SPULS@@$1?_GUID_ed1ed747_b451_3bdc_998c_dc70841fb411@@3U__s_GUID@@B@@@@$$FAAEXXZ: ; _com_ptr_t<_com_IIID<SPULS::IUlsInfo,&_GUID_ed1ed747_b451_3bdc_998c_dc70841fb411> >::_Release
;	.proc.def	D:V(I)

; Function Header:
; max stack depth = 3
; function size = 19 bytes
; local varsig tk = 0x0 
; Exception Information:
; 0 handlers, each consisting of filtered handlers

;	.formal.i4 0,"_this$" SIG: Optional C Binding Modifier(token:0x4F48ED).Optional C Binding Modifier(token:0x4F48EF).ptr.valueType (token:0x4F48F2)

;	.proc.beg
; Line 823
	ldarg.0				; _this$
	ldind.i4	
	brfalse.s	$LN2@Release
; Line 824
	ldarg.0				; _this$
	ldind.i4	
	ldarg.0				; _this$
	ldind.i4	
	ldind.i4	
	ldc.i.8		8		; i32 0x8
	add		
	ldind.i4	
	calli		D:I(I)
	pop		
$LN2@Release:
; Line 826
	ret		
 .end ?_Release@?$_com_ptr_t@V?$_com_IIID@UIUlsInfo@SPULS@@$1?_GUID_ed1ed747_b451_3bdc_998c_dc70841fb411@@3U__s_GUID@@B@@@@$$FAAEXXZ ; _com_ptr_t<_com_IIID<SPULS::IUlsInfo,&_GUID_ed1ed747_b451_3bdc_998c_dc70841fb411> >::_Release
;	.proc.end.void
_TEXT	ENDS
PUBLIC	__mep@?_Release@?$_com_ptr_t@V?$_com_IIID@UIUlsInfo@SPULS@@$1?_GUID_ed1ed747_b451_3bdc_998c_dc70841fb411@@3U__s_GUID@@B@@@@$$FAAEXXZ
PUBLIC	__t2m@?_Release@?$_com_ptr_t@V?$_com_IIID@UIUlsInfo@SPULS@@$1?_GUID_ed1ed747_b451_3bdc_998c_dc70841fb411@@3U__s_GUID@@B@@@@AAEXXZ
;	COMDAT __mep@?_Release@?$_com_ptr_t@V?$_com_IIID@UIUlsInfo@SPULS@@$1?_GUID_ed1ed747_b451_3bdc_998c_dc70841fb411@@3U__s_GUID@@B@@@@$$FAAEXXZ
data	SEGMENT
__mep@?_Release@?$_com_ptr_t@V?$_com_IIID@UIUlsInfo@SPULS@@$1?_GUID_ed1ed747_b451_3bdc_998c_dc70841fb411@@3U__s_GUID@@B@@@@$$FAAEXXZ TOKEN 0A00004A
; Function compile flags: /Odtp
data	ENDS
;	COMDAT ?_Release@?$_com_ptr_t@V?$_com_IIID@UIUlsInfo@SPULS@@$1?_GUID_ed1ed747_b451_3bdc_998c_dc70841fb411@@3U__s_GUID@@B@@@@AAEXXZ
_TEXT	SEGMENT
__t2m@?_Release@?$_com_ptr_t@V?$_com_IIID@UIUlsInfo@SPULS@@$1?_GUID_ed1ed747_b451_3bdc_998c_dc70841fb411@@3U__s_GUID@@B@@@@AAEXXZ PROC ; COMDAT
	jmp	DWORD PTR __mep@?_Release@?$_com_ptr_t@V?$_com_IIID@UIUlsInfo@SPULS@@$1?_GUID_ed1ed747_b451_3bdc_998c_dc70841fb411@@3U__s_GUID@@B@@@@$$FAAEXXZ
__t2m@?_Release@?$_com_ptr_t@V?$_com_IIID@UIUlsInfo@SPULS@@$1?_GUID_ed1ed747_b451_3bdc_998c_dc70841fb411@@3U__s_GUID@@B@@@@AAEXXZ ENDP
.global	__GUID_ed1ed747_b451_3bdc_998c_dc70841fb411
	.bss
.local	$T73187,0
	.rdata
	.comdat	any, __GUID_ed1ed747_b451_3bdc_998c_dc70841fb411

__GUID_ed1ed747_b451_3bdc_998c_dc70841fb411:
	.word	0xed1ed747
	.short	0xb451
	.short	0x3bdc
	.byte	0x99
	.byte	0x8c
	.byte	0xdc
	.byte	0x70
	.byte	0x84
	.byte	0x1f
	.byte	0xb4
	.byte	0x11
; Function compile flags: /Odtp
	.text
	.comdat	any, ?GetIID@?$_com_IIID@UIUlsInfo@SPULS@@$1?_GUID_ed1ed747_b451_3bdc_998c_dc70841fb411@@3U__s_GUID@@B@@$$FSAABU_GUID@@XZ
.global	?GetIID@?$_com_IIID@UIUlsInfo@SPULS@@$1?_GUID_ed1ed747_b451_3bdc_998c_dc70841fb411@@3U__s_GUID@@B@@$$FSAABU_GUID@@XZ ; _com_IIID<SPULS::IUlsInfo,&_GUID_ed1ed747_b451_3bdc_998c_dc70841fb411>::GetIID
?GetIID@?$_com_IIID@UIUlsInfo@SPULS@@$1?_GUID_ed1ed747_b451_3bdc_998c_dc70841fb411@@3U__s_GUID@@B@@$$FSAABU_GUID@@XZ: ; _com_IIID<SPULS::IUlsInfo,&_GUID_ed1ed747_b451_3bdc_998c_dc70841fb411>::GetIID
;	.proc.def	D:I()

; Function Header:
; max stack depth = 1
; function size = 8 bytes
; local varsig tk = 0x11000012 
; Exception Information:
; 0 handlers, each consisting of filtered handlers

;	.local.i4 0,"$T73186" SIG: Optional C Binding Modifier(token:0x4F4105).ptr.Optional C Binding Modifier(token:0x4F4108).valueType (token:0x4F410A)

;	.proc.beg
; Line 56
	ldsflda		__GUID_ed1ed747_b451_3bdc_998c_dc70841fb411
	stloc.0				; $T73186
; Line 57
	ldloc.0				; $T73186
	ret		
 .end ?GetIID@?$_com_IIID@UIUlsInfo@SPULS@@$1?_GUID_ed1ed747_b451_3bdc_998c_dc70841fb411@@3U__s_GUID@@B@@$$FSAABU_GUID@@XZ ; _com_IIID<SPULS::IUlsInfo,&_GUID_ed1ed747_b451_3bdc_998c_dc70841fb411>::GetIID
;	.proc.end.i4
_TEXT	ENDS
PUBLIC	__mep@?GetIID@?$_com_IIID@UIUlsInfo@SPULS@@$1?_GUID_ed1ed747_b451_3bdc_998c_dc70841fb411@@3U__s_GUID@@B@@$$FSAABU_GUID@@XZ
PUBLIC	__t2m@?GetIID@?$_com_IIID@UIUlsInfo@SPULS@@$1?_GUID_ed1ed747_b451_3bdc_998c_dc70841fb411@@3U__s_GUID@@B@@SAABU_GUID@@XZ
;	COMDAT __mep@?GetIID@?$_com_IIID@UIUlsInfo@SPULS@@$1?_GUID_ed1ed747_b451_3bdc_998c_dc70841fb411@@3U__s_GUID@@B@@$$FSAABU_GUID@@XZ
data	SEGMENT
__mep@?GetIID@?$_com_IIID@UIUlsInfo@SPULS@@$1?_GUID_ed1ed747_b451_3bdc_998c_dc70841fb411@@3U__s_GUID@@B@@$$FSAABU_GUID@@XZ TOKEN 0A00004C
; Function compile flags: /Odtp
data	ENDS
;	COMDAT ?GetIID@?$_com_IIID@UIUlsInfo@SPULS@@$1?_GUID_ed1ed747_b451_3bdc_998c_dc70841fb411@@3U__s_GUID@@B@@SAABU_GUID@@XZ
_TEXT	SEGMENT
__t2m@?GetIID@?$_com_IIID@UIUlsInfo@SPULS@@$1?_GUID_ed1ed747_b451_3bdc_998c_dc70841fb411@@3U__s_GUID@@B@@SAABU_GUID@@XZ PROC ; COMDAT
	jmp	DWORD PTR __mep@?GetIID@?$_com_IIID@UIUlsInfo@SPULS@@$1?_GUID_ed1ed747_b451_3bdc_998c_dc70841fb411@@3U__s_GUID@@B@@$$FSAABU_GUID@@XZ
__t2m@?GetIID@?$_com_IIID@UIUlsInfo@SPULS@@$1?_GUID_ed1ed747_b451_3bdc_998c_dc70841fb411@@3U__s_GUID@@B@@SAABU_GUID@@XZ ENDP
.global	
	.bss
.local	,4
; Function compile flags: /Odtp
	.text
	.comdat	any, ?_AddRef@_bstr_t@@$$FAAEXXZ
.global	?_AddRef@_bstr_t@@$$FAAEXXZ			; _bstr_t::_AddRef
?_AddRef@_bstr_t@@$$FAAEXXZ:				; _bstr_t::_AddRef
;	.proc.def	D:V(I)

; Function Header:
; max stack depth = 1
; function size = 13 bytes
; local varsig tk = 0x0 
; Exception Information:
; 0 handlers, each consisting of filtered handlers

;	.formal.i4 0,"_this$" SIG: Optional C Binding Modifier(token:0x502F61).Optional C Binding Modifier(token:0x502F63).ptr.valueType (token:0x502F66)

;	.proc.beg
; File c:\program files (x86)\microsoft visual studio 9.0\vc\include\comutil.h
; Line 628
	ldarg.0				; _this$
	ldind.i4	
	brfalse.s	$LN2@AddRef
; Line 629
	ldarg.0				; _this$
	ldind.i4	
	call		?AddRef@Data_t@_bstr_t@@$$FQAEKXZ
	pop		
$LN2@AddRef:
; Line 631
	ret		
 .end ?_AddRef@_bstr_t@@$$FAAEXXZ			; _bstr_t::_AddRef
;	.proc.end.void
_TEXT	ENDS
PUBLIC	__mep@?_AddRef@_bstr_t@@$$FAAEXXZ
PUBLIC	__t2m@?_AddRef@_bstr_t@@AAEXXZ
;	COMDAT __mep@?_AddRef@_bstr_t@@$$FAAEXXZ
data	SEGMENT
__mep@?_AddRef@_bstr_t@@$$FAAEXXZ TOKEN 0A000024
; Function compile flags: /Odtp
data	ENDS
;	COMDAT ?_AddRef@_bstr_t@@AAEXXZ
_TEXT	SEGMENT
__t2m@?_AddRef@_bstr_t@@AAEXXZ PROC			; COMDAT
	jmp	DWORD PTR __mep@?_AddRef@_bstr_t@@$$FAAEXXZ
__t2m@?_AddRef@_bstr_t@@AAEXXZ ENDP
; Function compile flags: /Odtp
	.text
	.comdat	any, ??1?$_com_ptr_t@V?$_com_IIID@UIUlsInfo@SPULS@@$1?_GUID_ed1ed747_b451_3bdc_998c_dc70841fb411@@3U__s_GUID@@B@@@@$$FQAE@XZ
.global	??1?$_com_ptr_t@V?$_com_IIID@UIUlsInfo@SPULS@@$1?_GUID_ed1ed747_b451_3bdc_998c_dc70841fb411@@3U__s_GUID@@B@@@@$$FQAE@XZ ; _com_ptr_t<_com_IIID<SPULS::IUlsInfo,&_GUID_ed1ed747_b451_3bdc_998c_dc70841fb411> >::~_com_ptr_t<_com_IIID<SPULS::IUlsInfo,&_GUID_ed1ed747_b451_3bdc_998c_dc70841fb411> >
??1?$_com_ptr_t@V?$_com_IIID@UIUlsInfo@SPULS@@$1?_GUID_ed1ed747_b451_3bdc_998c_dc70841fb411@@3U__s_GUID@@B@@@@$$FQAE@XZ: ; _com_ptr_t<_com_IIID<SPULS::IUlsInfo,&_GUID_ed1ed747_b451_3bdc_998c_dc70841fb411> >::~_com_ptr_t<_com_IIID<SPULS::IUlsInfo,&_GUID_ed1ed747_b451_3bdc_998c_dc70841fb411> >
;	.proc.def	D:V(I)

; Function Header:
; max stack depth = 1
; function size = 7 bytes
; local varsig tk = 0x0 
; Exception Information:
; 0 handlers, each consisting of filtered handlers

;	.formal.i4 0,"_this$" SIG: Optional C Binding Modifier(token:0x4F48ED).Optional C Binding Modifier(token:0x4F48EF).ptr.valueType (token:0x4F48F2)

;	.proc.beg
; File c:\program files (x86)\microsoft visual studio 9.0\vc\include\comip.h
; Line 309
	ldarg.0				; _this$
	call		?_Release@?$_com_ptr_t@V?$_com_IIID@UIUlsInfo@SPULS@@$1?_GUID_ed1ed747_b451_3bdc_998c_dc70841fb411@@3U__s_GUID@@B@@@@$$FAAEXXZ
; Line 310
	ret		
 .end ??1?$_com_ptr_t@V?$_com_IIID@UIUlsInfo@SPULS@@$1?_GUID_ed1ed747_b451_3bdc_998c_dc70841fb411@@3U__s_GUID@@B@@@@$$FQAE@XZ ; _com_ptr_t<_com_IIID<SPULS::IUlsInfo,&_GUID_ed1ed747_b451_3bdc_998c_dc70841fb411> >::~_com_ptr_t<_com_IIID<SPULS::IUlsInfo,&_GUID_ed1ed747_b451_3bdc_998c_dc70841fb411> >
;	.proc.end.void
_TEXT	ENDS
PUBLIC	__mep@??1?$_com_ptr_t@V?$_com_IIID@UIUlsInfo@SPULS@@$1?_GUID_ed1ed747_b451_3bdc_998c_dc70841fb411@@3U__s_GUID@@B@@@@$$FQAE@XZ
PUBLIC	__t2m@??1?$_com_ptr_t@V?$_com_IIID@UIUlsInfo@SPULS@@$1?_GUID_ed1ed747_b451_3bdc_998c_dc70841fb411@@3U__s_GUID@@B@@@@QAE@XZ
;	COMDAT __mep@??1?$_com_ptr_t@V?$_com_IIID@UIUlsInfo@SPULS@@$1?_GUID_ed1ed747_b451_3bdc_998c_dc70841fb411@@3U__s_GUID@@B@@@@$$FQAE@XZ
data	SEGMENT
__mep@??1?$_com_ptr_t@V?$_com_IIID@UIUlsInfo@SPULS@@$1?_GUID_ed1ed747_b451_3bdc_998c_dc70841fb411@@3U__s_GUID@@B@@@@$$FQAE@XZ TOKEN 0A000047
; Function compile flags: /Odtp
data	ENDS
;	COMDAT ??1?$_com_ptr_t@V?$_com_IIID@UIUlsInfo@SPULS@@$1?_GUID_ed1ed747_b451_3bdc_998c_dc70841fb411@@3U__s_GUID@@B@@@@QAE@XZ
_TEXT	SEGMENT
__t2m@??1?$_com_ptr_t@V?$_com_IIID@UIUlsInfo@SPULS@@$1?_GUID_ed1ed747_b451_3bdc_998c_dc70841fb411@@3U__s_GUID@@B@@@@QAE@XZ PROC ; COMDAT
	jmp	DWORD PTR __mep@??1?$_com_ptr_t@V?$_com_IIID@UIUlsInfo@SPULS@@$1?_GUID_ed1ed747_b451_3bdc_998c_dc70841fb411@@3U__s_GUID@@B@@@@$$FQAE@XZ
__t2m@??1?$_com_ptr_t@V?$_com_IIID@UIUlsInfo@SPULS@@$1?_GUID_ed1ed747_b451_3bdc_998c_dc70841fb411@@3U__s_GUID@@B@@@@QAE@XZ ENDP
	.bss
.local	$T73208,0
; Function compile flags: /Odtp
	.text
	.comdat	any, ?GetIID@?$_com_ptr_t@V?$_com_IIID@UIUlsInfo@SPULS@@$1?_GUID_ed1ed747_b451_3bdc_998c_dc70841fb411@@3U__s_GUID@@B@@@@$$FSAABU_GUID@@XZ
.global	?GetIID@?$_com_ptr_t@V?$_com_IIID@UIUlsInfo@SPULS@@$1?_GUID_ed1ed747_b451_3bdc_998c_dc70841fb411@@3U__s_GUID@@B@@@@$$FSAABU_GUID@@XZ ; _com_ptr_t<_com_IIID<SPULS::IUlsInfo,&_GUID_ed1ed747_b451_3bdc_998c_dc70841fb411> >::GetIID
?GetIID@?$_com_ptr_t@V?$_com_IIID@UIUlsInfo@SPULS@@$1?_GUID_ed1ed747_b451_3bdc_998c_dc70841fb411@@3U__s_GUID@@B@@@@$$FSAABU_GUID@@XZ: ; _com_ptr_t<_com_IIID<SPULS::IUlsInfo,&_GUID_ed1ed747_b451_3bdc_998c_dc70841fb411> >::GetIID
;	.proc.def	D:I()

; Function Header:
; max stack depth = 1
; function size = 8 bytes
; local varsig tk = 0x11000012 
; Exception Information:
; 0 handlers, each consisting of filtered handlers

;	.local.i4 0,"$T73207" SIG: Optional C Binding Modifier(token:0x4F399D).ptr.Optional C Binding Modifier(token:0x4F39A0).valueType (token:0x4F39A2)

;	.proc.beg
; Line 75
	call		?GetIID@?$_com_IIID@UIUlsInfo@SPULS@@$1?_GUID_ed1ed747_b451_3bdc_998c_dc70841fb411@@3U__s_GUID@@B@@$$FSAABU_GUID@@XZ
	stloc.0				; $T73207
; Line 76
	ldloc.0				; $T73207
	ret		
 .end ?GetIID@?$_com_ptr_t@V?$_com_IIID@UIUlsInfo@SPULS@@$1?_GUID_ed1ed747_b451_3bdc_998c_dc70841fb411@@3U__s_GUID@@B@@@@$$FSAABU_GUID@@XZ ; _com_ptr_t<_com_IIID<SPULS::IUlsInfo,&_GUID_ed1ed747_b451_3bdc_998c_dc70841fb411> >::GetIID
;	.proc.end.i4
_TEXT	ENDS
PUBLIC	__mep@?GetIID@?$_com_ptr_t@V?$_com_IIID@UIUlsInfo@SPULS@@$1?_GUID_ed1ed747_b451_3bdc_998c_dc70841fb411@@3U__s_GUID@@B@@@@$$FSAABU_GUID@@XZ
PUBLIC	__t2m@?GetIID@?$_com_ptr_t@V?$_com_IIID@UIUlsInfo@SPULS@@$1?_GUID_ed1ed747_b451_3bdc_998c_dc70841fb411@@3U__s_GUID@@B@@@@SAABU_GUID@@XZ
;	COMDAT __mep@?GetIID@?$_com_ptr_t@V?$_com_IIID@UIUlsInfo@SPULS@@$1?_GUID_ed1ed747_b451_3bdc_998c_dc70841fb411@@3U__s_GUID@@B@@@@$$FSAABU_GUID@@XZ
data	SEGMENT
__mep@?GetIID@?$_com_ptr_t@V?$_com_IIID@UIUlsInfo@SPULS@@$1?_GUID_ed1ed747_b451_3bdc_998c_dc70841fb411@@3U__s_GUID@@B@@@@$$FSAABU_GUID@@XZ TOKEN 0A00004B
; Function compile flags: /Odtp
data	ENDS
;	COMDAT ?GetIID@?$_com_ptr_t@V?$_com_IIID@UIUlsInfo@SPULS@@$1?_GUID_ed1ed747_b451_3bdc_998c_dc70841fb411@@3U__s_GUID@@B@@@@SAABU_GUID@@XZ
_TEXT	SEGMENT
__t2m@?GetIID@?$_com_ptr_t@V?$_com_IIID@UIUlsInfo@SPULS@@$1?_GUID_ed1ed747_b451_3bdc_998c_dc70841fb411@@3U__s_GUID@@B@@@@SAABU_GUID@@XZ PROC ; COMDAT
	jmp	DWORD PTR __mep@?GetIID@?$_com_ptr_t@V?$_com_IIID@UIUlsInfo@SPULS@@$1?_GUID_ed1ed747_b451_3bdc_998c_dc70841fb411@@3U__s_GUID@@B@@@@$$FSAABU_GUID@@XZ
__t2m@?GetIID@?$_com_ptr_t@V?$_com_IIID@UIUlsInfo@SPULS@@$1?_GUID_ed1ed747_b451_3bdc_998c_dc70841fb411@@3U__s_GUID@@B@@@@SAABU_GUID@@XZ ENDP
.global	
	.bss
.local	,4
; Function compile flags: /Odtp
	.text
	.comdat	any, ??0_bstr_t@@$$FQAE@ABV0@@Z
.global	??0_bstr_t@@$$FQAE@ABV0@@Z			; _bstr_t::_bstr_t
??0_bstr_t@@$$FQAE@ABV0@@Z:				; _bstr_t::_bstr_t
;	.proc.def	D:I(II)

; Function Header:
; max stack depth = 2
; function size = 12 bytes
; local varsig tk = 0x0 
; Exception Information:
; 0 handlers, each consisting of filtered handlers

;	.formal.i4 1,"_s$" SIG: Optional C Binding Modifier(token:0x4F8145).ptr.Optional C Binding Modifier(token:0x4F8148).valueType (token:0x4F814A)
;	.formal.i4 0,"_this$" SIG: Optional C Binding Modifier(token:0x502F61).Optional C Binding Modifier(token:0x502F63).ptr.valueType (token:0x502F66)

;	.proc.beg
; File c:\program files (x86)\microsoft visual studio 9.0\vc\include\comutil.h
; Line 304
	ldarg.0				; _this$
	ldarg.1				; _s$
	ldind.i4	
	stind.i4	
; Line 305
	ldarg.0				; _this$
	call		?_AddRef@_bstr_t@@$$FAAEXXZ
; Line 306
	ldarg.0				; _this$
	ret		
 .end ??0_bstr_t@@$$FQAE@ABV0@@Z			; _bstr_t::_bstr_t
;	.proc.end.i4
_TEXT	ENDS
PUBLIC	__mep@??0_bstr_t@@$$FQAE@ABV0@@Z
PUBLIC	__t2m@??0_bstr_t@@QAE@ABV0@@Z
;	COMDAT __mep@??0_bstr_t@@$$FQAE@ABV0@@Z
data	SEGMENT
__mep@??0_bstr_t@@$$FQAE@ABV0@@Z TOKEN 0A000016
; Function compile flags: /Odtp
data	ENDS
;	COMDAT ??0_bstr_t@@QAE@ABV0@@Z
_TEXT	SEGMENT
__t2m@??0_bstr_t@@QAE@ABV0@@Z PROC			; COMDAT
	jmp	DWORD PTR __mep@??0_bstr_t@@$$FQAE@ABV0@@Z
__t2m@??0_bstr_t@@QAE@ABV0@@Z ENDP
.global	__GUID_00000000_0000_0000_c000_000000000046
.global	
.global	
.global	
	.bss
.local	$T73226,0
.local	$SigTok$$$A8IUnknown@@AGJPBU_GUID@@PAPAX@Z,4
.local	,4
.local	,4
.local	,4
; File c:\program files (x86)\microsoft visual studio 9.0\vc\include\comip.h
	.rdata
	.comdat	any, __GUID_00000000_0000_0000_c000_000000000046

__GUID_00000000_0000_0000_c000_000000000046:
	.word	0x0
	.short	0x0
	.short	0x0
	.byte	0xc0
	.byte	0x0
	.byte	0x0
	.byte	0x0
	.byte	0x0
	.byte	0x0
	.byte	0x0
	.byte	0x46
; Function compile flags: /Odtp
	.text
	.comdat	any, ?CreateInstance@?$_com_ptr_t@V?$_com_IIID@UIUlsInfo@SPULS@@$1?_GUID_ed1ed747_b451_3bdc_998c_dc70841fb411@@3U__s_GUID@@B@@@@$$FQAEJABU_GUID@@PAUIUnknown@@K@Z
.global	?CreateInstance@?$_com_ptr_t@V?$_com_IIID@UIUlsInfo@SPULS@@$1?_GUID_ed1ed747_b451_3bdc_998c_dc70841fb411@@3U__s_GUID@@B@@@@$$FQAEJABU_GUID@@PAUIUnknown@@K@Z ; _com_ptr_t<_com_IIID<SPULS::IUlsInfo,&_GUID_ed1ed747_b451_3bdc_998c_dc70841fb411> >::CreateInstance
?CreateInstance@?$_com_ptr_t@V?$_com_IIID@UIUlsInfo@SPULS@@$1?_GUID_ed1ed747_b451_3bdc_998c_dc70841fb411@@3U__s_GUID@@B@@@@$$FQAEJABU_GUID@@PAUIUnknown@@K@Z: ; _com_ptr_t<_com_IIID<SPULS::IUlsInfo,&_GUID_ed1ed747_b451_3bdc_998c_dc70841fb411> >::CreateInstance
;	.proc.def	D:I(IIII)

; Function Header:
; max stack depth = 5
; function size = 99 bytes
; local varsig tk = 0x11000018 
; Exception Information:
; 0 handlers, each consisting of filtered handlers

;	.formal.i4 2,"_pOuter$" SIG: ptr.valueType (token:0x4FF72E)
;	.formal.i4 1,"_rclsid$" SIG: Optional C Binding Modifier(token:0x5032FD).ptr.Optional C Binding Modifier(token:0x503300).valueType (token:0x503302)
;	.formal.u4 3,"_dwClsContext$" SIG: Optional C Binding Modifier(token:0x4C7D55).u4
;	.formal.i4 0,"_this$" SIG: Optional C Binding Modifier(token:0x4F48ED).Optional C Binding Modifier(token:0x4F48EF).ptr.valueType (token:0x4F48F2)
;	.local.i4 2,"$T73222" SIG: Optional C Binding Modifier(token:0x48F915).i4
;	.local.i4 0,"_hr$" SIG: Optional C Binding Modifier(token:0x4F6CDD).i4
;	.local.i4 1,"_pIUnknown$72487" SIG: ptr.valueType (token:0x4FF72E)

;	.proc.beg
; Line 624
	ldarg.0				; _this$
	call		?_Release@?$_com_ptr_t@V?$_com_IIID@UIUlsInfo@SPULS@@$1?_GUID_ed1ed747_b451_3bdc_998c_dc70841fb411@@3U__s_GUID@@B@@@@$$FAAEXXZ
; Line 626
	ldarg.3				; _dwClsContext$
	ldc.i4.s	20		; u32 0x14
	and		
	brfalse.s	$LN5@CreateInst
; Line 628
	ldarg.1				; _rclsid$
	ldarg.2				; _pOuter$
	ldarg.3				; _dwClsContext$
	ldsflda		__GUID_00000000_0000_0000_c000_000000000046
	ldloca.s	1		; _pIUnknown$72487
	call		?CoCreateInstance@@$$J220YGJABU_GUID@@PAUIUnknown@@K0PAPAX@Z
	stloc.0				; _hr$
; Line 630
	ldloc.0				; _hr$
	ldc.i.0		0		; i32 0x0
	blt.s		$LN4@CreateInst
; Line 631
	ldloc.1				; _pIUnknown$72487
	call		?OleRun@@$$J14YGJPAUIUnknown@@@Z
	stloc.0				; _hr$
; Line 633
	ldloc.0				; _hr$
	ldc.i.0		0		; i32 0x0
	blt.s		$LN3@CreateInst
; Line 634
	ldloc.1				; _pIUnknown$72487
	call		?GetIID@?$_com_ptr_t@V?$_com_IIID@UIUlsInfo@SPULS@@$1?_GUID_ed1ed747_b451_3bdc_998c_dc70841fb411@@3U__s_GUID@@B@@@@$$FSAABU_GUID@@XZ
	ldarg.0				; _this$
	ldloc.1				; _pIUnknown$72487
	ldind.i4	
	ldind.i4	
	calli		D:I(III)
	stloc.0				; _hr$
$LN3@CreateInst:
; Line 637
	ldloc.1				; _pIUnknown$72487
	dup		
	ldind.i4	
	ldc.i.8		8		; i32 0x8
	add		
	ldind.i4	
	calli		D:I(I)
	pop		
$LN4@CreateInst:
; Line 640
	br.s		$LN2@CreateInst
$LN5@CreateInst:
; Line 641
	ldarg.1				; _rclsid$
	ldarg.2				; _pOuter$
	ldarg.3				; _dwClsContext$
	call		?GetIID@?$_com_ptr_t@V?$_com_IIID@UIUlsInfo@SPULS@@$1?_GUID_ed1ed747_b451_3bdc_998c_dc70841fb411@@3U__s_GUID@@B@@@@$$FSAABU_GUID@@XZ
	ldarg.0				; _this$
	call		?CoCreateInstance@@$$J220YGJABU_GUID@@PAUIUnknown@@K0PAPAX@Z
	stloc.0				; _hr$
$LN2@CreateInst:
; Line 644
	ldloc.0				; _hr$
	ldc.i.0		0		; i32 0x0
	bge.s		$LN1@CreateInst
; Line 646
	ldarg.0				; _this$
	ldc.i.0		0		; i32 0x0
	stind.i4	
$LN1@CreateInst:
; Line 649
	ldloc.0				; _hr$
	stloc.2				; $T73222
; Line 650
	ldloc.2				; $T73222
	ret		
 .end ?CreateInstance@?$_com_ptr_t@V?$_com_IIID@UIUlsInfo@SPULS@@$1?_GUID_ed1ed747_b451_3bdc_998c_dc70841fb411@@3U__s_GUID@@B@@@@$$FQAEJABU_GUID@@PAUIUnknown@@K@Z ; _com_ptr_t<_com_IIID<SPULS::IUlsInfo,&_GUID_ed1ed747_b451_3bdc_998c_dc70841fb411> >::CreateInstance
;	.proc.end.i4
_TEXT	ENDS
PUBLIC	__mep@?CreateInstance@?$_com_ptr_t@V?$_com_IIID@UIUlsInfo@SPULS@@$1?_GUID_ed1ed747_b451_3bdc_998c_dc70841fb411@@3U__s_GUID@@B@@@@$$FQAEJABU_GUID@@PAUIUnknown@@K@Z
PUBLIC	__t2m@?CreateInstance@?$_com_ptr_t@V?$_com_IIID@UIUlsInfo@SPULS@@$1?_GUID_ed1ed747_b451_3bdc_998c_dc70841fb411@@3U__s_GUID@@B@@@@QAEJABU_GUID@@PAUIUnknown@@K@Z
;	COMDAT __mep@?CreateInstance@?$_com_ptr_t@V?$_com_IIID@UIUlsInfo@SPULS@@$1?_GUID_ed1ed747_b451_3bdc_998c_dc70841fb411@@3U__s_GUID@@B@@@@$$FQAEJABU_GUID@@PAUIUnknown@@K@Z
data	SEGMENT
__mep@?CreateInstance@?$_com_ptr_t@V?$_com_IIID@UIUlsInfo@SPULS@@$1?_GUID_ed1ed747_b451_3bdc_998c_dc70841fb411@@3U__s_GUID@@B@@@@$$FQAEJABU_GUID@@PAUIUnknown@@K@Z TOKEN 0A000049
; Function compile flags: /Odtp
data	ENDS
;	COMDAT ?CreateInstance@?$_com_ptr_t@V?$_com_IIID@UIUlsInfo@SPULS@@$1?_GUID_ed1ed747_b451_3bdc_998c_dc70841fb411@@3U__s_GUID@@B@@@@QAEJABU_GUID@@PAUIUnknown@@K@Z
_TEXT	SEGMENT
__t2m@?CreateInstance@?$_com_ptr_t@V?$_com_IIID@UIUlsInfo@SPULS@@$1?_GUID_ed1ed747_b451_3bdc_998c_dc70841fb411@@3U__s_GUID@@B@@@@QAEJABU_GUID@@PAUIUnknown@@K@Z PROC ; COMDAT
	jmp	DWORD PTR __mep@?CreateInstance@?$_com_ptr_t@V?$_com_IIID@UIUlsInfo@SPULS@@$1?_GUID_ed1ed747_b451_3bdc_998c_dc70841fb411@@3U__s_GUID@@B@@@@$$FQAEJABU_GUID@@PAUIUnknown@@K@Z
__t2m@?CreateInstance@?$_com_ptr_t@V?$_com_IIID@UIUlsInfo@SPULS@@$1?_GUID_ed1ed747_b451_3bdc_998c_dc70841fb411@@3U__s_GUID@@B@@@@QAEJABU_GUID@@PAUIUnknown@@K@Z ENDP
	.bss
.local	$T73234,0
; Function compile flags: /Odtp
	.text
	.comdat	any, ??0?$_com_ptr_t@V?$_com_IIID@UIUlsInfo@SPULS@@$1?_GUID_ed1ed747_b451_3bdc_998c_dc70841fb411@@3U__s_GUID@@B@@@@$$FQAE@ABU_GUID@@PAUIUnknown@@K@Z
.global	??0?$_com_ptr_t@V?$_com_IIID@UIUlsInfo@SPULS@@$1?_GUID_ed1ed747_b451_3bdc_998c_dc70841fb411@@3U__s_GUID@@B@@@@$$FQAE@ABU_GUID@@PAUIUnknown@@K@Z ; _com_ptr_t<_com_IIID<SPULS::IUlsInfo,&_GUID_ed1ed747_b451_3bdc_998c_dc70841fb411> >::_com_ptr_t<_com_IIID<SPULS::IUlsInfo,&_GUID_ed1ed747_b451_3bdc_998c_dc70841fb411> >
??0?$_com_ptr_t@V?$_com_IIID@UIUlsInfo@SPULS@@$1?_GUID_ed1ed747_b451_3bdc_998c_dc70841fb411@@3U__s_GUID@@B@@@@$$FQAE@ABU_GUID@@PAUIUnknown@@K@Z: ; _com_ptr_t<_com_IIID<SPULS::IUlsInfo,&_GUID_ed1ed747_b451_3bdc_998c_dc70841fb411> >::_com_ptr_t<_com_IIID<SPULS::IUlsInfo,&_GUID_ed1ed747_b451_3bdc_998c_dc70841fb411> >
;	.proc.def	D:I(IIII)

; Function Header:
; max stack depth = 4
; function size = 35 bytes
; local varsig tk = 0x11000019 
; Exception Information:
; 0 handlers, each consisting of filtered handlers

;	.formal.u4 3,"_dwClsContext$" SIG: Optional C Binding Modifier(token:0x4C7D55).u4
;	.formal.i4 2,"_pOuter$" SIG: ptr.valueType (token:0x4FF72E)
;	.formal.i4 1,"_clsid$" SIG: Optional C Binding Modifier(token:0x5032FD).ptr.Optional C Binding Modifier(token:0x503300).valueType (token:0x503302)
;	.formal.i4 0,"_this$" SIG: Optional C Binding Modifier(token:0x4F48ED).Optional C Binding Modifier(token:0x4F48EF).ptr.valueType (token:0x4F48F2)
;	.local.i4 1,"$T73233" SIG: Optional C Binding Modifier(token:0x48EAA9).Optional C Binding Modifier(token:0x48EAAB).ptr.valueType (token:0x48EAAE)
;	.local.i4 0,"_hr$" SIG: Optional C Binding Modifier(token:0x4F6CDD).i4

;	.proc.beg
; Line 192
	ldarg.0				; _this$
	ldc.i.0		0		; i32 0x0
	stind.i4	
; Line 193
	ldarg.0				; _this$
	ldarg.1				; _clsid$
	ldarg.2				; _pOuter$
	ldarg.3				; _dwClsContext$
	call		?CreateInstance@?$_com_ptr_t@V?$_com_IIID@UIUlsInfo@SPULS@@$1?_GUID_ed1ed747_b451_3bdc_998c_dc70841fb411@@3U__s_GUID@@B@@@@$$FQAEJABU_GUID@@PAUIUnknown@@K@Z
	stloc.0				; _hr$
; Line 195
	ldloc.0				; _hr$
	ldc.i.0		0		; i32 0x0
	bge.s		$LN2@com_ptr_t@3
	ldloc.0				; _hr$
	ldc.i4		-2147467262	; i32 0x80004002
	beq.s		$LN2@com_ptr_t@3
; Line 196
	ldloc.0				; _hr$
	call		?_com_issue_error@@$$FYGXJ@Z
$LN2@com_ptr_t@3:
; Line 198
	ldarg.0				; _this$
	stloc.1				; $T73233
	ldloc.1				; $T73233
	ret		
 .end ??0?$_com_ptr_t@V?$_com_IIID@UIUlsInfo@SPULS@@$1?_GUID_ed1ed747_b451_3bdc_998c_dc70841fb411@@3U__s_GUID@@B@@@@$$FQAE@ABU_GUID@@PAUIUnknown@@K@Z ; _com_ptr_t<_com_IIID<SPULS::IUlsInfo,&_GUID_ed1ed747_b451_3bdc_998c_dc70841fb411> >::_com_ptr_t<_com_IIID<SPULS::IUlsInfo,&_GUID_ed1ed747_b451_3bdc_998c_dc70841fb411> >
;	.proc.end.i4
_TEXT	ENDS
PUBLIC	__mep@??0?$_com_ptr_t@V?$_com_IIID@UIUlsInfo@SPULS@@$1?_GUID_ed1ed747_b451_3bdc_998c_dc70841fb411@@3U__s_GUID@@B@@@@$$FQAE@ABU_GUID@@PAUIUnknown@@K@Z
PUBLIC	__t2m@??0?$_com_ptr_t@V?$_com_IIID@UIUlsInfo@SPULS@@$1?_GUID_ed1ed747_b451_3bdc_998c_dc70841fb411@@3U__s_GUID@@B@@@@QAE@ABU_GUID@@PAUIUnknown@@K@Z
;	COMDAT __mep@??0?$_com_ptr_t@V?$_com_IIID@UIUlsInfo@SPULS@@$1?_GUID_ed1ed747_b451_3bdc_998c_dc70841fb411@@3U__s_GUID@@B@@@@$$FQAE@ABU_GUID@@PAUIUnknown@@K@Z
data	SEGMENT
__mep@??0?$_com_ptr_t@V?$_com_IIID@UIUlsInfo@SPULS@@$1?_GUID_ed1ed747_b451_3bdc_998c_dc70841fb411@@3U__s_GUID@@B@@@@$$FQAE@ABU_GUID@@PAUIUnknown@@K@Z TOKEN 0A000046
; Function compile flags: /Odtp
data	ENDS
;	COMDAT ??0?$_com_ptr_t@V?$_com_IIID@UIUlsInfo@SPULS@@$1?_GUID_ed1ed747_b451_3bdc_998c_dc70841fb411@@3U__s_GUID@@B@@@@QAE@ABU_GUID@@PAUIUnknown@@K@Z
_TEXT	SEGMENT
__t2m@??0?$_com_ptr_t@V?$_com_IIID@UIUlsInfo@SPULS@@$1?_GUID_ed1ed747_b451_3bdc_998c_dc70841fb411@@3U__s_GUID@@B@@@@QAE@ABU_GUID@@PAUIUnknown@@K@Z PROC ; COMDAT
	jmp	DWORD PTR __mep@??0?$_com_ptr_t@V?$_com_IIID@UIUlsInfo@SPULS@@$1?_GUID_ed1ed747_b451_3bdc_998c_dc70841fb411@@3U__s_GUID@@B@@@@$$FQAE@ABU_GUID@@PAUIUnknown@@K@Z
__t2m@??0?$_com_ptr_t@V?$_com_IIID@UIUlsInfo@SPULS@@$1?_GUID_ed1ed747_b451_3bdc_998c_dc70841fb411@@3U__s_GUID@@B@@@@QAE@ABU_GUID@@PAUIUnknown@@K@Z ENDP
.global	__GUID_2e3fe898_8a41_344a_8a55_74b4d0215c56
.global	
.global	
	.bss
.local	$T73253,0
.local	$SigTok$$$A8IUlsInfo@SPULS@@AGJPAPA_W@Z,4
.local	,4
.local	,4
; File d:\mystuff\ulslogview\ulslogview\spinterface.cpp
	.rdata
	.comdat	any, __GUID_2e3fe898_8a41_344a_8a55_74b4d0215c56

__GUID_2e3fe898_8a41_344a_8a55_74b4d0215c56:
	.word	0x2e3fe898
	.short	0x8a41
	.short	0x344a
	.byte	0x8a
	.byte	0x55
	.byte	0x74
	.byte	0xb4
	.byte	0xd0
	.byte	0x21
	.byte	0x5c
	.byte	0x56
; Function compile flags: /Odtp
	.text
.global	?GetLogLocation@@$$FYAPA_WXZ			; GetLogLocation
?GetLogLocation@@$$FYAPA_WXZ:				; GetLogLocation
;	.proc.def	D:I()

; Function Header:
; max stack depth = 4
; function size = 94 bytes
; local varsig tk = 0x1100001C 
; Exception Information:
; 1 handlers, each consisting of filtered handlers

;	.local.i4 1,"$T73246" SIG: ptr.char
;	.local.i4 2,"$T72467" SIG: ptr.char
;	.local.i4 0,"$T73247" SIG: ptr.valueType (token:0x48F90E)
;	.local.i4 3,"_logLocation$" SIG: ptr.char
;	.local.mb4   5,"_pICalc$" SIG: valueType (token:0x50DDB1)
;	.local.i4 4,"_hr$" SIG: Optional C Binding Modifier(token:0x4F6CDD).i4

;	.proc.beg
; Line 12
	ldc.i.0		0		; i32 0x0
	call		?CoInitialize@@$$J14YGJPAX@Z
	stloc.s		4		; _hr$
; Line 15
	ldloca.s	5		; _pICalc$
	ldsflda		__GUID_2e3fe898_8a41_344a_8a55_74b4d0215c56
	ldc.i.0		0		; i32 0x0
	ldc.i4.s	23		; u32 0x17
	call		??0?$_com_ptr_t@V?$_com_IIID@UIUlsInfo@SPULS@@$1?_GUID_ed1ed747_b451_3bdc_998c_dc70841fb411@@3U__s_GUID@@B@@@@$$FQAE@ABU_GUID@@PAUIUnknown@@K@Z
	pop		
$LN4@GetLogLoca:
; Line 18
	ldc.i.0		0		; i32 0x0
	ldc.i4		260		; u32 0x104
	call		?SysAllocStringLen@@$$J18YGPA_WPB_WI@Z
	stloc.3				; _logLocation$
; Line 20
	ldloca.s	5		; _pICalc$
	call		??C?$_com_ptr_t@V?$_com_IIID@UIUlsInfo@SPULS@@$1?_GUID_ed1ed747_b451_3bdc_998c_dc70841fb411@@3U__s_GUID@@B@@@@$$FQBEPAUIUlsInfo@SPULS@@XZ
	stloc.0				; $T73247
	ldloc.0				; $T73247
	ldloca.s	3		; _logLocation$
	ldloc.0				; $T73247
	ldind.i4	
	ldc.i4.s	28		; i32 0x1c
	add		
	ldind.i4	
	calli		D:I(II)
	stloc.s		4		; _hr$
; Line 26
	call		?CoUninitialize@@$$J10YGXXZ
; Line 27
	ldloc.3				; _logLocation$
	stloc.2				; $T72467
	leave.s		$LN5@GetLogLoca
$LN6@GetLogLoca:
	ldftn		??1?$_com_ptr_t@V?$_com_IIID@UIUlsInfo@SPULS@@$1?_GUID_ed1ed747_b451_3bdc_998c_dc70841fb411@@3U__s_GUID@@B@@@@$$FQAE@XZ
	ldloca.s	5		; _pICalc$
	call		?___CxxCallUnwindDtor@@$$J0YMXP6MXPAX@Z0@Z
	endfinally	
$LN5@GetLogLoca:
	ldloca.s	5		; _pICalc$
	call		??1?$_com_ptr_t@V?$_com_IIID@UIUlsInfo@SPULS@@$1?_GUID_ed1ed747_b451_3bdc_998c_dc70841fb411@@3U__s_GUID@@B@@@@$$FQAE@XZ
	ldloc.2				; $T72467
	stloc.1				; $T73246
; Line 28
	ldloc.1				; $T73246
	ret		
 .end ?GetLogLocation@@$$FYAPA_WXZ			; GetLogLocation
;	.proc.end.i4
_TEXT	ENDS
PUBLIC	__mep@?GetLogLocation@@$$FYAPA_WXZ
PUBLIC	?GetLogLocation@@YAPA_WXZ			; GetLogLocation
;	COMDAT __mep@?GetLogLocation@@$$FYAPA_WXZ
data	SEGMENT
__mep@?GetLogLocation@@$$FYAPA_WXZ TOKEN 0A000045
; Function compile flags: /Odtp
data	ENDS
;	COMDAT ?GetLogLocation@@YAPA_WXZ
_TEXT	SEGMENT
?GetLogLocation@@YAPA_WXZ PROC				; GetLogLocation, COMDAT
	jmp	DWORD PTR __mep@?GetLogLocation@@$$FYAPA_WXZ
?GetLogLocation@@YAPA_WXZ ENDP				; GetLogLocation
_TEXT	ENDS
END
