; Listing generated by Microsoft (R) Optimizing Compiler Version 15.00.30729.01 

; Generated by VC++ for Common Language Runtime
.file "d:\mystuff\ULSLogView\ULSLogView\SPLogParser.cpp"
.global	?SECTION_SIZE@SPLogParser@@0HB			; SPLogParser::SECTION_SIZE
	.rdata
	.space	32

$SG50851:
	.ascii	"\\\000\000\000"
	.rdata
	.comdat	any, ?SECTION_SIZE@SPLogParser@@0HB

?SECTION_SIZE@SPLogParser@@0HB:				; SPLogParser::SECTION_SIZE
	.word	0x8
.global	
	.bss
.local	,4
; Function compile flags: /Odtp
	.text
	.comdat	any, ?CheckError@_com_util@@$$FYAXJ@Z
.global	?CheckError@_com_util@@$$FYAXJ@Z		; _com_util::CheckError
?CheckError@_com_util@@$$FYAXJ@Z:			; _com_util::CheckError
;	.proc.def	D:V(I)

; Function Header:
; max stack depth = 2
; function size = 11 bytes
; local varsig tk = 0x0 
; Exception Information:
; 0 handlers, each consisting of filtered handlers

;	.formal.i4 0,"_hr$" SIG: Optional C Binding Modifier(token:0x5394549).i4

;	.proc.beg
; File c:\program files (x86)\microsoft visual studio 9.0\vc\include\comutil.h
; Line 96
	ldarg.0				; _hr$
	ldc.i.0		0		; i32 0x0
	bge.s		$LN3@CheckError
; Line 97
	ldarg.0				; _hr$
	call		?_com_issue_error@@$$FYGXJ@Z
$LN3@CheckError:
; Line 99
	ret		
 .end ?CheckError@_com_util@@$$FYAXJ@Z			; _com_util::CheckError
;	.proc.end.void
_TEXT	ENDS
PUBLIC	__mep@?CheckError@_com_util@@$$FYAXJ@Z
PUBLIC	__t2m@?CheckError@_com_util@@YAXJ@Z
;	COMDAT __mep@?CheckError@_com_util@@$$FYAXJ@Z
data	SEGMENT
__mep@?CheckError@_com_util@@$$FYAXJ@Z TOKEN 0A000015
; Function compile flags: /Odtp
data	ENDS
;	COMDAT ?CheckError@_com_util@@YAXJ@Z
_TEXT	SEGMENT
__t2m@?CheckError@_com_util@@YAXJ@Z PROC		; COMDAT
	jmp	DWORD PTR __mep@?CheckError@_com_util@@$$FYAXJ@Z
__t2m@?CheckError@_com_util@@YAXJ@Z ENDP
.global	
	.bss
.local	$T51182,0
.local	,4
; Function compile flags: /Odtp
	.text
	.comdat	any, ?AddRef@Data_t@_bstr_t@@$$FQAEKXZ
.global	?AddRef@Data_t@_bstr_t@@$$FQAEKXZ		; _bstr_t::Data_t::AddRef
?AddRef@Data_t@_bstr_t@@$$FQAEKXZ:			; _bstr_t::Data_t::AddRef
;	.proc.def	D:I(I)

; Function Header:
; max stack depth = 2
; function size = 16 bytes
; local varsig tk = 0x11000004 
; Exception Information:
; 0 handlers, each consisting of filtered handlers

;	.formal.i4 0,"_this$" SIG: Optional C Binding Modifier(token:0x5268A5).Optional C Binding Modifier(token:0x5268A7).ptr.valueType (token:0x5268AA)
;	.local.u4 0,"$T51180" SIG: Optional C Binding Modifier(token:0x5380725).u4

;	.proc.beg
; Line 767
	ldarg.0				; _this$
	ldc.i.8		8		; i32 0x8
	add		
	call		?InterlockedIncrement@@$$J14YGJPCJ@Z
	pop		
; Line 768
	ldarg.0				; _this$
	ldc.i.8		8		; i32 0x8
	add		
	ldind.i4	
	stloc.0				; $T51180
; Line 769
	ldloc.0				; $T51180
	ret		
 .end ?AddRef@Data_t@_bstr_t@@$$FQAEKXZ			; _bstr_t::Data_t::AddRef
;	.proc.end.u4
_TEXT	ENDS
PUBLIC	__mep@?AddRef@Data_t@_bstr_t@@$$FQAEKXZ
PUBLIC	__t2m@?AddRef@Data_t@_bstr_t@@QAEKXZ
;	COMDAT __mep@?AddRef@Data_t@_bstr_t@@$$FQAEKXZ
data	SEGMENT
__mep@?AddRef@Data_t@_bstr_t@@$$FQAEKXZ TOKEN 0A00002B
; Function compile flags: /Odtp
data	ENDS
;	COMDAT ?AddRef@Data_t@_bstr_t@@QAEKXZ
_TEXT	SEGMENT
__t2m@?AddRef@Data_t@_bstr_t@@QAEKXZ PROC		; COMDAT
	jmp	DWORD PTR __mep@?AddRef@Data_t@_bstr_t@@$$FQAEKXZ
__t2m@?AddRef@Data_t@_bstr_t@@QAEKXZ ENDP
.global	
.global	
	.bss
.local	,4
.local	,4
; Function compile flags: /Odtp
	.text
	.comdat	any, ??0_variant_t@@$$FQAE@ABV0@@Z
.global	??0_variant_t@@$$FQAE@ABV0@@Z			; _variant_t::_variant_t
??0_variant_t@@$$FQAE@ABV0@@Z:				; _variant_t::_variant_t
;	.proc.def	D:I(II)

; Function Header:
; max stack depth = 2
; function size = 20 bytes
; local varsig tk = 0x0 
; Exception Information:
; 0 handlers, each consisting of filtered handlers

;	.formal.i4 1,"_varSrc$" SIG: Optional C Binding Modifier(token:0x51D099).ptr.Optional C Binding Modifier(token:0x51D09C).valueType (token:0x51D09E)
;	.formal.i4 0,"_this$" SIG: Optional C Binding Modifier(token:0x52595D).Optional C Binding Modifier(token:0x52595F).ptr.valueType (token:0x525962)

;	.proc.beg
; Line 1156
	ldarg.0				; _this$
	call		?VariantInit@@$$J14YGXPAUtagVARIANT@@@Z
; Line 1157
	ldarg.0				; _this$
	ldarg.1				; _varSrc$
	call		?VariantCopy@@$$J18YGJPAUtagVARIANT@@PBU1@@Z
	call		?CheckError@_com_util@@$$FYAXJ@Z
; Line 1158
	ldarg.0				; _this$
	ret		
 .end ??0_variant_t@@$$FQAE@ABV0@@Z			; _variant_t::_variant_t
;	.proc.end.i4
_TEXT	ENDS
PUBLIC	__mep@??0_variant_t@@$$FQAE@ABV0@@Z
PUBLIC	__t2m@??0_variant_t@@QAE@ABV0@@Z
;	COMDAT __mep@??0_variant_t@@$$FQAE@ABV0@@Z
data	SEGMENT
__mep@??0_variant_t@@$$FQAE@ABV0@@Z TOKEN 0A000038
; Function compile flags: /Odtp
data	ENDS
;	COMDAT ??0_variant_t@@QAE@ABV0@@Z
_TEXT	SEGMENT
__t2m@??0_variant_t@@QAE@ABV0@@Z PROC			; COMDAT
	jmp	DWORD PTR __mep@??0_variant_t@@$$FQAE@ABV0@@Z
__t2m@??0_variant_t@@QAE@ABV0@@Z ENDP
.global	
	.bss
.local	,4
; Function compile flags: /Odtp
	.text
.global	??0SPLogParser@@$$FQAE@XZ			; SPLogParser::SPLogParser
??0SPLogParser@@$$FQAE@XZ:				; SPLogParser::SPLogParser
;	.proc.def	D:I(I)

; Function Header:
; max stack depth = 2
; function size = 7 bytes
; local varsig tk = 0x0 
; Exception Information:
; 0 handlers, each consisting of filtered handlers

;	.formal.i4 0,"_this$" SIG: Optional C Binding Modifier(token:0x519159).Optional C Binding Modifier(token:0x51915B).ptr.valueType (token:0x51915E)

;	.proc.beg
; File d:\mystuff\ulslogview\ulslogview\splogparser.cpp
; Line 12
	ldarg.0				; _this$
	ldc.i.4		4		; i32 0x4
	add		
	ldc.i.0		0		; i32 0x0
	stind.i4	
; Line 13
	ldarg.0				; _this$
	ret		
 .end ??0SPLogParser@@$$FQAE@XZ				; SPLogParser::SPLogParser
;	.proc.end.i4
_TEXT	ENDS
PUBLIC	__mep@??0SPLogParser@@$$FQAE@XZ
PUBLIC	??0SPLogParser@@QAE@XZ				; SPLogParser::SPLogParser
;	COMDAT __mep@??0SPLogParser@@$$FQAE@XZ
data	SEGMENT
__mep@??0SPLogParser@@$$FQAE@XZ TOKEN 0A00003E
; Function compile flags: /Odtp
data	ENDS
;	COMDAT ??0SPLogParser@@QAE@XZ
_TEXT	SEGMENT
??0SPLogParser@@QAE@XZ PROC				; SPLogParser::SPLogParser, COMDAT
	jmp	DWORD PTR __mep@??0SPLogParser@@$$FQAE@XZ
??0SPLogParser@@QAE@XZ ENDP				; SPLogParser::SPLogParser
.global	
	.bss
.local	$T51205,0
.local	,4
; Function compile flags: /Odtp
	.text
.global	?ReadFile@SPLogParser@@$$FQAEHPAX@Z		; SPLogParser::ReadFile
?ReadFile@SPLogParser@@$$FQAEHPAX@Z:			; SPLogParser::ReadFile
;	.proc.def	D:I(II)

; Function Header:
; max stack depth = 1
; function size = 4 bytes
; local varsig tk = 0x11000009 
; Exception Information:
; 0 handlers, each consisting of filtered handlers

;	.local.i4 0,"$T51203" SIG: i4

;	.proc.beg
; Line 18
	ldc.i.0		0		; i32 0x0
	stloc.0				; $T51203
; Line 20
	ldloc.0				; $T51203
	ret		
 .end ?ReadFile@SPLogParser@@$$FQAEHPAX@Z		; SPLogParser::ReadFile
;	.proc.end.i4
_TEXT	ENDS
PUBLIC	__mep@?ReadFile@SPLogParser@@$$FQAEHPAX@Z
PUBLIC	?ReadFile@SPLogParser@@QAEHPAX@Z		; SPLogParser::ReadFile
;	COMDAT __mep@?ReadFile@SPLogParser@@$$FQAEHPAX@Z
data	SEGMENT
__mep@?ReadFile@SPLogParser@@$$FQAEHPAX@Z TOKEN 0A00003F
; Function compile flags: /Odtp
data	ENDS
;	COMDAT ?ReadFile@SPLogParser@@QAEHPAX@Z
_TEXT	SEGMENT
?ReadFile@SPLogParser@@QAEHPAX@Z PROC			; SPLogParser::ReadFile, COMDAT
	jmp	DWORD PTR __mep@?ReadFile@SPLogParser@@$$FQAEHPAX@Z
?ReadFile@SPLogParser@@QAEHPAX@Z ENDP			; SPLogParser::ReadFile
	.bss
.local	$T51212,0
; Function compile flags: /Odtp
	.text
.global	?CloseFile@SPLogParser@@$$FQAEHXZ		; SPLogParser::CloseFile
?CloseFile@SPLogParser@@$$FQAEHXZ:			; SPLogParser::CloseFile
;	.proc.def	D:I(I)

; Function Header:
; max stack depth = 1
; function size = 4 bytes
; local varsig tk = 0x11000009 
; Exception Information:
; 0 handlers, each consisting of filtered handlers

;	.local.i4 0,"$T51211" SIG: i4

;	.proc.beg
; Line 24
	ldc.i.0		0		; i32 0x0
	stloc.0				; $T51211
; Line 26
	ldloc.0				; $T51211
	ret		
 .end ?CloseFile@SPLogParser@@$$FQAEHXZ			; SPLogParser::CloseFile
;	.proc.end.i4
_TEXT	ENDS
PUBLIC	__mep@?CloseFile@SPLogParser@@$$FQAEHXZ
PUBLIC	?CloseFile@SPLogParser@@QAEHXZ			; SPLogParser::CloseFile
;	COMDAT __mep@?CloseFile@SPLogParser@@$$FQAEHXZ
data	SEGMENT
__mep@?CloseFile@SPLogParser@@$$FQAEHXZ TOKEN 0A000040
; Function compile flags: /Odtp
data	ENDS
;	COMDAT ?CloseFile@SPLogParser@@QAEHXZ
_TEXT	SEGMENT
?CloseFile@SPLogParser@@QAEHXZ PROC			; SPLogParser::CloseFile, COMDAT
	jmp	DWORD PTR __mep@?CloseFile@SPLogParser@@$$FQAEHXZ
?CloseFile@SPLogParser@@QAEHXZ ENDP			; SPLogParser::CloseFile
.global	
	.bss
.local	$T51220,0
.local	,4
; Function compile flags: /Odtp
	.text
.global	?RecalculateSize@SPLogParser@@$$FAAEKXZ		; SPLogParser::RecalculateSize
?RecalculateSize@SPLogParser@@$$FAAEKXZ:		; SPLogParser::RecalculateSize
;	.proc.def	D:I(I)

; Function Header:
; max stack depth = 2
; function size = 28 bytes
; local varsig tk = 0x1100000B 
; Exception Information:
; 0 handlers, each consisting of filtered handlers

;	.formal.i4 0,"_this$" SIG: Optional C Binding Modifier(token:0x519159).Optional C Binding Modifier(token:0x51915B).ptr.valueType (token:0x51915E)
;	.local.u4 1,"$T51218" SIG: Optional C Binding Modifier(token:0x538A09D).u4
;	.local.u4 0,"_retFileSize$50844" SIG: Optional C Binding Modifier(token:0x5241C1).u4

;	.proc.beg
; Line 64
	ldarg.0				; _this$
	ldc.i4.s	12		; i32 0xc
	add		
	ldind.i4	
	brfalse.s	$LN2@Recalculat
; Line 67
	ldarg.0				; _this$
	ldc.i4.s	12		; i32 0xc
	add		
	ldind.i4	
	ldc.i.0		0		; i32 0x0
	call		?GetFileSize@@$$J18YGKPAXPAK@Z
	stloc.0				; _retFileSize$50844
; Line 68
	ldarg.0				; _this$
	ldc.i.8		8		; i32 0x8
	add		
	ldloc.0				; _retFileSize$50844
	stind.i4	
; Line 69
	ldloc.0				; _retFileSize$50844
	stloc.1				; $T51218
$LN2@Recalculat:
; Line 72
	ldloc.1				; $T51218
	ret		
 .end ?RecalculateSize@SPLogParser@@$$FAAEKXZ		; SPLogParser::RecalculateSize
;	.proc.end.u4
_TEXT	ENDS
PUBLIC	__mep@?RecalculateSize@SPLogParser@@$$FAAEKXZ
PUBLIC	?RecalculateSize@SPLogParser@@AAEKXZ		; SPLogParser::RecalculateSize
;	COMDAT __mep@?RecalculateSize@SPLogParser@@$$FAAEKXZ
data	SEGMENT
__mep@?RecalculateSize@SPLogParser@@$$FAAEKXZ TOKEN 0A000042
; Function compile flags: /Odtp
data	ENDS
;	COMDAT ?RecalculateSize@SPLogParser@@AAEKXZ
_TEXT	SEGMENT
?RecalculateSize@SPLogParser@@AAEKXZ PROC		; SPLogParser::RecalculateSize, COMDAT
	jmp	DWORD PTR __mep@?RecalculateSize@SPLogParser@@$$FAAEKXZ
?RecalculateSize@SPLogParser@@AAEKXZ ENDP		; SPLogParser::RecalculateSize
.global	
.global	
	.bss
.local	$T51230,0
.local	,4
.local	,4
; Function compile flags: /Odtp
	.text
.global	?OpenFileReading@SPLogParser@@$$FQAEPAXPA_WQA_W@Z ; SPLogParser::OpenFileReading
?OpenFileReading@SPLogParser@@$$FQAEPAXPA_WQA_W@Z:	; SPLogParser::OpenFileReading
;	.proc.def	D:I(III)

; Function Header:
; max stack depth = 7
; function size = 100 bytes
; local varsig tk = 0x1100000E 
; Exception Information:
; 0 handlers, each consisting of filtered handlers

;	.formal.i4 0,"_this$" SIG: Optional C Binding Modifier(token:0x519159).Optional C Binding Modifier(token:0x51915B).ptr.valueType (token:0x51915E)
;	.formal.i4 2,"_fileName$" SIG: ptr.char
;	.formal.i4 1,"_dirName$" SIG: ptr.char
;	.local.i4 1,"$T51227" SIG: ptr.void
;	.local.i4 2,"_memFile$" SIG: ptr.void
;	.local.u4 4,"_a$" SIG: Optional C Binding Modifier(token:0x5241C1).u4
;	.local.i4 3,"_hFileMap$" SIG: ptr.void
;	.local.u4 5,"_retFileSize$" SIG: Optional C Binding Modifier(token:0x5241C1).u4
;	.local.u4 6,"_fileSize$" SIG: Optional C Binding Modifier(token:0x5241C1).u4
;	.local.i4 0,"_hLogFile$" SIG: ptr.void
;	.local.mb520 7,"_fullFileName$" SIG: valueType (token:0x51E5CD)

;	.proc.beg
; Line 78
	ldloca.s	7		; _fullFileName$
	ldarg.1				; _dirName$
	call		?wcscpy@@$$J0YAPA_WPA_WPB_W@Z
	pop		
; Line 79
	ldloca.s	7		; _fullFileName$
	ldsflda		$SG50851
	call		?wcscat@@$$J0YAPA_WPA_WPB_W@Z
	pop		
; Line 80
	ldloca.s	7		; _fullFileName$
	ldarg.2				; _fileName$
	call		?wcscat@@$$J0YAPA_WPA_WPB_W@Z
	pop		
; Line 82
	ldloca.s	7		; _fullFileName$
	ldc.i4		-2147483648	; u32 0x80000000
	ldc.i.1		1		; u32 0x1
	ldc.i.0		0		; i32 0x0
	ldc.i.3		3		; u32 0x3
	ldc.i4.s	32		; u32 0x20
	ldc.i.0		0		; i32 0x0
	call		?CreateFileW@@$$J228YGPAXPB_WKKPAU_SECURITY_ATTRIBUTES@@KKPAX@Z
	stloc.0				; _hLogFile$
; Line 89
	ldarg.0				; _this$
	ldc.i4.s	12		; i32 0xc
	add		
	ldloc.0				; _hLogFile$
	stind.i4	
; Line 96
	ldloc.0				; _hLogFile$
	ldloca.s	6		; _fileSize$
	call		?GetFileSize@@$$J18YGKPAXPAK@Z
	stloc.s		5		; _retFileSize$
; Line 97
	ldloc.0				; _hLogFile$
	ldc.i.0		0		; i32 0x0
	ldc.i.2		2		; u32 0x2
	ldc.i.0		0		; u32 0x0
	ldc.i.0		0		; u32 0x0
	ldc.i.0		0		; i32 0x0
	call		?CreateFileMappingW@@$$J224YGPAXPAXPAU_SECURITY_ATTRIBUTES@@KKKPB_W@Z
	stloc.3				; _hFileMap$
; Line 98
	call		?GetLastError@@$$J10YGKXZ
	stloc.s		4		; _a$
; Line 100
	ldloc.3				; _hFileMap$
	ldc.i.4		4		; u32 0x4
	ldc.i.0		0		; u32 0x0
	ldc.i.0		0		; u32 0x0
	ldc.i.0		0		; u32 0x0
	call		?MapViewOfFile@@$$J220YGPAXPAXKKKK@Z
	stloc.2				; _memFile$
; Line 103
	ldloc.2				; _memFile$
	stloc.1				; $T51227
; Line 105
	ldloc.1				; $T51227
	ret		
 .end ?OpenFileReading@SPLogParser@@$$FQAEPAXPA_WQA_W@Z	; SPLogParser::OpenFileReading
;	.proc.end.i4
_TEXT	ENDS
PUBLIC	__mep@?OpenFileReading@SPLogParser@@$$FQAEPAXPA_WQA_W@Z
PUBLIC	?OpenFileReading@SPLogParser@@QAEPAXPA_WQA_W@Z	; SPLogParser::OpenFileReading
;	COMDAT __mep@?OpenFileReading@SPLogParser@@$$FQAEPAXPA_WQA_W@Z
data	SEGMENT
__mep@?OpenFileReading@SPLogParser@@$$FQAEPAXPA_WQA_W@Z TOKEN 0A000043
; Function compile flags: /Odtp
data	ENDS
;	COMDAT ?OpenFileReading@SPLogParser@@QAEPAXPA_WQA_W@Z
_TEXT	SEGMENT
?OpenFileReading@SPLogParser@@QAEPAXPA_WQA_W@Z PROC	; SPLogParser::OpenFileReading, COMDAT
	jmp	DWORD PTR __mep@?OpenFileReading@SPLogParser@@$$FQAEPAXPA_WQA_W@Z
?OpenFileReading@SPLogParser@@QAEPAXPA_WQA_W@Z ENDP	; SPLogParser::OpenFileReading
.global	
	.bss
.local	,4
; Function compile flags: /Odtp
	.text
	.comdat	any, ?_AddRef@_bstr_t@@$$FAAEXXZ
.global	?_AddRef@_bstr_t@@$$FAAEXXZ			; _bstr_t::_AddRef
?_AddRef@_bstr_t@@$$FAAEXXZ:				; _bstr_t::_AddRef
;	.proc.def	D:V(I)

; Function Header:
; max stack depth = 1
; function size = 13 bytes
; local varsig tk = 0x0 
; Exception Information:
; 0 handlers, each consisting of filtered handlers

;	.formal.i4 0,"_this$" SIG: Optional C Binding Modifier(token:0x51A145).Optional C Binding Modifier(token:0x51A147).ptr.valueType (token:0x51A14A)

;	.proc.beg
; File c:\program files (x86)\microsoft visual studio 9.0\vc\include\comutil.h
; Line 628
	ldarg.0				; _this$
	ldind.i4	
	brfalse.s	$LN2@AddRef
; Line 629
	ldarg.0				; _this$
	ldind.i4	
	call		?AddRef@Data_t@_bstr_t@@$$FQAEKXZ
	pop		
$LN2@AddRef:
; Line 631
	ret		
 .end ?_AddRef@_bstr_t@@$$FAAEXXZ			; _bstr_t::_AddRef
;	.proc.end.void
_TEXT	ENDS
PUBLIC	__mep@?_AddRef@_bstr_t@@$$FAAEXXZ
PUBLIC	__t2m@?_AddRef@_bstr_t@@AAEXXZ
;	COMDAT __mep@?_AddRef@_bstr_t@@$$FAAEXXZ
data	SEGMENT
__mep@?_AddRef@_bstr_t@@$$FAAEXXZ TOKEN 0A000024
; Function compile flags: /Odtp
data	ENDS
;	COMDAT ?_AddRef@_bstr_t@@AAEXXZ
_TEXT	SEGMENT
__t2m@?_AddRef@_bstr_t@@AAEXXZ PROC			; COMDAT
	jmp	DWORD PTR __mep@?_AddRef@_bstr_t@@$$FAAEXXZ
__t2m@?_AddRef@_bstr_t@@AAEXXZ ENDP
.global	
.global	
	.bss
.local	$T51248,0
.local	,4
.local	,4
; Function compile flags: /Odtp
	.text
.global	?ParseFile@SPLogParser@@$$FQAEXPAX0@Z		; SPLogParser::ParseFile
?ParseFile@SPLogParser@@$$FQAEXPAX0@Z:			; SPLogParser::ParseFile
;	.proc.def	D:V(III)

; Function Header:
; max stack depth = 3
; function size = 110 bytes
; local varsig tk = 0x11000012 
; Exception Information:
; 0 handlers, each consisting of filtered handlers

;	.formal.i4 1,"_fileData$" SIG: ptr.void
;	.formal.i4 0,"_this$" SIG: Optional C Binding Modifier(token:0x519159).Optional C Binding Modifier(token:0x51915B).ptr.valueType (token:0x51915E)
;	.local.i4 8,"_data$50838" SIG: ptr.char
;	.local.i1 4,"_c$50836" SIG: Optional C Binding Modifier(token:0x51DAA9).i1
;	.local.i4 5,"_newloc1$50834" SIG: ptr.void
;	.local.u4 6,"_newLoc$50833" SIG: Optional C Binding Modifier(token:0x5241C1).u4
;	.local.i1 7,"_data$50830" SIG: Optional C Binding Modifier(token:0x51DAA9).i1
;	.local.u4 0,"_i$50826" SIG: Optional C Binding Modifier(token:0x5241C1).u4
;	.local.i4 2,"$T51241" SIG: ptr.valueType (token:0x47AAAA)
;	.local.i4 1,"$T50822" SIG: ptr.valueType (token:0x5394AA2)
;	.local.u4 3,"$T50823" SIG: u4
;	.local.i4 9,"_sectionCount$" SIG: i4

;	.proc.beg
; File d:\mystuff\ulslogview\ulslogview\splogparser.cpp
; Line 32
	ldc.i.0		0		; i32 0x0
	stloc.s		9		; _sectionCount$
; Line 33
	ldarg.0				; _this$
	ldc.i.4		4		; i32 0x4
	add		
	ldind.i4	
	brtrue.s	$LN5@ParseFile
; Line 35
	ldc.i4		2560		; u32 0xa00
	stloc.3				; $T50823
	ldloc.3				; $T50823
	call		??2@$$FYAPAXI@Z
	stloc.1				; $T50822
	ldloc.1				; $T50822
	brfalse.s	$LN8@ParseFile
	ldloc.1				; $T50822
	ldc.i.0		0		; i32 0x0
	ldloc.3				; $T50823
	initblk		
	ldloc.1				; $T50822
	stloc.2				; $T51241
	br.s		$LN9@ParseFile
$LN8@ParseFile:
	ldc.i.0		0		; i32 0x0
	stloc.2				; $T51241
$LN9@ParseFile:
	ldarg.0				; _this$
	ldc.i.4		4		; i32 0x4
	add		
	ldloc.2				; $T51241
	stind.i4	
$LN5@ParseFile:
; Line 37
	ldarg.0				; _this$
	call		?RecalculateSize@SPLogParser@@$$FAAEKXZ
	pop		
; Line 38
	ldc.i.0		0		; u32 0x0
	stloc.0				; _i$50826
	br.s		$LN4@ParseFile
$LN3@ParseFile:
	ldloc.0				; _i$50826
	ldc.i.1		1		; u32 0x1
	add		
	stloc.0				; _i$50826
$LN4@ParseFile:
	ldloc.0				; _i$50826
	ldarg.0				; _this$
	ldc.i.8		8		; i32 0x8
	add		
	ldind.i4	
	bge.un.s	$LN6@ParseFile
; Line 41
	ldarg.1				; _fileData$
	ldloc.0				; _i$50826
	add		
	ldind.i1	
	stloc.s		7		; _data$50830
; Line 43
	ldloc.s		7		; _data$50830
	ldc.i4.s	9		; i32 0x9
	bne.un.s	$LN1@ParseFile
; Line 45
	ldarg.1				; _fileData$
	ldloc.0				; _i$50826
	add		
	stloc.s		6		; _newLoc$50833
; Line 46
	ldloc.s		6		; _newLoc$50833
	stloc.s		5		; _newloc1$50834
; Line 47
	ldloc.s		5		; _newloc1$50834
	ldind.i1	
	stloc.s		4		; _c$50836
; Line 48
	ldc.i.0		0		; i8 0x0
	stloc.s		4		; _c$50836
; Line 49
	ldarg.1				; _fileData$
	stloc.s		8		; _data$50838
; Line 51
	ldarg.0				; _this$
	ldc.i.4		4		; i32 0x4
	add		
	ldind.i4	
	ldarg.1				; _fileData$
	ldloc.0				; _i$50826
	call		?memcpy@@$$J0YAPAXPAXPBXI@Z
	pop		
$LN1@ParseFile:
; Line 55
	br.s		$LN3@ParseFile
$LN6@ParseFile:
; Line 60
	ret		
 .end ?ParseFile@SPLogParser@@$$FQAEXPAX0@Z		; SPLogParser::ParseFile
;	.proc.end.void
_TEXT	ENDS
PUBLIC	__mep@?ParseFile@SPLogParser@@$$FQAEXPAX0@Z
PUBLIC	?ParseFile@SPLogParser@@QAEXPAX0@Z		; SPLogParser::ParseFile
;	COMDAT __mep@?ParseFile@SPLogParser@@$$FQAEXPAX0@Z
data	SEGMENT
__mep@?ParseFile@SPLogParser@@$$FQAEXPAX0@Z TOKEN 0A000041
; Function compile flags: /Odtp
data	ENDS
;	COMDAT ?ParseFile@SPLogParser@@QAEXPAX0@Z
_TEXT	SEGMENT
?ParseFile@SPLogParser@@QAEXPAX0@Z PROC			; SPLogParser::ParseFile, COMDAT
	jmp	DWORD PTR __mep@?ParseFile@SPLogParser@@$$FQAEXPAX0@Z
?ParseFile@SPLogParser@@QAEXPAX0@Z ENDP			; SPLogParser::ParseFile
.global	
	.bss
.local	,4
; Function compile flags: /Odtp
	.text
	.comdat	any, ??0_bstr_t@@$$FQAE@ABV0@@Z
.global	??0_bstr_t@@$$FQAE@ABV0@@Z			; _bstr_t::_bstr_t
??0_bstr_t@@$$FQAE@ABV0@@Z:				; _bstr_t::_bstr_t
;	.proc.def	D:I(II)

; Function Header:
; max stack depth = 2
; function size = 12 bytes
; local varsig tk = 0x0 
; Exception Information:
; 0 handlers, each consisting of filtered handlers

;	.formal.i4 1,"_s$" SIG: Optional C Binding Modifier(token:0x5394FB1).ptr.Optional C Binding Modifier(token:0x5394FB4).valueType (token:0x5394FB6)
;	.formal.i4 0,"_this$" SIG: Optional C Binding Modifier(token:0x51A145).Optional C Binding Modifier(token:0x51A147).ptr.valueType (token:0x51A14A)

;	.proc.beg
; File c:\program files (x86)\microsoft visual studio 9.0\vc\include\comutil.h
; Line 304
	ldarg.0				; _this$
	ldarg.1				; _s$
	ldind.i4	
	stind.i4	
; Line 305
	ldarg.0				; _this$
	call		?_AddRef@_bstr_t@@$$FAAEXXZ
; Line 306
	ldarg.0				; _this$
	ret		
 .end ??0_bstr_t@@$$FQAE@ABV0@@Z			; _bstr_t::_bstr_t
;	.proc.end.i4
_TEXT	ENDS
PUBLIC	__mep@??0_bstr_t@@$$FQAE@ABV0@@Z
PUBLIC	__t2m@??0_bstr_t@@QAE@ABV0@@Z
;	COMDAT __mep@??0_bstr_t@@$$FQAE@ABV0@@Z
data	SEGMENT
__mep@??0_bstr_t@@$$FQAE@ABV0@@Z TOKEN 0A000018
; Function compile flags: /Odtp
data	ENDS
;	COMDAT ??0_bstr_t@@QAE@ABV0@@Z
_TEXT	SEGMENT
__t2m@??0_bstr_t@@QAE@ABV0@@Z PROC			; COMDAT
	jmp	DWORD PTR __mep@??0_bstr_t@@$$FQAE@ABV0@@Z
__t2m@??0_bstr_t@@QAE@ABV0@@Z ENDP
_TEXT	ENDS
END
