; Listing generated by Microsoft (R) Optimizing Compiler Version 15.00.30729.01 

; Generated by VC++ for Common Language Runtime
.file "d:\mystuff\ULSLogView\ULSLogView\ULSLogView.cpp"
.global	?listWindow@@3PAUHWND__@@A			; listWindow
.global	?szWindowClass@@3PA_WA				; szWindowClass
.global	?hInst@@3PAUHINSTANCE__@@A			; hInst
.global	?szTitle@@3PA_WA				; szTitle
.global	?fileChange@@3PAXA				; fileChange
.global	?ffd@@3U_WIN32_FIND_DATAW@@A			; ffd
.global	?ThreadId@@3KA					; ThreadId
.global	?SECTION_SIZE@SPLogParser@@0HB			; SPLogParser::SECTION_SIZE
.global	?_Value@?$_Is_swap_move@U_Swap_move_tag@std@@@std@@2_NB ; std::_Is_swap_move<std::_Swap_move_tag>::_Value
.global	?collate@?$_Locbase@H@std@@2HB			; std::_Locbase<int>::collate
.global	?ctype@?$_Locbase@H@std@@2HB			; std::_Locbase<int>::ctype
.global	?monetary@?$_Locbase@H@std@@2HB			; std::_Locbase<int>::monetary
.global	?numeric@?$_Locbase@H@std@@2HB			; std::_Locbase<int>::numeric
.global	?time@?$_Locbase@H@std@@2HB			; std::_Locbase<int>::time
.global	?messages@?$_Locbase@H@std@@2HB			; std::_Locbase<int>::messages
.global	?all@?$_Locbase@H@std@@2HB			; std::_Locbase<int>::all
.global	?none@?$_Locbase@H@std@@2HB			; std::_Locbase<int>::none
.global	?skipws@?$_Iosb@H@std@@2W4_Fmtflags@12@B	; std::_Iosb<int>::skipws
.global	?unitbuf@?$_Iosb@H@std@@2W4_Fmtflags@12@B	; std::_Iosb<int>::unitbuf
.global	?uppercase@?$_Iosb@H@std@@2W4_Fmtflags@12@B	; std::_Iosb<int>::uppercase
.global	?showbase@?$_Iosb@H@std@@2W4_Fmtflags@12@B	; std::_Iosb<int>::showbase
.global	?showpoint@?$_Iosb@H@std@@2W4_Fmtflags@12@B	; std::_Iosb<int>::showpoint
.global	?showpos@?$_Iosb@H@std@@2W4_Fmtflags@12@B	; std::_Iosb<int>::showpos
.global	?left@?$_Iosb@H@std@@2W4_Fmtflags@12@B		; std::_Iosb<int>::left
.global	?right@?$_Iosb@H@std@@2W4_Fmtflags@12@B		; std::_Iosb<int>::right
.global	?internal@?$_Iosb@H@std@@2W4_Fmtflags@12@B	; std::_Iosb<int>::internal
.global	?dec@?$_Iosb@H@std@@2W4_Fmtflags@12@B		; std::_Iosb<int>::dec
.global	?oct@?$_Iosb@H@std@@2W4_Fmtflags@12@B		; std::_Iosb<int>::oct
.global	?hex@?$_Iosb@H@std@@2W4_Fmtflags@12@B		; std::_Iosb<int>::hex
.global	?scientific@?$_Iosb@H@std@@2W4_Fmtflags@12@B	; std::_Iosb<int>::scientific
.global	?fixed@?$_Iosb@H@std@@2W4_Fmtflags@12@B		; std::_Iosb<int>::fixed
.global	?hexfloat@?$_Iosb@H@std@@2W4_Fmtflags@12@B	; std::_Iosb<int>::hexfloat
.global	?boolalpha@?$_Iosb@H@std@@2W4_Fmtflags@12@B	; std::_Iosb<int>::boolalpha
.global	?_Stdio@?$_Iosb@H@std@@2W4_Fmtflags@12@B	; std::_Iosb<int>::_Stdio
.global	?adjustfield@?$_Iosb@H@std@@2W4_Fmtflags@12@B	; std::_Iosb<int>::adjustfield
.global	?basefield@?$_Iosb@H@std@@2W4_Fmtflags@12@B	; std::_Iosb<int>::basefield
.global	?floatfield@?$_Iosb@H@std@@2W4_Fmtflags@12@B	; std::_Iosb<int>::floatfield
.global	?goodbit@?$_Iosb@H@std@@2W4_Iostate@12@B	; std::_Iosb<int>::goodbit
.global	?eofbit@?$_Iosb@H@std@@2W4_Iostate@12@B		; std::_Iosb<int>::eofbit
.global	?failbit@?$_Iosb@H@std@@2W4_Iostate@12@B	; std::_Iosb<int>::failbit
.global	?badbit@?$_Iosb@H@std@@2W4_Iostate@12@B		; std::_Iosb<int>::badbit
.global	?_Hardfail@?$_Iosb@H@std@@2W4_Iostate@12@B	; std::_Iosb<int>::_Hardfail
.global	?in@?$_Iosb@H@std@@2W4_Openmode@12@B		; std::_Iosb<int>::in
.global	?out@?$_Iosb@H@std@@2W4_Openmode@12@B		; std::_Iosb<int>::out
.global	?ate@?$_Iosb@H@std@@2W4_Openmode@12@B		; std::_Iosb<int>::ate
.global	?app@?$_Iosb@H@std@@2W4_Openmode@12@B		; std::_Iosb<int>::app
.global	?trunc@?$_Iosb@H@std@@2W4_Openmode@12@B		; std::_Iosb<int>::trunc
.global	?_Nocreate@?$_Iosb@H@std@@2W4_Openmode@12@B	; std::_Iosb<int>::_Nocreate
.global	?_Noreplace@?$_Iosb@H@std@@2W4_Openmode@12@B	; std::_Iosb<int>::_Noreplace
.global	?binary@?$_Iosb@H@std@@2W4_Openmode@12@B	; std::_Iosb<int>::binary
.global	?beg@?$_Iosb@H@std@@2W4_Seekdir@12@B		; std::_Iosb<int>::beg
.global	?cur@?$_Iosb@H@std@@2W4_Seekdir@12@B		; std::_Iosb<int>::cur
.global	?end@?$_Iosb@H@std@@2W4_Seekdir@12@B		; std::_Iosb<int>::end
	.bss
.local	?listWindow@@3PAUHWND__@@A,4			; listWindow
.local	?szWindowClass@@3PA_WA,200			; szWindowClass
.local	?hInst@@3PAUHINSTANCE__@@A,4			; hInst
.local	?szTitle@@3PA_WA,200				; szTitle
.local	?fileChange@@3PAXA,4				; fileChange
.local	?ffd@@3U_WIN32_FIND_DATAW@@A,592		; ffd
.local	?ThreadId@@3KA,4				; ThreadId
	.rdata
	.comdat	any, ?end@?$_Iosb@H@std@@2W4_Seekdir@12@B

?end@?$_Iosb@H@std@@2W4_Seekdir@12@B:			; std::_Iosb<int>::end
	.word	0x2
	.rdata
	.comdat	any, ?cur@?$_Iosb@H@std@@2W4_Seekdir@12@B

?cur@?$_Iosb@H@std@@2W4_Seekdir@12@B:			; std::_Iosb<int>::cur
	.word	0x1
	.rdata
	.comdat	any, ?beg@?$_Iosb@H@std@@2W4_Seekdir@12@B

?beg@?$_Iosb@H@std@@2W4_Seekdir@12@B:			; std::_Iosb<int>::beg
	.word	0x0
	.rdata
	.comdat	any, ?binary@?$_Iosb@H@std@@2W4_Openmode@12@B

?binary@?$_Iosb@H@std@@2W4_Openmode@12@B:		; std::_Iosb<int>::binary
	.word	0x20
	.rdata
	.comdat	any, ?_Noreplace@?$_Iosb@H@std@@2W4_Openmode@12@B

?_Noreplace@?$_Iosb@H@std@@2W4_Openmode@12@B:		; std::_Iosb<int>::_Noreplace
	.word	0x80
	.rdata
	.comdat	any, ?_Nocreate@?$_Iosb@H@std@@2W4_Openmode@12@B

?_Nocreate@?$_Iosb@H@std@@2W4_Openmode@12@B:		; std::_Iosb<int>::_Nocreate
	.word	0x40
	.rdata
	.comdat	any, ?trunc@?$_Iosb@H@std@@2W4_Openmode@12@B

?trunc@?$_Iosb@H@std@@2W4_Openmode@12@B:		; std::_Iosb<int>::trunc
	.word	0x10
	.rdata
	.comdat	any, ?app@?$_Iosb@H@std@@2W4_Openmode@12@B

?app@?$_Iosb@H@std@@2W4_Openmode@12@B:			; std::_Iosb<int>::app
	.word	0x8
	.rdata
	.comdat	any, ?ate@?$_Iosb@H@std@@2W4_Openmode@12@B

?ate@?$_Iosb@H@std@@2W4_Openmode@12@B:			; std::_Iosb<int>::ate
	.word	0x4
	.rdata
	.comdat	any, ?out@?$_Iosb@H@std@@2W4_Openmode@12@B

?out@?$_Iosb@H@std@@2W4_Openmode@12@B:			; std::_Iosb<int>::out
	.word	0x2
	.rdata
	.comdat	any, ?in@?$_Iosb@H@std@@2W4_Openmode@12@B

?in@?$_Iosb@H@std@@2W4_Openmode@12@B:			; std::_Iosb<int>::in
	.word	0x1
	.rdata
	.comdat	any, ?_Hardfail@?$_Iosb@H@std@@2W4_Iostate@12@B

?_Hardfail@?$_Iosb@H@std@@2W4_Iostate@12@B:		; std::_Iosb<int>::_Hardfail
	.word	0x10
	.rdata
	.comdat	any, ?badbit@?$_Iosb@H@std@@2W4_Iostate@12@B

?badbit@?$_Iosb@H@std@@2W4_Iostate@12@B:		; std::_Iosb<int>::badbit
	.word	0x4
	.rdata
	.comdat	any, ?failbit@?$_Iosb@H@std@@2W4_Iostate@12@B

?failbit@?$_Iosb@H@std@@2W4_Iostate@12@B:		; std::_Iosb<int>::failbit
	.word	0x2
	.rdata
	.comdat	any, ?eofbit@?$_Iosb@H@std@@2W4_Iostate@12@B

?eofbit@?$_Iosb@H@std@@2W4_Iostate@12@B:		; std::_Iosb<int>::eofbit
	.word	0x1
	.rdata
	.comdat	any, ?goodbit@?$_Iosb@H@std@@2W4_Iostate@12@B

?goodbit@?$_Iosb@H@std@@2W4_Iostate@12@B:		; std::_Iosb<int>::goodbit
	.word	0x0
	.rdata
	.comdat	any, ?floatfield@?$_Iosb@H@std@@2W4_Fmtflags@12@B

?floatfield@?$_Iosb@H@std@@2W4_Fmtflags@12@B:		; std::_Iosb<int>::floatfield
	.word	0x3000
	.rdata
	.comdat	any, ?basefield@?$_Iosb@H@std@@2W4_Fmtflags@12@B

?basefield@?$_Iosb@H@std@@2W4_Fmtflags@12@B:		; std::_Iosb<int>::basefield
	.word	0xe00
	.rdata
	.comdat	any, ?adjustfield@?$_Iosb@H@std@@2W4_Fmtflags@12@B

?adjustfield@?$_Iosb@H@std@@2W4_Fmtflags@12@B:		; std::_Iosb<int>::adjustfield
	.word	0x1c0
	.rdata
	.comdat	any, ?_Stdio@?$_Iosb@H@std@@2W4_Fmtflags@12@B

?_Stdio@?$_Iosb@H@std@@2W4_Fmtflags@12@B:		; std::_Iosb<int>::_Stdio
	.word	0x8000
	.rdata
	.comdat	any, ?boolalpha@?$_Iosb@H@std@@2W4_Fmtflags@12@B

?boolalpha@?$_Iosb@H@std@@2W4_Fmtflags@12@B:		; std::_Iosb<int>::boolalpha
	.word	0x4000
	.rdata
	.comdat	any, ?hexfloat@?$_Iosb@H@std@@2W4_Fmtflags@12@B

?hexfloat@?$_Iosb@H@std@@2W4_Fmtflags@12@B:		; std::_Iosb<int>::hexfloat
	.word	0x3000
	.rdata
	.comdat	any, ?fixed@?$_Iosb@H@std@@2W4_Fmtflags@12@B

?fixed@?$_Iosb@H@std@@2W4_Fmtflags@12@B:		; std::_Iosb<int>::fixed
	.word	0x2000
	.rdata
	.comdat	any, ?scientific@?$_Iosb@H@std@@2W4_Fmtflags@12@B

?scientific@?$_Iosb@H@std@@2W4_Fmtflags@12@B:		; std::_Iosb<int>::scientific
	.word	0x1000
	.rdata
	.comdat	any, ?hex@?$_Iosb@H@std@@2W4_Fmtflags@12@B

?hex@?$_Iosb@H@std@@2W4_Fmtflags@12@B:			; std::_Iosb<int>::hex
	.word	0x800
	.rdata
	.comdat	any, ?oct@?$_Iosb@H@std@@2W4_Fmtflags@12@B

?oct@?$_Iosb@H@std@@2W4_Fmtflags@12@B:			; std::_Iosb<int>::oct
	.word	0x400
	.rdata
	.comdat	any, ?dec@?$_Iosb@H@std@@2W4_Fmtflags@12@B

?dec@?$_Iosb@H@std@@2W4_Fmtflags@12@B:			; std::_Iosb<int>::dec
	.word	0x200
	.rdata
	.comdat	any, ?internal@?$_Iosb@H@std@@2W4_Fmtflags@12@B

?internal@?$_Iosb@H@std@@2W4_Fmtflags@12@B:		; std::_Iosb<int>::internal
	.word	0x100
	.rdata
	.comdat	any, ?right@?$_Iosb@H@std@@2W4_Fmtflags@12@B

?right@?$_Iosb@H@std@@2W4_Fmtflags@12@B:		; std::_Iosb<int>::right
	.word	0x80
	.rdata
	.comdat	any, ?left@?$_Iosb@H@std@@2W4_Fmtflags@12@B

?left@?$_Iosb@H@std@@2W4_Fmtflags@12@B:			; std::_Iosb<int>::left
	.word	0x40
	.rdata
	.comdat	any, ?showpos@?$_Iosb@H@std@@2W4_Fmtflags@12@B

?showpos@?$_Iosb@H@std@@2W4_Fmtflags@12@B:		; std::_Iosb<int>::showpos
	.word	0x20
	.rdata
	.comdat	any, ?showpoint@?$_Iosb@H@std@@2W4_Fmtflags@12@B

?showpoint@?$_Iosb@H@std@@2W4_Fmtflags@12@B:		; std::_Iosb<int>::showpoint
	.word	0x10
	.rdata
	.comdat	any, ?showbase@?$_Iosb@H@std@@2W4_Fmtflags@12@B

?showbase@?$_Iosb@H@std@@2W4_Fmtflags@12@B:		; std::_Iosb<int>::showbase
	.word	0x8
	.rdata
	.comdat	any, ?uppercase@?$_Iosb@H@std@@2W4_Fmtflags@12@B

?uppercase@?$_Iosb@H@std@@2W4_Fmtflags@12@B:		; std::_Iosb<int>::uppercase
	.word	0x4
	.rdata
	.comdat	any, ?unitbuf@?$_Iosb@H@std@@2W4_Fmtflags@12@B

?unitbuf@?$_Iosb@H@std@@2W4_Fmtflags@12@B:		; std::_Iosb<int>::unitbuf
	.word	0x2
	.rdata
	.comdat	any, ?skipws@?$_Iosb@H@std@@2W4_Fmtflags@12@B

?skipws@?$_Iosb@H@std@@2W4_Fmtflags@12@B:		; std::_Iosb<int>::skipws
	.word	0x1
	.rdata
	.comdat	any, ?none@?$_Locbase@H@std@@2HB

?none@?$_Locbase@H@std@@2HB:				; std::_Locbase<int>::none
	.word	0x0
	.rdata
	.comdat	any, ?all@?$_Locbase@H@std@@2HB

?all@?$_Locbase@H@std@@2HB:				; std::_Locbase<int>::all
	.word	0x3f
	.rdata
	.comdat	any, ?messages@?$_Locbase@H@std@@2HB

?messages@?$_Locbase@H@std@@2HB:			; std::_Locbase<int>::messages
	.word	0x20
	.rdata
	.comdat	any, ?time@?$_Locbase@H@std@@2HB

?time@?$_Locbase@H@std@@2HB:				; std::_Locbase<int>::time
	.word	0x10
	.rdata
	.comdat	any, ?numeric@?$_Locbase@H@std@@2HB

?numeric@?$_Locbase@H@std@@2HB:				; std::_Locbase<int>::numeric
	.word	0x8
	.rdata
	.comdat	any, ?monetary@?$_Locbase@H@std@@2HB

?monetary@?$_Locbase@H@std@@2HB:			; std::_Locbase<int>::monetary
	.word	0x4
	.rdata
	.comdat	any, ?ctype@?$_Locbase@H@std@@2HB

?ctype@?$_Locbase@H@std@@2HB:				; std::_Locbase<int>::ctype
	.word	0x2
	.rdata
	.comdat	any, ?collate@?$_Locbase@H@std@@2HB

?collate@?$_Locbase@H@std@@2HB:				; std::_Locbase<int>::collate
	.word	0x1
	.rdata
	.comdat	any, ?_Value@?$_Is_swap_move@U_Swap_move_tag@std@@@std@@2_NB

?_Value@?$_Is_swap_move@U_Swap_move_tag@std@@@std@@2_NB: ; std::_Is_swap_move<std::_Swap_move_tag>::_Value
	.byte	0x1
	.data

__bad_alloc_Message:
	DD	$SG51038
	.rdata
	.space	844

$SG51038:
	.ascii	"bad allocation\000"
	.space	1

$SG67613:
	.ascii	"S\000y\000s\000L\000i\000s\000t\000V\000i\000e\000w\0003"
	.ascii	"\0002\000\000\000"

$SG67626:
	.ascii	"-1\000"
	.space	1

$SG67628:
	.ascii	"C\000:\000\\\000U\000s\000e\000r\000s\000\\\000m\000a\000"
	.ascii	"d\000h\000u\000r\000d\000e\000s\000k\000\\\000D\000e\000s"
	.ascii	"\000k\000t\000o\000p\000\000\000"

$SG67633:
	.ascii	"\\\000*\000.\000l\000o\000g\000\000\000"
	.rdata
	.comdat	any, ?SECTION_SIZE@SPLogParser@@0HB

?SECTION_SIZE@SPLogParser@@0HB:				; SPLogParser::SECTION_SIZE
	.word	0x8
.global	
.global	
.global	
	.bss
.local	$T74358,0
.local	,4
.local	,4
.local	,4
; Function compile flags: /Odtp
	.text
	.comdat	any, ?GetMessage@@$$J0YAHPAUtagMSG@@PAUHWND__@@II@Z
.global	?GetMessage@@$$J0YAHPAUtagMSG@@PAUHWND__@@II@Z	; GetMessage
?GetMessage@@$$J0YAHPAUtagMSG@@PAUHWND__@@II@Z:		; GetMessage
;	.proc.def	D:I(IIII)

; Function Header:
; max stack depth = 4
; function size = 12 bytes
; local varsig tk = 0x11000038 
; Exception Information:
; 0 handlers, each consisting of filtered handlers

;	.formal.u4 3,"_wMsgFilterMax$" SIG: u4
;	.formal.u4 2,"_wMsgFilterMin$" SIG: u4
;	.formal.i4 1,"_hWnd$" SIG: ptr.valueType (token:0x54003FA)
;	.formal.i4 0,"_lpMsg$" SIG: ptr.valueType (token:0x53EB98A)
;	.local.i4 0,"$T74354" SIG: i4

;	.proc.beg
; File c:\program files\microsoft sdks\windows\v6.0a\include\winuser.h
; Line 3011
	ldarg.0				; _lpMsg$
	ldarg.1				; _hWnd$
	ldarg.2				; _wMsgFilterMin$
	ldarg.3				; _wMsgFilterMax$
	call		?GetMessageW@@$$J216YGHPAUtagMSG@@PAUHWND__@@II@Z
	stloc.0				; $T74354
; Line 3012
	ldloc.0				; $T74354
	ret		
 .end ?GetMessage@@$$J0YAHPAUtagMSG@@PAUHWND__@@II@Z	; GetMessage
;	.proc.end.i4
_TEXT	ENDS
PUBLIC	__mep@?GetMessage@@$$J0YAHPAUtagMSG@@PAUHWND__@@II@Z
PUBLIC	__t2m@_GetMessage
;	COMDAT __mep@?GetMessage@@$$J0YAHPAUtagMSG@@PAUHWND__@@II@Z
data	SEGMENT
__mep@?GetMessage@@$$J0YAHPAUtagMSG@@PAUHWND__@@II@Z TOKEN 0A000012
; Function compile flags: /Odtp
data	ENDS
;	COMDAT _GetMessage
_TEXT	SEGMENT
__t2m@_GetMessage PROC					; COMDAT
	jmp	DWORD PTR __mep@?GetMessage@@$$J0YAHPAUtagMSG@@PAUHWND__@@II@Z
__t2m@_GetMessage ENDP
.global	
	.bss
.local	$T74367,0
.local	,4
; Function compile flags: /Odtp
	.text
	.comdat	any, ?DispatchMessage@@$$J0YAJPBUtagMSG@@@Z
.global	?DispatchMessage@@$$J0YAJPBUtagMSG@@@Z		; DispatchMessage
?DispatchMessage@@$$J0YAJPBUtagMSG@@@Z:			; DispatchMessage
;	.proc.def	D:I(I)

; Function Header:
; max stack depth = 1
; function size = 9 bytes
; local varsig tk = 0x1100003A 
; Exception Information:
; 0 handlers, each consisting of filtered handlers

;	.formal.i4 0,"_lpMsg$" SIG: ptr.Optional C Binding Modifier(token:0x53F4C96).valueType (token:0x53F4C98)
;	.local.i4 0,"$T74365" SIG: Optional C Binding Modifier(token:0x521A95).i4

;	.proc.beg
; Line 3052
	ldarg.0				; _lpMsg$
	call		?DispatchMessageW@@$$J14YGJPBUtagMSG@@@Z
	stloc.0				; $T74365
; Line 3053
	ldloc.0				; $T74365
	ret		
 .end ?DispatchMessage@@$$J0YAJPBUtagMSG@@@Z		; DispatchMessage
;	.proc.end.i4
_TEXT	ENDS
PUBLIC	__mep@?DispatchMessage@@$$J0YAJPBUtagMSG@@@Z
PUBLIC	__t2m@_DispatchMessage
;	COMDAT __mep@?DispatchMessage@@$$J0YAJPBUtagMSG@@@Z
data	SEGMENT
__mep@?DispatchMessage@@$$J0YAJPBUtagMSG@@@Z TOKEN 0A000013
; Function compile flags: /Odtp
data	ENDS
;	COMDAT _DispatchMessage
_TEXT	SEGMENT
__t2m@_DispatchMessage PROC				; COMDAT
	jmp	DWORD PTR __mep@?DispatchMessage@@$$J0YAJPBUtagMSG@@@Z
__t2m@_DispatchMessage ENDP
.global	
	.bss
.local	$T74376,0
.local	,4
; Function compile flags: /Odtp
	.text
	.comdat	any, ?MessageBox@@$$J0YAHPAUHWND__@@PB_W1I@Z
.global	?MessageBox@@$$J0YAHPAUHWND__@@PB_W1I@Z		; MessageBox
?MessageBox@@$$J0YAHPAUHWND__@@PB_W1I@Z:		; MessageBox
;	.proc.def	D:I(IIII)

; Function Header:
; max stack depth = 4
; function size = 12 bytes
; local varsig tk = 0x11000038 
; Exception Information:
; 0 handlers, each consisting of filtered handlers

;	.formal.u4 3,"_uType$" SIG: u4
;	.formal.i4 2,"_lpCaption$" SIG: ptr.Optional C Binding Modifier(token:0x53FEDCA).char
;	.formal.i4 1,"_lpText$" SIG: ptr.Optional C Binding Modifier(token:0x53FEDCA).char
;	.formal.i4 0,"_hWnd$" SIG: ptr.valueType (token:0x54003FA)
;	.local.i4 0,"$T74374" SIG: i4

;	.proc.beg
; Line 7390
	ldarg.0				; _hWnd$
	ldarg.1				; _lpText$
	ldarg.2				; _lpCaption$
	ldarg.3				; _uType$
	call		?MessageBoxW@@$$J216YGHPAUHWND__@@PB_W1I@Z
	stloc.0				; $T74374
; Line 7391
	ldloc.0				; $T74374
	ret		
 .end ?MessageBox@@$$J0YAHPAUHWND__@@PB_W1I@Z		; MessageBox
;	.proc.end.i4
_TEXT	ENDS
PUBLIC	__mep@?MessageBox@@$$J0YAHPAUHWND__@@PB_W1I@Z
PUBLIC	__t2m@_MessageBox
;	COMDAT __mep@?MessageBox@@$$J0YAHPAUHWND__@@PB_W1I@Z
data	SEGMENT
__mep@?MessageBox@@$$J0YAHPAUHWND__@@PB_W1I@Z TOKEN 0A000014
; Function compile flags: /Odtp
data	ENDS
;	COMDAT _MessageBox
_TEXT	SEGMENT
__t2m@_MessageBox PROC					; COMDAT
	jmp	DWORD PTR __mep@?MessageBox@@$$J0YAHPAUHWND__@@PB_W1I@Z
__t2m@_MessageBox ENDP
.global	
	.bss
.local	,4
; Function compile flags: /Odtp
	.text
	.comdat	any, ?CheckError@_com_util@@$$FYAXJ@Z
.global	?CheckError@_com_util@@$$FYAXJ@Z		; _com_util::CheckError
?CheckError@_com_util@@$$FYAXJ@Z:			; _com_util::CheckError
;	.proc.def	D:V(I)

; Function Header:
; max stack depth = 2
; function size = 11 bytes
; local varsig tk = 0x0 
; Exception Information:
; 0 handlers, each consisting of filtered handlers

;	.formal.i4 0,"_hr$" SIG: Optional C Binding Modifier(token:0x53DD7BD).i4

;	.proc.beg
; File c:\program files (x86)\microsoft visual studio 9.0\vc\include\comutil.h
; Line 96
	ldarg.0				; _hr$
	ldc.i.0		0		; i32 0x0
	bge.s		$LN3@CheckError
; Line 97
	ldarg.0				; _hr$
	call		?_com_issue_error@@$$FYGXJ@Z
$LN3@CheckError:
; Line 99
	ret		
 .end ?CheckError@_com_util@@$$FYAXJ@Z			; _com_util::CheckError
;	.proc.end.void
_TEXT	ENDS
PUBLIC	__mep@?CheckError@_com_util@@$$FYAXJ@Z
PUBLIC	__t2m@?CheckError@_com_util@@YAXJ@Z
;	COMDAT __mep@?CheckError@_com_util@@$$FYAXJ@Z
data	SEGMENT
__mep@?CheckError@_com_util@@$$FYAXJ@Z TOKEN 0A00001C
; Function compile flags: /Odtp
data	ENDS
;	COMDAT ?CheckError@_com_util@@YAXJ@Z
_TEXT	SEGMENT
__t2m@?CheckError@_com_util@@YAXJ@Z PROC		; COMDAT
	jmp	DWORD PTR __mep@?CheckError@_com_util@@$$FYAXJ@Z
__t2m@?CheckError@_com_util@@YAXJ@Z ENDP
.global	
	.bss
.local	$T74392,0
.local	,4
; Function compile flags: /Odtp
	.text
	.comdat	any, ?AddRef@Data_t@_bstr_t@@$$FQAEKXZ
.global	?AddRef@Data_t@_bstr_t@@$$FQAEKXZ		; _bstr_t::Data_t::AddRef
?AddRef@Data_t@_bstr_t@@$$FQAEKXZ:			; _bstr_t::Data_t::AddRef
;	.proc.def	D:I(I)

; Function Header:
; max stack depth = 2
; function size = 16 bytes
; local varsig tk = 0x1100003E 
; Exception Information:
; 0 handlers, each consisting of filtered handlers

;	.formal.i4 0,"_this$" SIG: Optional C Binding Modifier(token:0x5422A81).Optional C Binding Modifier(token:0x5422A83).ptr.valueType (token:0x5422A86)
;	.local.u4 0,"$T74390" SIG: Optional C Binding Modifier(token:0x52EFF9).u4

;	.proc.beg
; Line 767
	ldarg.0				; _this$
	ldc.i.8		8		; i32 0x8
	add		
	call		?InterlockedIncrement@@$$J14YGJPCJ@Z
	pop		
; Line 768
	ldarg.0				; _this$
	ldc.i.8		8		; i32 0x8
	add		
	ldind.i4	
	stloc.0				; $T74390
; Line 769
	ldloc.0				; $T74390
	ret		
 .end ?AddRef@Data_t@_bstr_t@@$$FQAEKXZ			; _bstr_t::Data_t::AddRef
;	.proc.end.u4
_TEXT	ENDS
PUBLIC	__mep@?AddRef@Data_t@_bstr_t@@$$FQAEKXZ
PUBLIC	__t2m@?AddRef@Data_t@_bstr_t@@QAEKXZ
;	COMDAT __mep@?AddRef@Data_t@_bstr_t@@$$FQAEKXZ
data	SEGMENT
__mep@?AddRef@Data_t@_bstr_t@@$$FQAEKXZ TOKEN 0A000032
; Function compile flags: /Odtp
data	ENDS
;	COMDAT ?AddRef@Data_t@_bstr_t@@QAEKXZ
_TEXT	SEGMENT
__t2m@?AddRef@Data_t@_bstr_t@@QAEKXZ PROC		; COMDAT
	jmp	DWORD PTR __mep@?AddRef@Data_t@_bstr_t@@$$FQAEKXZ
__t2m@?AddRef@Data_t@_bstr_t@@QAEKXZ ENDP
.global	
.global	
	.bss
.local	,4
.local	,4
; Function compile flags: /Odtp
	.text
	.comdat	any, ??0_variant_t@@$$FQAE@ABV0@@Z
.global	??0_variant_t@@$$FQAE@ABV0@@Z			; _variant_t::_variant_t
??0_variant_t@@$$FQAE@ABV0@@Z:				; _variant_t::_variant_t
;	.proc.def	D:I(II)

; Function Header:
; max stack depth = 2
; function size = 20 bytes
; local varsig tk = 0x0 
; Exception Information:
; 0 handlers, each consisting of filtered handlers

;	.formal.i4 1,"_varSrc$" SIG: Optional C Binding Modifier(token:0x53FBB05).ptr.Optional C Binding Modifier(token:0x53FBB08).valueType (token:0x53FBB0A)
;	.formal.i4 0,"_this$" SIG: Optional C Binding Modifier(token:0x5420599).Optional C Binding Modifier(token:0x542059B).ptr.valueType (token:0x542059E)

;	.proc.beg
; Line 1156
	ldarg.0				; _this$
	call		?VariantInit@@$$J14YGXPAUtagVARIANT@@@Z
; Line 1157
	ldarg.0				; _this$
	ldarg.1				; _varSrc$
	call		?VariantCopy@@$$J18YGJPAUtagVARIANT@@PBU1@@Z
	call		?CheckError@_com_util@@$$FYAXJ@Z
; Line 1158
	ldarg.0				; _this$
	ret		
 .end ??0_variant_t@@$$FQAE@ABV0@@Z			; _variant_t::_variant_t
;	.proc.end.i4
_TEXT	ENDS
PUBLIC	__mep@??0_variant_t@@$$FQAE@ABV0@@Z
PUBLIC	__t2m@??0_variant_t@@QAE@ABV0@@Z
;	COMDAT __mep@??0_variant_t@@$$FQAE@ABV0@@Z
data	SEGMENT
__mep@??0_variant_t@@$$FQAE@ABV0@@Z TOKEN 0A00003F
; Function compile flags: /Odtp
data	ENDS
;	COMDAT ??0_variant_t@@QAE@ABV0@@Z
_TEXT	SEGMENT
__t2m@??0_variant_t@@QAE@ABV0@@Z PROC			; COMDAT
	jmp	DWORD PTR __mep@??0_variant_t@@$$FQAE@ABV0@@Z
__t2m@??0_variant_t@@QAE@ABV0@@Z ENDP
.global	??_C@_1IO@BBMNBHMA@?$AAC?$AA?3?$AA?2?$AAP?$AAr?$AAo?$AAg?$AAr?$AAa?$AAm?$AA?5?$AAF?$AAi?$AAl?$AAe?$AAs?$AA?5?$AA?$CI?$AAx?$AA8?$AA6?$AA?$CJ?$AA?2?$AAM?$AAi?$AAc?$AAr?$AAo?$AAs?$AAo?$AAf?$AAt@ ; `string'
.global	??_C@_1DC@POOIKBAO@?$AAI?$AAT?$AAE?$AAR?$AAA?$AAT?$AAO?$AAR?$AA?5?$AAL?$AAI?$AAS?$AAT?$AA?5?$AAC?$AAO?$AAR?$AAR?$AAU?$AAP?$AAT?$AAE?$AAD?$AA?$CB?$AA?$AA@ ; `string'
.global	
.global	
	.bss
.local	$T74409,0
.local	,4
.local	,4
; File c:\program files (x86)\microsoft visual studio 9.0\vc\include\xutility
	.rdata
	.comdat	any, ??_C@_1IO@BBMNBHMA@?$AAC?$AA?3?$AA?2?$AAP?$AAr?$AAo?$AAg?$AAr?$AAa?$AAm?$AA?5?$AAF?$AAi?$AAl?$AAe?$AAs?$AA?5?$AA?$CI?$AAx?$AA8?$AA6?$AA?$CJ?$AA?2?$AAM?$AAi?$AAc?$AAr?$AAo?$AAs?$AAo?$AAf?$AAt@

??_C@_1IO@BBMNBHMA@?$AAC?$AA?3?$AA?2?$AAP?$AAr?$AAo?$AAg?$AAr?$AAa?$AAm?$AA?5?$AAF?$AAi?$AAl?$AAe?$AAs?$AA?5?$AA?$CI?$AAx?$AA8?$AA6?$AA?$CJ?$AA?2?$AAM?$AAi?$AAc?$AAr?$AAo?$AAs?$AAo?$AAf?$AAt@: ; `string'
	.ascii	"C\000:\000\\\000P\000r\000o\000g\000r\000a\000m\000 \000"
	.ascii	"F\000i\000l\000e\000s\000 \000(\000x\0008\0006\000)\000\\"
	.ascii	"\000M\000i\000c\000r\000o\000s\000o\000f\000t\000 \000V\000"
	.ascii	"i\000s\000u\000a\000l\000 \000S\000t\000u\000d\000i\000o\000"
	.ascii	" \0009\000.\0000\000\\\000V\000C\000\\\000i\000n\000c\000"
	.ascii	"l\000u\000d\000e\000\\\000x\000u\000t\000i\000l\000i\000t"
	.ascii	"\000y\000\000\000"
	.rdata
	.comdat	any, ??_C@_1DC@POOIKBAO@?$AAI?$AAT?$AAE?$AAR?$AAA?$AAT?$AAO?$AAR?$AA?5?$AAL?$AAI?$AAS?$AAT?$AA?5?$AAC?$AAO?$AAR?$AAR?$AAU?$AAP?$AAT?$AAE?$AAD?$AA?$CB?$AA?$AA@

??_C@_1DC@POOIKBAO@?$AAI?$AAT?$AAE?$AAR?$AAA?$AAT?$AAO?$AAR?$AA?5?$AAL?$AAI?$AAS?$AAT?$AA?5?$AAC?$AAO?$AAR?$AAR?$AAU?$AAP?$AAT?$AAE?$AAD?$AA?$CB?$AA?$AA@: ; `string'
	.ascii	"I\000T\000E\000R\000A\000T\000O\000R\000 \000L\000I\000S"
	.ascii	"\000T\000 \000C\000O\000R\000R\000U\000P\000T\000E\000D\000"
	.ascii	"!\000\000\000"
; Function compile flags: /Odtp
	.text
	.comdat	any, ?_Orphan_me@_Iterator_base@std@@$$FQAEXXZ
.global	?_Orphan_me@_Iterator_base@std@@$$FQAEXXZ	; std::_Iterator_base::_Orphan_me
?_Orphan_me@_Iterator_base@std@@$$FQAEXXZ:		; std::_Iterator_base::_Orphan_me
;	.proc.def	D:V(I)

; Function Header:
; max stack depth = 3
; function size = 64 bytes
; local varsig tk = 0x11000043 
; Exception Information:
; 0 handlers, each consisting of filtered handlers

;	.formal.i4 0,"_this$" SIG: Optional C Binding Modifier(token:0x53E76BD).Optional C Binding Modifier(token:0x53E76BF).ptr.valueType (token:0x53E76C2)
;	.local.i4 0,"__Pnext$52329" SIG: ptr.ptr.valueType (token:0x5408F4F)

;	.proc.beg
; Line 181
	ldarg.0				; _this$
	ldind.i4	
	brfalse.s	$LN5@Orphan_me
	ldarg.0				; _this$
	ldind.i4	
	ldind.i4	
	ldc.i4.s	-3		; u32 0xfffffffd
	beq.s		$LN5@Orphan_me
; Line 184
	ldarg.0				; _this$
	ldind.i4	
	stloc.0				; __Pnext$52329
$LN3@Orphan_me:
; Line 185
	ldloc.0				; __Pnext$52329
	ldind.i4	
	brfalse.s	$LN2@Orphan_me
	ldloc.0				; __Pnext$52329
	ldind.i4	
	ldarg.0				; _this$
	beq.s		$LN2@Orphan_me
; Line 186
	ldloc.0				; __Pnext$52329
	ldind.i4	
	ldc.i.4		4		; i32 0x4
	add		
	stloc.0				; __Pnext$52329
	br.s		$LN3@Orphan_me
$LN2@Orphan_me:
; Line 188
	ldloc.0				; __Pnext$52329
	ldind.i4	
	brtrue.s	$LN1@Orphan_me
; Line 189
	ldsflda		??_C@_1DC@POOIKBAO@?$AAI?$AAT?$AAE?$AAR?$AAA?$AAT?$AAO?$AAR?$AA?5?$AAL?$AAI?$AAS?$AAT?$AA?5?$AAC?$AAO?$AAR?$AAR?$AAU?$AAP?$AAT?$AAE?$AAD?$AA?$CB?$AA?$AA@
	ldsflda		??_C@_1IO@BBMNBHMA@?$AAC?$AA?3?$AA?2?$AAP?$AAr?$AAo?$AAg?$AAr?$AAa?$AAm?$AA?5?$AAF?$AAi?$AAl?$AAe?$AAs?$AA?5?$AA?$CI?$AAx?$AA8?$AA6?$AA?$CJ?$AA?2?$AAM?$AAi?$AAc?$AAr?$AAo?$AAs?$AAo?$AAf?$AAt@
	ldc.i4		189		; u32 0xbd
	call		?_Debug_message@std@@$$FYAXPB_W0I@Z
$LN1@Orphan_me:
; Line 190
	ldloc.0				; __Pnext$52329
	ldarg.0				; _this$
	ldc.i.4		4		; i32 0x4
	add		
	ldind.i4	
	stind.i4	
; Line 191
	ldarg.0				; _this$
	ldc.i.0		0		; i32 0x0
	stind.i4	
$LN5@Orphan_me:
; Line 193
	ret		
 .end ?_Orphan_me@_Iterator_base@std@@$$FQAEXXZ		; std::_Iterator_base::_Orphan_me
;	.proc.end.void
_TEXT	ENDS
PUBLIC	__mep@?_Orphan_me@_Iterator_base@std@@$$FQAEXXZ
PUBLIC	__t2m@?_Orphan_me@_Iterator_base@std@@QAEXXZ
;	COMDAT __mep@?_Orphan_me@_Iterator_base@std@@$$FQAEXXZ
data	SEGMENT
__mep@?_Orphan_me@_Iterator_base@std@@$$FQAEXXZ TOKEN 0A000067
; Function compile flags: /Odtp
data	ENDS
;	COMDAT ?_Orphan_me@_Iterator_base@std@@QAEXXZ
_TEXT	SEGMENT
__t2m@?_Orphan_me@_Iterator_base@std@@QAEXXZ PROC	; COMDAT
	jmp	DWORD PTR __mep@?_Orphan_me@_Iterator_base@std@@$$FQAEXXZ
__t2m@?_Orphan_me@_Iterator_base@std@@QAEXXZ ENDP
.global	??_7logic_error@std@@6B@			; std::logic_error::`vftable'
.global	
.global	??_R4logic_error@std@@6B@			; std::logic_error::`RTTI Complete Object Locator'
.global	??_R0?AVlogic_error@std@@@8			; std::logic_error `RTTI Type Descriptor'
.global	??_R3logic_error@std@@8				; std::logic_error::`RTTI Class Hierarchy Descriptor'
.global	??_R2logic_error@std@@8				; std::logic_error::`RTTI Base Class Array'
.global	??_R1A@?0A@EA@logic_error@std@@8		; std::logic_error::`RTTI Base Class Descriptor at (0,-1,0,64)'
.global	??_R1A@?0A@EA@exception@std@@8			; std::exception::`RTTI Base Class Descriptor at (0,-1,0,64)'
.global	??_R0?AVexception@std@@@8			; std::exception `RTTI Type Descriptor'
.global	??_R3exception@std@@8				; std::exception::`RTTI Class Hierarchy Descriptor'
.global	??_R2exception@std@@8				; std::exception::`RTTI Base Class Array'
	.bss
.local	,4
; File c:\program files (x86)\microsoft visual studio 9.0\vc\include\stdexcept
	.rdataseg	.rdata$r
	.comdat	any, ??_R2exception@std@@8

??_R2exception@std@@8:					; std::exception::`RTTI Base Class Array'
	DD	??_R1A@?0A@EA@exception@std@@8
	.rdataseg	.rdata$r
	.comdat	any, ??_R3exception@std@@8

??_R3exception@std@@8:					; std::exception::`RTTI Class Hierarchy Descriptor'
	.word	0x0
	.word	0x0
	.word	0x1
	DD	??_R2exception@std@@8
	.data
	.comdat	any, ??_R0?AVexception@std@@@8

??_R0?AVexception@std@@@8:				; std::exception `RTTI Type Descriptor'
	DD	??_7type_info@@6B@
	.word	0x0
	.ascii	".?AVexception@std@@\000"
	.rdataseg	.rdata$r
	.comdat	any, ??_R1A@?0A@EA@exception@std@@8

??_R1A@?0A@EA@exception@std@@8:				; std::exception::`RTTI Base Class Descriptor at (0,-1,0,64)'
	DD	??_R0?AVexception@std@@@8
	.word	0x0
	.word	0x0
	.word	0xffffffff
	.word	0x0
	.word	0x40
	DD	??_R3exception@std@@8
	.rdataseg	.rdata$r
	.comdat	any, ??_R1A@?0A@EA@logic_error@std@@8

??_R1A@?0A@EA@logic_error@std@@8:			; std::logic_error::`RTTI Base Class Descriptor at (0,-1,0,64)'
	DD	??_R0?AVlogic_error@std@@@8
	.word	0x1
	.word	0x0
	.word	0xffffffff
	.word	0x0
	.word	0x40
	DD	??_R3logic_error@std@@8
	.rdataseg	.rdata$r
	.comdat	any, ??_R2logic_error@std@@8

??_R2logic_error@std@@8:				; std::logic_error::`RTTI Base Class Array'
	DD	??_R1A@?0A@EA@logic_error@std@@8
	DD	??_R1A@?0A@EA@exception@std@@8
	.rdataseg	.rdata$r
	.comdat	any, ??_R3logic_error@std@@8

??_R3logic_error@std@@8:				; std::logic_error::`RTTI Class Hierarchy Descriptor'
	.word	0x0
	.word	0x0
	.word	0x2
	DD	??_R2logic_error@std@@8
	.data
	.comdat	any, ??_R0?AVlogic_error@std@@@8

??_R0?AVlogic_error@std@@@8:				; std::logic_error `RTTI Type Descriptor'
	DD	??_7type_info@@6B@
	.word	0x0
	.ascii	".?AVlogic_error@std@@\000"
	.rdataseg	.rdata$r
	.comdat	any, ??_R4logic_error@std@@6B@

??_R4logic_error@std@@6B@:				; std::logic_error::`RTTI Complete Object Locator'
	.word	0x0
	.word	0x0
	.word	0x0
	DD	??_R0?AVlogic_error@std@@@8
	DD	??_R3logic_error@std@@8
	.data
	.comdat	largest, ??_7logic_error@std@@6B@

??_7logic_error@std@@6B@:				; std::logic_error::`vftable'
	DD	??_R4logic_error@std@@6B@
	DD	??_Elogic_error@std@@UAEPAXI@Z
	DD	?what@logic_error@std@@UBEPBDXZ
; Function compile flags: /Odtp
	.text
	.comdat	any, ??1logic_error@std@@$$FUAE@XZ
.global	??1logic_error@std@@$$FUAE@XZ			; std::logic_error::~logic_error
??1logic_error@std@@$$FUAE@XZ:				; std::logic_error::~logic_error
;	.proc.def	D:V(I)

; Function Header:
; max stack depth = 2
; function size = 38 bytes
; local varsig tk = 0x0 
; Exception Information:
; 1 handlers, each consisting of filtered handlers

;	.formal.i4 0,"_this$" SIG: Optional C Binding Modifier(token:0x5403891).Optional C Binding Modifier(token:0x5403893).ptr.valueType (token:0x5403896)

;	.proc.beg
; Line 30
	ldarg.0				; _this$
	ldsflda		??_7logic_error@std@@6B@
	stind.i4	
$LN5@logic_erro:
; Line 31
	ldarg.0				; _this$
	ldc.i4.s	12		; i32 0xc
	add		
	call		??1?$basic_string@DU?$char_traits@D@std@@V?$allocator@D@2@@std@@$$FQAE@XZ
	leave.s		$LN6@logic_erro
$LN7@logic_erro:
	ldftn		??1exception@std@@$$FUAE@XZ
	ldarg.0				; _this$
	call		?___CxxCallUnwindDtor@@$$J0YMXP6MXPAX@Z0@Z
	endfinally	
$LN6@logic_erro:
	ldarg.0				; _this$
	call		??1exception@std@@$$FUAE@XZ
	ret		
 .end ??1logic_error@std@@$$FUAE@XZ			; std::logic_error::~logic_error
;	.proc.end.void
_TEXT	ENDS
PUBLIC	__mep@??1logic_error@std@@$$FUAE@XZ
PUBLIC	__t2m@??1logic_error@std@@UAE@XZ
;	COMDAT __mep@??1logic_error@std@@$$FUAE@XZ
data	SEGMENT
__mep@??1logic_error@std@@$$FUAE@XZ TOKEN 0A00006B
; Function compile flags: /Odtp
data	ENDS
;	COMDAT ??1logic_error@std@@UAE@XZ
_TEXT	SEGMENT
__t2m@??1logic_error@std@@UAE@XZ PROC			; COMDAT
	jmp	DWORD PTR __mep@??1logic_error@std@@$$FUAE@XZ
__t2m@??1logic_error@std@@UAE@XZ ENDP
.global	
	.bss
.local	$T74438,0
.local	,4
; Function compile flags: /Odtp
	.text
	.comdat	any, ?what@logic_error@std@@$$FUBEPBDXZ
.global	?what@logic_error@std@@$$FUBEPBDXZ		; std::logic_error::what
?what@logic_error@std@@$$FUBEPBDXZ:			; std::logic_error::what
;	.proc.def	D:I(I)

; Function Header:
; max stack depth = 2
; function size = 12 bytes
; local varsig tk = 0x11000046 
; Exception Information:
; 0 handlers, each consisting of filtered handlers

;	.formal.i4 0,"_this$" SIG: Optional C Binding Modifier(token:0x540D361).Optional C Binding Modifier(token:0x540D363).ptr.Optional C Binding Modifier(token:0x540D366).valueType (token:0x540D368)
;	.local.i4 0,"$T74436" SIG: ptr.Optional C Binding Modifier(token:0x47D86E).Optional C Binding Modifier(token:0x47D870).i1

;	.proc.beg
; Line 35
	ldarg.0				; _this$
	ldc.i4.s	12		; i32 0xc
	add		
	call		?c_str@?$basic_string@DU?$char_traits@D@std@@V?$allocator@D@2@@std@@$$FQBEPBDXZ
	stloc.0				; $T74436
; Line 36
	ldloc.0				; $T74436
	ret		
 .end ?what@logic_error@std@@$$FUBEPBDXZ		; std::logic_error::what
;	.proc.end.i4
_TEXT	ENDS
PUBLIC	__mep@?what@logic_error@std@@$$FUBEPBDXZ
PUBLIC	__t2m@?what@logic_error@std@@UBEPBDXZ
;	COMDAT __mep@?what@logic_error@std@@$$FUBEPBDXZ
data	SEGMENT
__mep@?what@logic_error@std@@$$FUBEPBDXZ TOKEN 0A00006C
; Function compile flags: /Odtp
data	ENDS
;	COMDAT ?what@logic_error@std@@UBEPBDXZ
_TEXT	SEGMENT
__t2m@?what@logic_error@std@@UBEPBDXZ PROC		; COMDAT
	jmp	DWORD PTR __mep@?what@logic_error@std@@$$FUBEPBDXZ
__t2m@?what@logic_error@std@@UBEPBDXZ ENDP
	.bss
.local	$T74444,0
; Function compile flags: /Odtp
	.text
	.comdat	any, ??_Elogic_error@std@@$$FUAEPAXI@Z
.global	??_Elogic_error@std@@$$FUAEPAXI@Z		; std::logic_error::`vector deleting destructor'
??_Elogic_error@std@@$$FUAEPAXI@Z:			; std::logic_error::`vector deleting destructor'
;	.proc.def	D:I(II)

; Function Header:
; max stack depth = 4
; function size = 63 bytes
; local varsig tk = 0x11000047 
; Exception Information:
; 0 handlers, each consisting of filtered handlers

;	.formal.i4 0,"_this$" SIG: Optional C Binding Modifier(token:0x5403891).Optional C Binding Modifier(token:0x5403893).ptr.valueType (token:0x5403896)
;	.formal.u4 1,"___flags$" SIG: u4
;	.local.i4 0,"$T74443" SIG: ptr.void

;	.proc.beg
	ldarg.1				; ___flags$
	ldc.i.2		2		; u32 0x2
	and		
	brfalse.s	$LN3@vector
	ldarg.0				; _this$
	ldc.i4.s	44		; u32 0x2c
	ldarg.0				; _this$
	ldc.i.4		4		; i32 0x4
	sub		
	ldind.i4	
	ldftn		??1logic_error@std@@$$FUAE@XZ
	call		??_M@$$FYMXPAXIHP6MX0@Z@Z
	ldarg.1				; ___flags$
	ldc.i.1		1		; u32 0x1
	and		
	brfalse.s	$LN2@vector
	ldarg.0				; _this$
	ldc.i.4		4		; i32 0x4
	sub		
	call		??_V@$$FYAXPAX@Z
$LN2@vector:
	ldarg.0				; _this$
	ldc.i.4		4		; i32 0x4
	sub		
	stloc.0				; $T74443
	br.s		$LN4@vector
$LN3@vector:
	ldarg.0				; _this$
	call		??1logic_error@std@@$$FUAE@XZ
	ldarg.1				; ___flags$
	ldc.i.1		1		; u32 0x1
	and		
	brfalse.s	$LN1@vector
	ldarg.0				; _this$
	call		??3@$$FYAXPAX@Z
$LN1@vector:
	ldarg.0				; _this$
	stloc.0				; $T74443
$LN4@vector:
	ldloc.0				; $T74443
	ret		
 .end ??_Elogic_error@std@@$$FUAEPAXI@Z			; std::logic_error::`vector deleting destructor'
;	.proc.end.i4
_TEXT	ENDS
PUBLIC	__mep@??_Elogic_error@std@@$$FUAEPAXI@Z
PUBLIC	__t2m@??_Elogic_error@std@@UAEPAXI@Z
;	COMDAT __mep@??_Elogic_error@std@@$$FUAEPAXI@Z
data	SEGMENT
__mep@??_Elogic_error@std@@$$FUAEPAXI@Z TOKEN 0A00006D
; Function compile flags: /Odtp
data	ENDS
;	COMDAT ??_Elogic_error@std@@UAEPAXI@Z
_TEXT	SEGMENT
__t2m@??_Elogic_error@std@@UAEPAXI@Z PROC		; COMDAT
	jmp	DWORD PTR __mep@??_Elogic_error@std@@$$FUAEPAXI@Z
__t2m@??_Elogic_error@std@@UAEPAXI@Z ENDP
.global	??_7runtime_error@std@@6B@			; std::runtime_error::`vftable'
.global	
.global	??_R4runtime_error@std@@6B@			; std::runtime_error::`RTTI Complete Object Locator'
.global	??_R0?AVruntime_error@std@@@8			; std::runtime_error `RTTI Type Descriptor'
.global	??_R3runtime_error@std@@8			; std::runtime_error::`RTTI Class Hierarchy Descriptor'
.global	??_R2runtime_error@std@@8			; std::runtime_error::`RTTI Base Class Array'
.global	??_R1A@?0A@EA@runtime_error@std@@8		; std::runtime_error::`RTTI Base Class Descriptor at (0,-1,0,64)'
	.bss
.local	,4
	.rdataseg	.rdata$r
	.comdat	any, ??_R1A@?0A@EA@runtime_error@std@@8

??_R1A@?0A@EA@runtime_error@std@@8:			; std::runtime_error::`RTTI Base Class Descriptor at (0,-1,0,64)'
	DD	??_R0?AVruntime_error@std@@@8
	.word	0x1
	.word	0x0
	.word	0xffffffff
	.word	0x0
	.word	0x40
	DD	??_R3runtime_error@std@@8
	.rdataseg	.rdata$r
	.comdat	any, ??_R2runtime_error@std@@8

??_R2runtime_error@std@@8:				; std::runtime_error::`RTTI Base Class Array'
	DD	??_R1A@?0A@EA@runtime_error@std@@8
	DD	??_R1A@?0A@EA@exception@std@@8
	.rdataseg	.rdata$r
	.comdat	any, ??_R3runtime_error@std@@8

??_R3runtime_error@std@@8:				; std::runtime_error::`RTTI Class Hierarchy Descriptor'
	.word	0x0
	.word	0x0
	.word	0x2
	DD	??_R2runtime_error@std@@8
	.data
	.comdat	any, ??_R0?AVruntime_error@std@@@8

??_R0?AVruntime_error@std@@@8:				; std::runtime_error `RTTI Type Descriptor'
	DD	??_7type_info@@6B@
	.word	0x0
	.ascii	".?AVruntime_error@std@@\000"
	.rdataseg	.rdata$r
	.comdat	any, ??_R4runtime_error@std@@6B@

??_R4runtime_error@std@@6B@:				; std::runtime_error::`RTTI Complete Object Locator'
	.word	0x0
	.word	0x0
	.word	0x0
	DD	??_R0?AVruntime_error@std@@@8
	DD	??_R3runtime_error@std@@8
	.data
	.comdat	largest, ??_7runtime_error@std@@6B@

??_7runtime_error@std@@6B@:				; std::runtime_error::`vftable'
	DD	??_R4runtime_error@std@@6B@
	DD	??_Eruntime_error@std@@UAEPAXI@Z
	DD	?what@runtime_error@std@@UBEPBDXZ
; Function compile flags: /Odtp
	.text
	.comdat	any, ??1runtime_error@std@@$$FUAE@XZ
.global	??1runtime_error@std@@$$FUAE@XZ			; std::runtime_error::~runtime_error
??1runtime_error@std@@$$FUAE@XZ:			; std::runtime_error::~runtime_error
;	.proc.def	D:V(I)

; Function Header:
; max stack depth = 2
; function size = 38 bytes
; local varsig tk = 0x0 
; Exception Information:
; 1 handlers, each consisting of filtered handlers

;	.formal.i4 0,"_this$" SIG: Optional C Binding Modifier(token:0x53F4349).Optional C Binding Modifier(token:0x53F434B).ptr.valueType (token:0x53F434E)

;	.proc.beg
; Line 157
	ldarg.0				; _this$
	ldsflda		??_7runtime_error@std@@6B@
	stind.i4	
$LN5@runtime_er:
; Line 158
	ldarg.0				; _this$
	ldc.i4.s	12		; i32 0xc
	add		
	call		??1?$basic_string@DU?$char_traits@D@std@@V?$allocator@D@2@@std@@$$FQAE@XZ
	leave.s		$LN6@runtime_er
$LN7@runtime_er:
	ldftn		??1exception@std@@$$FUAE@XZ
	ldarg.0				; _this$
	call		?___CxxCallUnwindDtor@@$$J0YMXP6MXPAX@Z0@Z
	endfinally	
$LN6@runtime_er:
	ldarg.0				; _this$
	call		??1exception@std@@$$FUAE@XZ
	ret		
 .end ??1runtime_error@std@@$$FUAE@XZ			; std::runtime_error::~runtime_error
;	.proc.end.void
_TEXT	ENDS
PUBLIC	__mep@??1runtime_error@std@@$$FUAE@XZ
PUBLIC	__t2m@??1runtime_error@std@@UAE@XZ
;	COMDAT __mep@??1runtime_error@std@@$$FUAE@XZ
data	SEGMENT
__mep@??1runtime_error@std@@$$FUAE@XZ TOKEN 0A000078
; Function compile flags: /Odtp
data	ENDS
;	COMDAT ??1runtime_error@std@@UAE@XZ
_TEXT	SEGMENT
__t2m@??1runtime_error@std@@UAE@XZ PROC			; COMDAT
	jmp	DWORD PTR __mep@??1runtime_error@std@@$$FUAE@XZ
__t2m@??1runtime_error@std@@UAE@XZ ENDP
.global	
	.bss
.local	$T74471,0
.local	,4
; Function compile flags: /Odtp
	.text
	.comdat	any, ?what@runtime_error@std@@$$FUBEPBDXZ
.global	?what@runtime_error@std@@$$FUBEPBDXZ		; std::runtime_error::what
?what@runtime_error@std@@$$FUBEPBDXZ:			; std::runtime_error::what
;	.proc.def	D:I(I)

; Function Header:
; max stack depth = 2
; function size = 12 bytes
; local varsig tk = 0x11000046 
; Exception Information:
; 0 handlers, each consisting of filtered handlers

;	.formal.i4 0,"_this$" SIG: Optional C Binding Modifier(token:0x53EC4E1).Optional C Binding Modifier(token:0x53EC4E3).ptr.Optional C Binding Modifier(token:0x53EC4E6).valueType (token:0x53EC4E8)
;	.local.i4 0,"$T74469" SIG: ptr.Optional C Binding Modifier(token:0x482B3A).Optional C Binding Modifier(token:0x482B3C).i1

;	.proc.beg
; Line 162
	ldarg.0				; _this$
	ldc.i4.s	12		; i32 0xc
	add		
	call		?c_str@?$basic_string@DU?$char_traits@D@std@@V?$allocator@D@2@@std@@$$FQBEPBDXZ
	stloc.0				; $T74469
; Line 163
	ldloc.0				; $T74469
	ret		
 .end ?what@runtime_error@std@@$$FUBEPBDXZ		; std::runtime_error::what
;	.proc.end.i4
_TEXT	ENDS
PUBLIC	__mep@?what@runtime_error@std@@$$FUBEPBDXZ
PUBLIC	__t2m@?what@runtime_error@std@@UBEPBDXZ
;	COMDAT __mep@?what@runtime_error@std@@$$FUBEPBDXZ
data	SEGMENT
__mep@?what@runtime_error@std@@$$FUBEPBDXZ TOKEN 0A000079
; Function compile flags: /Odtp
data	ENDS
;	COMDAT ?what@runtime_error@std@@UBEPBDXZ
_TEXT	SEGMENT
__t2m@?what@runtime_error@std@@UBEPBDXZ PROC		; COMDAT
	jmp	DWORD PTR __mep@?what@runtime_error@std@@$$FUBEPBDXZ
__t2m@?what@runtime_error@std@@UBEPBDXZ ENDP
	.bss
.local	$T74477,0
; Function compile flags: /Odtp
	.text
	.comdat	any, ??_Eruntime_error@std@@$$FUAEPAXI@Z
.global	??_Eruntime_error@std@@$$FUAEPAXI@Z		; std::runtime_error::`vector deleting destructor'
??_Eruntime_error@std@@$$FUAEPAXI@Z:			; std::runtime_error::`vector deleting destructor'
;	.proc.def	D:I(II)

; Function Header:
; max stack depth = 4
; function size = 63 bytes
; local varsig tk = 0x11000047 
; Exception Information:
; 0 handlers, each consisting of filtered handlers

;	.formal.i4 0,"_this$" SIG: Optional C Binding Modifier(token:0x53F4349).Optional C Binding Modifier(token:0x53F434B).ptr.valueType (token:0x53F434E)
;	.formal.u4 1,"___flags$" SIG: u4
;	.local.i4 0,"$T74476" SIG: ptr.void

;	.proc.beg
	ldarg.1				; ___flags$
	ldc.i.2		2		; u32 0x2
	and		
	brfalse.s	$LN3@vector@2
	ldarg.0				; _this$
	ldc.i4.s	44		; u32 0x2c
	ldarg.0				; _this$
	ldc.i.4		4		; i32 0x4
	sub		
	ldind.i4	
	ldftn		??1runtime_error@std@@$$FUAE@XZ
	call		??_M@$$FYMXPAXIHP6MX0@Z@Z
	ldarg.1				; ___flags$
	ldc.i.1		1		; u32 0x1
	and		
	brfalse.s	$LN2@vector@2
	ldarg.0				; _this$
	ldc.i.4		4		; i32 0x4
	sub		
	call		??_V@$$FYAXPAX@Z
$LN2@vector@2:
	ldarg.0				; _this$
	ldc.i.4		4		; i32 0x4
	sub		
	stloc.0				; $T74476
	br.s		$LN4@vector@2
$LN3@vector@2:
	ldarg.0				; _this$
	call		??1runtime_error@std@@$$FUAE@XZ
	ldarg.1				; ___flags$
	ldc.i.1		1		; u32 0x1
	and		
	brfalse.s	$LN1@vector@2
	ldarg.0				; _this$
	call		??3@$$FYAXPAX@Z
$LN1@vector@2:
	ldarg.0				; _this$
	stloc.0				; $T74476
$LN4@vector@2:
	ldloc.0				; $T74476
	ret		
 .end ??_Eruntime_error@std@@$$FUAEPAXI@Z		; std::runtime_error::`vector deleting destructor'
;	.proc.end.i4
_TEXT	ENDS
PUBLIC	__mep@??_Eruntime_error@std@@$$FUAEPAXI@Z
PUBLIC	__t2m@??_Eruntime_error@std@@UAEPAXI@Z
;	COMDAT __mep@??_Eruntime_error@std@@$$FUAEPAXI@Z
data	SEGMENT
__mep@??_Eruntime_error@std@@$$FUAEPAXI@Z TOKEN 0A00007A
; Function compile flags: /Odtp
data	ENDS
;	COMDAT ??_Eruntime_error@std@@UAEPAXI@Z
_TEXT	SEGMENT
__t2m@??_Eruntime_error@std@@UAEPAXI@Z PROC		; COMDAT
	jmp	DWORD PTR __mep@??_Eruntime_error@std@@$$FUAEPAXI@Z
__t2m@??_Eruntime_error@std@@UAEPAXI@Z ENDP
.global	
	.bss
.local	,4
; Function compile flags: /Odtp
	.text
	.comdat	any, ??0runtime_error@std@@$$FQAE@ABV01@@Z
.global	??0runtime_error@std@@$$FQAE@ABV01@@Z		; std::runtime_error::runtime_error
??0runtime_error@std@@$$FQAE@ABV01@@Z:			; std::runtime_error::runtime_error
;	.proc.def	D:I(II)

; Function Header:
; max stack depth = 3
; function size = 46 bytes
; local varsig tk = 0x0 
; Exception Information:
; 1 handlers, each consisting of filtered handlers

;	.formal.i4 1,"___that$" SIG: Optional C Binding Modifier(token:0x53F1AD1).ptr.Optional C Binding Modifier(token:0x53F1AD4).valueType (token:0x53F1AD6)
;	.formal.i4 0,"_this$" SIG: Optional C Binding Modifier(token:0x53F4349).Optional C Binding Modifier(token:0x53F434B).ptr.valueType (token:0x53F434E)

;	.proc.beg
	ldarg.0				; _this$
	ldarg.1				; ___that$
	call		??0exception@std@@$$FQAE@ABV01@@Z
	pop		
$LN5@runtime_er@2:
	ldarg.0				; _this$
	ldsflda		??_7runtime_error@std@@6B@
	stind.i4	
	ldarg.0				; _this$
	ldc.i4.s	12		; i32 0xc
	add		
	ldarg.1				; ___that$
	ldc.i4.s	12		; i32 0xc
	add		
	call		??0?$basic_string@DU?$char_traits@D@std@@V?$allocator@D@2@@std@@$$FQAE@ABV01@@Z
	pop		
	leave.s		$LN6@runtime_er@2
$LN7@runtime_er@2:
	ldftn		??1exception@std@@$$FUAE@XZ
	ldarg.0				; _this$
	call		?___CxxCallUnwindDtor@@$$J0YMXP6MXPAX@Z0@Z
	endfinally	
$LN6@runtime_er@2:
	ldarg.0				; _this$
	ret		
 .end ??0runtime_error@std@@$$FQAE@ABV01@@Z		; std::runtime_error::runtime_error
;	.proc.end.i4
_TEXT	ENDS
PUBLIC	__mep@??0runtime_error@std@@$$FQAE@ABV01@@Z
PUBLIC	__t2m@??0runtime_error@std@@QAE@ABV01@@Z
;	COMDAT __mep@??0runtime_error@std@@$$FQAE@ABV01@@Z
data	SEGMENT
__mep@??0runtime_error@std@@$$FQAE@ABV01@@Z TOKEN 0A000093
; Function compile flags: /Odtp
data	ENDS
;	COMDAT ??0runtime_error@std@@QAE@ABV01@@Z
_TEXT	SEGMENT
__t2m@??0runtime_error@std@@QAE@ABV01@@Z PROC		; COMDAT
	jmp	DWORD PTR __mep@??0runtime_error@std@@$$FQAE@ABV01@@Z
__t2m@??0runtime_error@std@@QAE@ABV01@@Z ENDP
.global	
	.bss
.local	,4
; Function compile flags: /Odtp
	.text
	.comdat	any, ??0logic_error@std@@$$FQAE@ABV01@@Z
.global	??0logic_error@std@@$$FQAE@ABV01@@Z		; std::logic_error::logic_error
??0logic_error@std@@$$FQAE@ABV01@@Z:			; std::logic_error::logic_error
;	.proc.def	D:I(II)

; Function Header:
; max stack depth = 3
; function size = 46 bytes
; local varsig tk = 0x0 
; Exception Information:
; 1 handlers, each consisting of filtered handlers

;	.formal.i4 1,"___that$" SIG: Optional C Binding Modifier(token:0x53FEF11).ptr.Optional C Binding Modifier(token:0x53FEF14).valueType (token:0x53FEF16)
;	.formal.i4 0,"_this$" SIG: Optional C Binding Modifier(token:0x5403891).Optional C Binding Modifier(token:0x5403893).ptr.valueType (token:0x5403896)

;	.proc.beg
	ldarg.0				; _this$
	ldarg.1				; ___that$
	call		??0exception@std@@$$FQAE@ABV01@@Z
	pop		
$LN5@logic_erro@2:
	ldarg.0				; _this$
	ldsflda		??_7logic_error@std@@6B@
	stind.i4	
	ldarg.0				; _this$
	ldc.i4.s	12		; i32 0xc
	add		
	ldarg.1				; ___that$
	ldc.i4.s	12		; i32 0xc
	add		
	call		??0?$basic_string@DU?$char_traits@D@std@@V?$allocator@D@2@@std@@$$FQAE@ABV01@@Z
	pop		
	leave.s		$LN6@logic_erro@2
$LN7@logic_erro@2:
	ldftn		??1exception@std@@$$FUAE@XZ
	ldarg.0				; _this$
	call		?___CxxCallUnwindDtor@@$$J0YMXP6MXPAX@Z0@Z
	endfinally	
$LN6@logic_erro@2:
	ldarg.0				; _this$
	ret		
 .end ??0logic_error@std@@$$FQAE@ABV01@@Z		; std::logic_error::logic_error
;	.proc.end.i4
_TEXT	ENDS
PUBLIC	__mep@??0logic_error@std@@$$FQAE@ABV01@@Z
PUBLIC	__t2m@??0logic_error@std@@QAE@ABV01@@Z
;	COMDAT __mep@??0logic_error@std@@$$FQAE@ABV01@@Z
data	SEGMENT
__mep@??0logic_error@std@@$$FQAE@ABV01@@Z TOKEN 0A0000CC
; Function compile flags: /Odtp
data	ENDS
;	COMDAT ??0logic_error@std@@QAE@ABV01@@Z
_TEXT	SEGMENT
__t2m@??0logic_error@std@@QAE@ABV01@@Z PROC		; COMDAT
	jmp	DWORD PTR __mep@??0logic_error@std@@$$FQAE@ABV01@@Z
__t2m@??0logic_error@std@@QAE@ABV01@@Z ENDP
.global	??_7failure@ios_base@std@@6B@			; std::ios_base::failure::`vftable'
.global	
.global	
.global	??_R4failure@ios_base@std@@6B@			; std::ios_base::failure::`RTTI Complete Object Locator'
.global	??_R0?AVfailure@ios_base@std@@@8		; std::ios_base::failure `RTTI Type Descriptor'
.global	??_R3failure@ios_base@std@@8			; std::ios_base::failure::`RTTI Class Hierarchy Descriptor'
.global	??_R2failure@ios_base@std@@8			; std::ios_base::failure::`RTTI Base Class Array'
.global	??_R1A@?0A@EA@failure@ios_base@std@@8		; std::ios_base::failure::`RTTI Base Class Descriptor at (0,-1,0,64)'
	.bss
.local	,4
.local	,4
	.rdataseg	.rdata$r
	.comdat	any, ??_R1A@?0A@EA@failure@ios_base@std@@8

??_R1A@?0A@EA@failure@ios_base@std@@8:			; std::ios_base::failure::`RTTI Base Class Descriptor at (0,-1,0,64)'
	DD	??_R0?AVfailure@ios_base@std@@@8
	.word	0x2
	.word	0x0
	.word	0xffffffff
	.word	0x0
	.word	0x40
	DD	??_R3failure@ios_base@std@@8
	.rdataseg	.rdata$r
	.comdat	any, ??_R2failure@ios_base@std@@8

??_R2failure@ios_base@std@@8:				; std::ios_base::failure::`RTTI Base Class Array'
	DD	??_R1A@?0A@EA@failure@ios_base@std@@8
	DD	??_R1A@?0A@EA@runtime_error@std@@8
	DD	??_R1A@?0A@EA@exception@std@@8
	.rdataseg	.rdata$r
	.comdat	any, ??_R3failure@ios_base@std@@8

??_R3failure@ios_base@std@@8:				; std::ios_base::failure::`RTTI Class Hierarchy Descriptor'
	.word	0x0
	.word	0x0
	.word	0x3
	DD	??_R2failure@ios_base@std@@8
	.data
	.comdat	any, ??_R0?AVfailure@ios_base@std@@@8

??_R0?AVfailure@ios_base@std@@@8:			; std::ios_base::failure `RTTI Type Descriptor'
	DD	??_7type_info@@6B@
	.word	0x0
	.ascii	".?AVfailure@ios_base@std@@\000"
	.rdataseg	.rdata$r
	.comdat	any, ??_R4failure@ios_base@std@@6B@

??_R4failure@ios_base@std@@6B@:				; std::ios_base::failure::`RTTI Complete Object Locator'
	.word	0x0
	.word	0x0
	.word	0x0
	DD	??_R0?AVfailure@ios_base@std@@@8
	DD	??_R3failure@ios_base@std@@8
	.data
	.comdat	largest, ??_7failure@ios_base@std@@6B@

??_7failure@ios_base@std@@6B@:				; std::ios_base::failure::`vftable'
	DD	??_R4failure@ios_base@std@@6B@
	DD	??_Efailure@ios_base@std@@UAEPAXI@Z
	DD	?what@runtime_error@std@@UBEPBDXZ
; Function compile flags: /Odtp
	.text
	.comdat	any, ??0failure@ios_base@std@@$$FQAE@ABV012@@Z
.global	??0failure@ios_base@std@@$$FQAE@ABV012@@Z	; std::ios_base::failure::failure
??0failure@ios_base@std@@$$FQAE@ABV012@@Z:		; std::ios_base::failure::failure
;	.proc.def	D:I(II)

; Function Header:
; max stack depth = 2
; function size = 32 bytes
; local varsig tk = 0x0 
; Exception Information:
; 1 handlers, each consisting of filtered handlers

;	.formal.i4 1,"___that$" SIG: Optional C Binding Modifier(token:0x53DE0E5).ptr.Optional C Binding Modifier(token:0x53DE0E8).valueType (token:0x53DE0EA)
;	.formal.i4 0,"_this$" SIG: Optional C Binding Modifier(token:0x53E66FD).Optional C Binding Modifier(token:0x53E66FF).ptr.valueType (token:0x53E6702)

;	.proc.beg
	ldarg.0				; _this$
	ldarg.1				; ___that$
	call		??0runtime_error@std@@$$FQAE@ABV01@@Z
	pop		
$LN4@failure:
	ldarg.0				; _this$
	ldsflda		??_7failure@ios_base@std@@6B@
	stind.i4	
	leave.s		$LN5@failure
$LN6@failure:
	ldftn		??1runtime_error@std@@$$FUAE@XZ
	ldarg.0				; _this$
	call		?___CxxCallUnwindDtor@@$$J0YMXP6MXPAX@Z0@Z
	endfinally	
$LN5@failure:
	ldarg.0				; _this$
	ret		
 .end ??0failure@ios_base@std@@$$FQAE@ABV012@@Z		; std::ios_base::failure::failure
;	.proc.end.i4
	.bss
.local	$T74526,0
; Function compile flags: /Odtp
	.text
	.comdat	any, ??_Efailure@ios_base@std@@$$FUAEPAXI@Z
.global	??_Efailure@ios_base@std@@$$FUAEPAXI@Z		; std::ios_base::failure::`vector deleting destructor'
??_Efailure@ios_base@std@@$$FUAEPAXI@Z:			; std::ios_base::failure::`vector deleting destructor'
;	.proc.def	D:I(II)

; Function Header:
; max stack depth = 4
; function size = 63 bytes
; local varsig tk = 0x11000047 
; Exception Information:
; 0 handlers, each consisting of filtered handlers

;	.formal.i4 0,"_this$" SIG: Optional C Binding Modifier(token:0x53E66FD).Optional C Binding Modifier(token:0x53E66FF).ptr.valueType (token:0x53E6702)
;	.formal.u4 1,"___flags$" SIG: u4
;	.local.i4 0,"$T74525" SIG: ptr.void

;	.proc.beg
	ldarg.1				; ___flags$
	ldc.i.2		2		; u32 0x2
	and		
	brfalse.s	$LN3@vector@3
	ldarg.0				; _this$
	ldc.i4.s	44		; u32 0x2c
	ldarg.0				; _this$
	ldc.i.4		4		; i32 0x4
	sub		
	ldind.i4	
	ldftn		??1failure@ios_base@std@@$$FUAE@XZ
	call		??_M@$$FYMXPAXIHP6MX0@Z@Z
	ldarg.1				; ___flags$
	ldc.i.1		1		; u32 0x1
	and		
	brfalse.s	$LN2@vector@3
	ldarg.0				; _this$
	ldc.i.4		4		; i32 0x4
	sub		
	call		??_V@$$FYAXPAX@Z
$LN2@vector@3:
	ldarg.0				; _this$
	ldc.i.4		4		; i32 0x4
	sub		
	stloc.0				; $T74525
	br.s		$LN4@vector@3
$LN3@vector@3:
	ldarg.0				; _this$
	call		??1failure@ios_base@std@@$$FUAE@XZ
	ldarg.1				; ___flags$
	ldc.i.1		1		; u32 0x1
	and		
	brfalse.s	$LN1@vector@3
	ldarg.0				; _this$
	call		??3@$$FYAXPAX@Z
$LN1@vector@3:
	ldarg.0				; _this$
	stloc.0				; $T74525
$LN4@vector@3:
	ldloc.0				; $T74525
	ret		
 .end ??_Efailure@ios_base@std@@$$FUAEPAXI@Z		; std::ios_base::failure::`vector deleting destructor'
;	.proc.end.i4
; Function compile flags: /Odtp
	.text
	.comdat	any, ??1failure@ios_base@std@@$$FUAE@XZ
.global	??1failure@ios_base@std@@$$FUAE@XZ		; std::ios_base::failure::~failure
??1failure@ios_base@std@@$$FUAE@XZ:			; std::ios_base::failure::~failure
;	.proc.def	D:V(I)

; Function Header:
; max stack depth = 2
; function size = 14 bytes
; local varsig tk = 0x0 
; Exception Information:
; 0 handlers, each consisting of filtered handlers

;	.formal.i4 0,"_this$" SIG: Optional C Binding Modifier(token:0x53E66FD).Optional C Binding Modifier(token:0x53E66FF).ptr.valueType (token:0x53E6702)

;	.proc.beg
; File c:\program files (x86)\microsoft visual studio 9.0\vc\include\xiosbase
; Line 224
	ldarg.0				; _this$
	ldsflda		??_7failure@ios_base@std@@6B@
	stind.i4	
; Line 225
	ldarg.0				; _this$
	call		??1runtime_error@std@@$$FUAE@XZ
	ret		
 .end ??1failure@ios_base@std@@$$FUAE@XZ		; std::ios_base::failure::~failure
;	.proc.end.void
_TEXT	ENDS
PUBLIC	__mep@??1failure@ios_base@std@@$$FUAE@XZ
PUBLIC	__t2m@??1failure@ios_base@std@@UAE@XZ
;	COMDAT __mep@??1failure@ios_base@std@@$$FUAE@XZ
data	SEGMENT
__mep@??1failure@ios_base@std@@$$FUAE@XZ TOKEN 0A00010E
; Function compile flags: /Odtp
data	ENDS
;	COMDAT ??1failure@ios_base@std@@UAE@XZ
_TEXT	SEGMENT
__t2m@??1failure@ios_base@std@@UAE@XZ PROC		; COMDAT
	jmp	DWORD PTR __mep@??1failure@ios_base@std@@$$FUAE@XZ
__t2m@??1failure@ios_base@std@@UAE@XZ ENDP
_TEXT	ENDS
PUBLIC	__mep@??_Efailure@ios_base@std@@$$FUAEPAXI@Z
PUBLIC	__t2m@??_Efailure@ios_base@std@@UAEPAXI@Z
;	COMDAT __mep@??_Efailure@ios_base@std@@$$FUAEPAXI@Z
data	SEGMENT
__mep@??_Efailure@ios_base@std@@$$FUAEPAXI@Z TOKEN 0A00012B
; Function compile flags: /Odtp
data	ENDS
;	COMDAT ??_Efailure@ios_base@std@@UAEPAXI@Z
_TEXT	SEGMENT
__t2m@??_Efailure@ios_base@std@@UAEPAXI@Z PROC		; COMDAT
	jmp	DWORD PTR __mep@??_Efailure@ios_base@std@@$$FUAEPAXI@Z
__t2m@??_Efailure@ios_base@std@@UAEPAXI@Z ENDP
_TEXT	ENDS
PUBLIC	__mep@??0failure@ios_base@std@@$$FQAE@ABV012@@Z
PUBLIC	__t2m@??0failure@ios_base@std@@QAE@ABV012@@Z
;	COMDAT __mep@??0failure@ios_base@std@@$$FQAE@ABV012@@Z
data	SEGMENT
__mep@??0failure@ios_base@std@@$$FQAE@ABV012@@Z TOKEN 0A00012C
; Function compile flags: /Odtp
data	ENDS
;	COMDAT ??0failure@ios_base@std@@QAE@ABV012@@Z
_TEXT	SEGMENT
__t2m@??0failure@ios_base@std@@QAE@ABV012@@Z PROC	; COMDAT
	jmp	DWORD PTR __mep@??0failure@ios_base@std@@$$FQAE@ABV012@@Z
__t2m@??0failure@ios_base@std@@QAE@ABV012@@Z ENDP
.global	
.global	
	.bss
.local	$T74547,0
.local	,4
.local	,4
; Function compile flags: /Odtp
	.text
.global	?InitInstance@@$$FYAHPAUHINSTANCE__@@H@Z	; InitInstance
?InitInstance@@$$FYAHPAUHINSTANCE__@@H@Z:		; InitInstance
;	.proc.def	D:I(II)

; Function Header:
; max stack depth = 12
; function size = 70 bytes
; local varsig tk = 0x11000050 
; Exception Information:
; 0 handlers, each consisting of filtered handlers

;	.formal.i4 1,"_nCmdShow$" SIG: i4
;	.formal.i4 0,"_hInstance$" SIG: ptr.valueType (token:0x53E20FE)
;	.local.i4 1,"$T74544" SIG: i4
;	.local.i4 0,"_hWnd$" SIG: ptr.valueType (token:0x54003FA)

;	.proc.beg
; File d:\mystuff\ulslogview\ulslogview\ulslogview.cpp
; Line 128
	ldarg.0				; _hInstance$
	stsfld		?hInst@@3PAUHINSTANCE__@@A
; Line 133
	ldc.i.0		0		; u32 0x0
	ldsflda		?szWindowClass@@3PA_WA
	ldsflda		?szTitle@@3PA_WA
	ldc.i4		13565952	; u32 0xcf0000
	ldc.i4		-2147483648	; i32 0x80000000
	ldc.i.0		0		; i32 0x0
	ldc.i4		-2147483648	; i32 0x80000000
	ldc.i.0		0		; i32 0x0
	ldc.i.0		0		; i32 0x0
	ldc.i.0		0		; i32 0x0
	ldarg.0				; _hInstance$
	ldc.i.0		0		; i32 0x0
	call		?CreateWindowExW@@$$J248YGPAUHWND__@@KPB_W0KHHHHPAU1@PAUHMENU__@@PAUHINSTANCE__@@PAX@Z
	stloc.0				; _hWnd$
; Line 135
	ldloc.0				; _hWnd$
	brtrue.s	$LN1@InitInstan
; Line 137
	ldc.i.0		0		; i32 0x0
	stloc.1				; $T74544
	br.s		$LN2@InitInstan
$LN1@InitInstan:
; Line 140
	ldloc.0				; _hWnd$
	ldarg.1				; _nCmdShow$
	call		?ShowWindow@@$$J18YGHPAUHWND__@@H@Z
	pop		
; Line 141
	ldloc.0				; _hWnd$
	call		?UpdateWindow@@$$J14YGHPAUHWND__@@@Z
	pop		
; Line 143
	ldc.i.1		1		; i32 0x1
	stloc.1				; $T74544
$LN2@InitInstan:
; Line 144
	ldloc.1				; $T74544
	ret		
 .end ?InitInstance@@$$FYAHPAUHINSTANCE__@@H@Z		; InitInstance
;	.proc.end.i4
_TEXT	ENDS
PUBLIC	__mep@?InitInstance@@$$FYAHPAUHINSTANCE__@@H@Z
PUBLIC	?InitInstance@@YAHPAUHINSTANCE__@@H@Z		; InitInstance
;	COMDAT __mep@?InitInstance@@$$FYAHPAUHINSTANCE__@@H@Z
data	SEGMENT
__mep@?InitInstance@@$$FYAHPAUHINSTANCE__@@H@Z TOKEN 0A000143
; Function compile flags: /Odtp
data	ENDS
;	COMDAT ?InitInstance@@YAHPAUHINSTANCE__@@H@Z
_TEXT	SEGMENT
?InitInstance@@YAHPAUHINSTANCE__@@H@Z PROC		; InitInstance, COMDAT
	jmp	DWORD PTR __mep@?InitInstance@@$$FYAHPAUHINSTANCE__@@H@Z
?InitInstance@@YAHPAUHINSTANCE__@@H@Z ENDP		; InitInstance
	.bss
.local	$T74555,0
; Function compile flags: /Odtp
	.text
.global	?About@@$$FYGHPAUHWND__@@IIJ@Z			; About
?About@@$$FYGHPAUHWND__@@IIJ@Z:				; About
;	.proc.def	D:I(IIII)

; Function Header:
; max stack depth = 3
; function size = 69 bytes
; local varsig tk = 0x11000051 
; Exception Information:
; 0 handlers, each consisting of filtered handlers

;	.formal.i4 0,"_hDlg$" SIG: ptr.valueType (token:0x54003FA)
;	.formal.u4 2,"_wParam$" SIG: u4
;	.formal.u4 1,"_message$" SIG: u4
;	.local.i4 0,"$T74553" SIG: i4
;	.local.u4 1,"$T74554" SIG: u4

;	.proc.beg
; Line 285
	ldarg.1				; _message$
	stloc.1				; $T74554
	ldloc.1				; $T74554
	ldc.i4		272		; u32 0x110
	beq.s		$LN4@About
	ldloc.1				; $T74554
	ldc.i4		273		; u32 0x111
	beq.s		$LN3@About
	br.s		$LN5@About
$LN4@About:
; Line 288
	ldc.i.1		1		; i32 0x1
	stloc.0				; $T74553
	br.s		$LN7@About
$LN3@About:
; Line 291
	ldarg.2				; _wParam$
	ldc.i4		65535		; u32 0xffff
	and		
	conv.u2		
	ldc.i.1		1		; i32 0x1
	beq.s		$LN1@About
	ldarg.2				; _wParam$
	ldc.i4		65535		; u32 0xffff
	and		
	conv.u2		
	ldc.i.2		2		; i32 0x2
	bne.un.s	$LN5@About
$LN1@About:
; Line 293
	ldarg.0				; _hDlg$
	ldarg.2				; _wParam$
	ldc.i4		65535		; u32 0xffff
	and		
	conv.u2		
	call		?EndDialog@@$$J18YGHPAUHWND__@@H@Z
	pop		
; Line 294
	ldc.i.1		1		; i32 0x1
	stloc.0				; $T74553
	br.s		$LN7@About
$LN5@About:
; Line 298
	ldc.i.0		0		; i32 0x0
	stloc.0				; $T74553
$LN7@About:
; Line 299
	ldloc.0				; $T74553
	ret		
 .end ?About@@$$FYGHPAUHWND__@@IIJ@Z			; About
;	.proc.end.i4
_TEXT	ENDS
PUBLIC	__mep@?About@@$$FYGHPAUHWND__@@IIJ@Z
PUBLIC	?About@@YGHPAUHWND__@@IIJ@Z			; About
;	COMDAT __mep@?About@@$$FYGHPAUHWND__@@IIJ@Z
data	SEGMENT
__mep@?About@@$$FYGHPAUHWND__@@IIJ@Z TOKEN 0A000145
; Function compile flags: /Odtp
data	ENDS
;	COMDAT ?About@@YGHPAUHWND__@@IIJ@Z
_TEXT	SEGMENT
?About@@YGHPAUHWND__@@IIJ@Z PROC			; About, COMDAT
	jmp	DWORD PTR __mep@?About@@$$FYGHPAUHWND__@@IIJ@Z
?About@@YGHPAUHWND__@@IIJ@Z ENDP			; About
.global	
.global	
.global	
	.bss
.local	$T74566,0
.local	,4
.local	,4
.local	,4
; Function compile flags: /Odtp
	.text
.global	?WaitForNewFile@@$$FYGKPAX@Z			; WaitForNewFile
?WaitForNewFile@@$$FYGKPAX@Z:				; WaitForNewFile
;	.proc.def	D:I(I)

; Function Header:
; max stack depth = 4
; function size = 78 bytes
; local varsig tk = 0x11000055 
; Exception Information:
; 0 handlers, each consisting of filtered handlers

;	.local.u4 0,"$T74562" SIG: Optional C Binding Modifier(token:0x53998A9).u4
;	.local.mb200 2,"_errMsg$" SIG: valueType (token:0x53DE545)
;	.local.u4 1,"_waitState$67697" SIG: Optional C Binding Modifier(token:0x540FFED).u4

;	.proc.beg
; Line 303
$LN4@WaitForNew:
; Line 305
	ldc.i.1		1		; i32 0x1
	brfalse.s	$LN3@WaitForNew
; Line 307
	ldsfld		?fileChange@@3PAXA
	brfalse.s	$LN2@WaitForNew
; Line 309
	ldsfld		?fileChange@@3PAXA
	ldc.i.-1	-1		; u32 0xffffffff
	call		?WaitForSingleObject@@$$J18YGKPAXK@Z
	stloc.1				; _waitState$67697
; Line 310
	ldloc.1				; _waitState$67697
	brtrue.s	$LN2@WaitForNew
; Line 312
	ldsfld		?hInst@@3PAUHINSTANCE__@@A
	ldc.i4.s	105		; u32 0x69
	ldloca.s	2		; _errMsg$
	ldc.i4.s	100		; i32 0x64
	call		?LoadStringW@@$$J216YGHPAUHINSTANCE__@@IPA_WH@Z
	pop		
; Line 313
	ldsfld		?listWindow@@3PAUHWND__@@A
	ldloca.s	2		; _errMsg$
	ldsflda		?szTitle@@3PA_WA
	ldc.i.0		0		; u32 0x0
	call		?MessageBox@@$$J0YAHPAUHWND__@@PB_W1I@Z
	pop		
; Line 314
	ldsfld		?fileChange@@3PAXA
	call		?FindNextChangeNotification@@$$J14YGHPAX@Z
	pop		
$LN2@WaitForNew:
; Line 319
	br.s		$LN4@WaitForNew
$LN3@WaitForNew:
; Line 320
	ldc.i.0		0		; u32 0x0
	stloc.0				; $T74562
; Line 321
	ldloc.0				; $T74562
	ret		
 .end ?WaitForNewFile@@$$FYGKPAX@Z			; WaitForNewFile
;	.proc.end.u4
_TEXT	ENDS
PUBLIC	__mep@?WaitForNewFile@@$$FYGKPAX@Z
PUBLIC	?WaitForNewFile@@YGKPAX@Z			; WaitForNewFile
;	COMDAT __mep@?WaitForNewFile@@$$FYGKPAX@Z
data	SEGMENT
__mep@?WaitForNewFile@@$$FYGKPAX@Z TOKEN 0A000146
; Function compile flags: /Odtp
data	ENDS
;	COMDAT ?WaitForNewFile@@YGKPAX@Z
_TEXT	SEGMENT
?WaitForNewFile@@YGKPAX@Z PROC				; WaitForNewFile, COMDAT
	jmp	DWORD PTR __mep@?WaitForNewFile@@$$FYGKPAX@Z
?WaitForNewFile@@YGKPAX@Z ENDP				; WaitForNewFile
.global	
	.bss
.local	,4
; Function compile flags: /Odtp
	.text
	.comdat	any, ?<MarshalCopy>@?$allocator@D@std@@$$FSMXPAV12@0@Z
.global	?<MarshalCopy>@?$allocator@D@std@@$$FSMXPAV12@0@Z ; std::allocator<char>::<MarshalCopy>
?<MarshalCopy>@?$allocator@D@std@@$$FSMXPAV12@0@Z:	; std::allocator<char>::<MarshalCopy>
;	.proc.def	D:V(II)

; Function Header:
; max stack depth = 2
; function size = 9 bytes
; local varsig tk = 0x0 
; Exception Information:
; 0 handlers, each consisting of filtered handlers

;	.formal.i4 1,"___P1$" SIG: ptr.valueType (token:0x53EB30E)
;	.formal.i4 0,"___P0$" SIG: ptr.valueType (token:0x53EB30E)

;	.proc.beg
	ldarg.0				; ___P0$
	ldarg.1				; ___P1$
	call		??0?$allocator@D@std@@$$FQAE@ABV01@@Z
	pop		
	ret		
 .end ?<MarshalCopy>@?$allocator@D@std@@$$FSMXPAV12@0@Z	; std::allocator<char>::<MarshalCopy>
;	.proc.end.void
_TEXT	ENDS
PUBLIC	__mep@?<MarshalCopy>@?$allocator@D@std@@$$FSMXPAV12@0@Z
PUBLIC	__t2m@?<MarshalCopy>@?$allocator@D@std@@SMXPAV12@0@Z
;	COMDAT __mep@?<MarshalCopy>@?$allocator@D@std@@$$FSMXPAV12@0@Z
data	SEGMENT
__mep@?<MarshalCopy>@?$allocator@D@std@@$$FSMXPAV12@0@Z TOKEN 06000087
; Function compile flags: /Odtp
data	ENDS
;	COMDAT ?<MarshalCopy>@?$allocator@D@std@@SMXPAV12@0@Z
_TEXT	SEGMENT
__t2m@?<MarshalCopy>@?$allocator@D@std@@SMXPAV12@0@Z PROC ; COMDAT
	jmp	DWORD PTR __mep@?<MarshalCopy>@?$allocator@D@std@@$$FSMXPAV12@0@Z
__t2m@?<MarshalCopy>@?$allocator@D@std@@SMXPAV12@0@Z ENDP
.global	
	.bss
.local	,4
; Function compile flags: /Odtp
	.text
	.comdat	any, ?<MarshalCopy>@?$_DebugHeapAllocator@D@std@@$$FSMXPAV12@0@Z
.global	?<MarshalCopy>@?$_DebugHeapAllocator@D@std@@$$FSMXPAV12@0@Z ; std::_DebugHeapAllocator<char>::<MarshalCopy>
?<MarshalCopy>@?$_DebugHeapAllocator@D@std@@$$FSMXPAV12@0@Z: ; std::_DebugHeapAllocator<char>::<MarshalCopy>
;	.proc.def	D:V(II)

; Function Header:
; max stack depth = 2
; function size = 9 bytes
; local varsig tk = 0x0 
; Exception Information:
; 0 handlers, each consisting of filtered handlers

;	.formal.i4 1,"___P1$" SIG: ptr.valueType (token:0x53E812E)
;	.formal.i4 0,"___P0$" SIG: ptr.valueType (token:0x53E812E)

;	.proc.beg
	ldarg.0				; ___P0$
	ldarg.1				; ___P1$
	call		??0?$_DebugHeapAllocator@D@std@@$$FQAE@ABV01@@Z
	pop		
	ret		
 .end ?<MarshalCopy>@?$_DebugHeapAllocator@D@std@@$$FSMXPAV12@0@Z ; std::_DebugHeapAllocator<char>::<MarshalCopy>
;	.proc.end.void
_TEXT	ENDS
PUBLIC	__mep@?<MarshalCopy>@?$_DebugHeapAllocator@D@std@@$$FSMXPAV12@0@Z
PUBLIC	__t2m@?<MarshalCopy>@?$_DebugHeapAllocator@D@std@@SMXPAV12@0@Z
;	COMDAT __mep@?<MarshalCopy>@?$_DebugHeapAllocator@D@std@@$$FSMXPAV12@0@Z
data	SEGMENT
__mep@?<MarshalCopy>@?$_DebugHeapAllocator@D@std@@$$FSMXPAV12@0@Z TOKEN 06000088
; Function compile flags: /Odtp
data	ENDS
;	COMDAT ?<MarshalCopy>@?$_DebugHeapAllocator@D@std@@SMXPAV12@0@Z
_TEXT	SEGMENT
__t2m@?<MarshalCopy>@?$_DebugHeapAllocator@D@std@@SMXPAV12@0@Z PROC ; COMDAT
	jmp	DWORD PTR __mep@?<MarshalCopy>@?$_DebugHeapAllocator@D@std@@$$FSMXPAV12@0@Z
__t2m@?<MarshalCopy>@?$_DebugHeapAllocator@D@std@@SMXPAV12@0@Z ENDP
.global	
	.bss
.local	,4
; Function compile flags: /Odtp
	.text
	.comdat	any, ?<MarshalCopy>@?$allocator@_W@std@@$$FSMXPAV12@0@Z
.global	?<MarshalCopy>@?$allocator@_W@std@@$$FSMXPAV12@0@Z ; std::allocator<wchar_t>::<MarshalCopy>
?<MarshalCopy>@?$allocator@_W@std@@$$FSMXPAV12@0@Z:	; std::allocator<wchar_t>::<MarshalCopy>
;	.proc.def	D:V(II)

; Function Header:
; max stack depth = 2
; function size = 9 bytes
; local varsig tk = 0x0 
; Exception Information:
; 0 handlers, each consisting of filtered handlers

;	.formal.i4 1,"___P1$" SIG: ptr.valueType (token:0x53F9542)
;	.formal.i4 0,"___P0$" SIG: ptr.valueType (token:0x53F9542)

;	.proc.beg
	ldarg.0				; ___P0$
	ldarg.1				; ___P1$
	call		??0?$allocator@_W@std@@$$FQAE@ABV01@@Z
	pop		
	ret		
 .end ?<MarshalCopy>@?$allocator@_W@std@@$$FSMXPAV12@0@Z ; std::allocator<wchar_t>::<MarshalCopy>
;	.proc.end.void
_TEXT	ENDS
PUBLIC	__mep@?<MarshalCopy>@?$allocator@_W@std@@$$FSMXPAV12@0@Z
PUBLIC	__t2m@?<MarshalCopy>@?$allocator@_W@std@@SMXPAV12@0@Z
;	COMDAT __mep@?<MarshalCopy>@?$allocator@_W@std@@$$FSMXPAV12@0@Z
data	SEGMENT
__mep@?<MarshalCopy>@?$allocator@_W@std@@$$FSMXPAV12@0@Z TOKEN 06000089
; Function compile flags: /Odtp
data	ENDS
;	COMDAT ?<MarshalCopy>@?$allocator@_W@std@@SMXPAV12@0@Z
_TEXT	SEGMENT
__t2m@?<MarshalCopy>@?$allocator@_W@std@@SMXPAV12@0@Z PROC ; COMDAT
	jmp	DWORD PTR __mep@?<MarshalCopy>@?$allocator@_W@std@@$$FSMXPAV12@0@Z
__t2m@?<MarshalCopy>@?$allocator@_W@std@@SMXPAV12@0@Z ENDP
.global	??_7bad_alloc@std@@6B@				; std::bad_alloc::`vftable'
.global	
.global	
.global	??_R4bad_alloc@std@@6B@				; std::bad_alloc::`RTTI Complete Object Locator'
.global	??_R0?AVbad_alloc@std@@@8			; std::bad_alloc `RTTI Type Descriptor'
.global	??_R3bad_alloc@std@@8				; std::bad_alloc::`RTTI Class Hierarchy Descriptor'
.global	??_R2bad_alloc@std@@8				; std::bad_alloc::`RTTI Base Class Array'
.global	??_R1A@?0A@EA@bad_alloc@std@@8			; std::bad_alloc::`RTTI Base Class Descriptor at (0,-1,0,64)'
	.bss
.local	,4
.local	,4
	.rdataseg	.rdata$r
	.comdat	any, ??_R1A@?0A@EA@bad_alloc@std@@8

??_R1A@?0A@EA@bad_alloc@std@@8:				; std::bad_alloc::`RTTI Base Class Descriptor at (0,-1,0,64)'
	DD	??_R0?AVbad_alloc@std@@@8
	.word	0x1
	.word	0x0
	.word	0xffffffff
	.word	0x0
	.word	0x40
	DD	??_R3bad_alloc@std@@8
	.rdataseg	.rdata$r
	.comdat	any, ??_R2bad_alloc@std@@8

??_R2bad_alloc@std@@8:					; std::bad_alloc::`RTTI Base Class Array'
	DD	??_R1A@?0A@EA@bad_alloc@std@@8
	DD	??_R1A@?0A@EA@exception@std@@8
	.rdataseg	.rdata$r
	.comdat	any, ??_R3bad_alloc@std@@8

??_R3bad_alloc@std@@8:					; std::bad_alloc::`RTTI Class Hierarchy Descriptor'
	.word	0x0
	.word	0x0
	.word	0x2
	DD	??_R2bad_alloc@std@@8
	.data
	.comdat	any, ??_R0?AVbad_alloc@std@@@8

??_R0?AVbad_alloc@std@@@8:				; std::bad_alloc `RTTI Type Descriptor'
	DD	??_7type_info@@6B@
	.word	0x0
	.ascii	".?AVbad_alloc@std@@\000"
	.rdataseg	.rdata$r
	.comdat	any, ??_R4bad_alloc@std@@6B@

??_R4bad_alloc@std@@6B@:				; std::bad_alloc::`RTTI Complete Object Locator'
	.word	0x0
	.word	0x0
	.word	0x0
	DD	??_R0?AVbad_alloc@std@@@8
	DD	??_R3bad_alloc@std@@8
	.data
	.comdat	largest, ??_7bad_alloc@std@@6B@

??_7bad_alloc@std@@6B@:					; std::bad_alloc::`vftable'
	DD	??_R4bad_alloc@std@@6B@
	DD	??_Ebad_alloc@std@@UAEPAXI@Z
	DD	?what@exception@std@@UBEPBDXZ
; Function compile flags: /Odtp
	.text
	.comdat	any, ??0bad_alloc@std@@$$FQAE@ABV01@@Z
.global	??0bad_alloc@std@@$$FQAE@ABV01@@Z		; std::bad_alloc::bad_alloc
??0bad_alloc@std@@$$FQAE@ABV01@@Z:			; std::bad_alloc::bad_alloc
;	.proc.def	D:I(II)

; Function Header:
; max stack depth = 2
; function size = 32 bytes
; local varsig tk = 0x0 
; Exception Information:
; 1 handlers, each consisting of filtered handlers

;	.formal.i4 1,"___that$" SIG: Optional C Binding Modifier(token:0x53FD145).ptr.Optional C Binding Modifier(token:0x53FD148).valueType (token:0x53FD14A)
;	.formal.i4 0,"_this$" SIG: Optional C Binding Modifier(token:0x53E92E5).Optional C Binding Modifier(token:0x53E92E7).ptr.valueType (token:0x53E92EA)

;	.proc.beg
	ldarg.0				; _this$
	ldarg.1				; ___that$
	call		??0exception@std@@$$FQAE@ABV01@@Z
	pop		
$LN4@bad_alloc:
	ldarg.0				; _this$
	ldsflda		??_7bad_alloc@std@@6B@
	stind.i4	
	leave.s		$LN5@bad_alloc
$LN6@bad_alloc:
	ldftn		??1exception@std@@$$FUAE@XZ
	ldarg.0				; _this$
	call		?___CxxCallUnwindDtor@@$$J0YMXP6MXPAX@Z0@Z
	endfinally	
$LN5@bad_alloc:
	ldarg.0				; _this$
	ret		
 .end ??0bad_alloc@std@@$$FQAE@ABV01@@Z			; std::bad_alloc::bad_alloc
;	.proc.end.i4
	.bss
.local	$T74610,0
; Function compile flags: /Odtp
	.text
	.comdat	any, ??_Ebad_alloc@std@@$$FUAEPAXI@Z
.global	??_Ebad_alloc@std@@$$FUAEPAXI@Z			; std::bad_alloc::`vector deleting destructor'
??_Ebad_alloc@std@@$$FUAEPAXI@Z:			; std::bad_alloc::`vector deleting destructor'
;	.proc.def	D:I(II)

; Function Header:
; max stack depth = 4
; function size = 63 bytes
; local varsig tk = 0x11000047 
; Exception Information:
; 0 handlers, each consisting of filtered handlers

;	.formal.i4 0,"_this$" SIG: Optional C Binding Modifier(token:0x53E92E5).Optional C Binding Modifier(token:0x53E92E7).ptr.valueType (token:0x53E92EA)
;	.formal.u4 1,"___flags$" SIG: u4
;	.local.i4 0,"$T74609" SIG: ptr.void

;	.proc.beg
	ldarg.1				; ___flags$
	ldc.i.2		2		; u32 0x2
	and		
	brfalse.s	$LN3@vector@4
	ldarg.0				; _this$
	ldc.i4.s	12		; u32 0xc
	ldarg.0				; _this$
	ldc.i.4		4		; i32 0x4
	sub		
	ldind.i4	
	ldftn		??1bad_alloc@std@@$$FUAE@XZ
	call		??_M@$$FYMXPAXIHP6MX0@Z@Z
	ldarg.1				; ___flags$
	ldc.i.1		1		; u32 0x1
	and		
	brfalse.s	$LN2@vector@4
	ldarg.0				; _this$
	ldc.i.4		4		; i32 0x4
	sub		
	call		??3@$$FYAXPAX@Z
$LN2@vector@4:
	ldarg.0				; _this$
	ldc.i.4		4		; i32 0x4
	sub		
	stloc.0				; $T74609
	br.s		$LN4@vector@4
$LN3@vector@4:
	ldarg.0				; _this$
	call		??1bad_alloc@std@@$$FUAE@XZ
	ldarg.1				; ___flags$
	ldc.i.1		1		; u32 0x1
	and		
	brfalse.s	$LN1@vector@4
	ldarg.0				; _this$
	call		??3@$$FYAXPAX@Z
$LN1@vector@4:
	ldarg.0				; _this$
	stloc.0				; $T74609
$LN4@vector@4:
	ldloc.0				; $T74609
	ret		
 .end ??_Ebad_alloc@std@@$$FUAEPAXI@Z			; std::bad_alloc::`vector deleting destructor'
;	.proc.end.i4
; Function compile flags: /Odtp
	.text
	.comdat	any, ??1bad_alloc@std@@$$FUAE@XZ
.global	??1bad_alloc@std@@$$FUAE@XZ			; std::bad_alloc::~bad_alloc
??1bad_alloc@std@@$$FUAE@XZ:				; std::bad_alloc::~bad_alloc
;	.proc.def	D:V(I)

; Function Header:
; max stack depth = 2
; function size = 14 bytes
; local varsig tk = 0x0 
; Exception Information:
; 0 handlers, each consisting of filtered handlers

;	.formal.i4 0,"_this$" SIG: Optional C Binding Modifier(token:0x53E92E5).Optional C Binding Modifier(token:0x53E92E7).ptr.valueType (token:0x53E92EA)

;	.proc.beg
; File c:\program files (x86)\microsoft visual studio 9.0\vc\include\exception
; Line 380
	ldarg.0				; _this$
	ldsflda		??_7bad_alloc@std@@6B@
	stind.i4	
; Line 381
	ldarg.0				; _this$
	call		??1exception@std@@$$FUAE@XZ
	ret		
 .end ??1bad_alloc@std@@$$FUAE@XZ			; std::bad_alloc::~bad_alloc
;	.proc.end.void
_TEXT	ENDS
PUBLIC	__mep@??1bad_alloc@std@@$$FUAE@XZ
PUBLIC	__t2m@??1bad_alloc@std@@UAE@XZ
;	COMDAT __mep@??1bad_alloc@std@@$$FUAE@XZ
data	SEGMENT
__mep@??1bad_alloc@std@@$$FUAE@XZ TOKEN 0A000048
; Function compile flags: /Odtp
data	ENDS
;	COMDAT ??1bad_alloc@std@@UAE@XZ
_TEXT	SEGMENT
__t2m@??1bad_alloc@std@@UAE@XZ PROC			; COMDAT
	jmp	DWORD PTR __mep@??1bad_alloc@std@@$$FUAE@XZ
__t2m@??1bad_alloc@std@@UAE@XZ ENDP
_TEXT	ENDS
PUBLIC	__mep@??_Ebad_alloc@std@@$$FUAEPAXI@Z
PUBLIC	__t2m@??_Ebad_alloc@std@@UAEPAXI@Z
;	COMDAT __mep@??_Ebad_alloc@std@@$$FUAEPAXI@Z
data	SEGMENT
__mep@??_Ebad_alloc@std@@$$FUAEPAXI@Z TOKEN 0A000049
; Function compile flags: /Odtp
data	ENDS
;	COMDAT ??_Ebad_alloc@std@@UAEPAXI@Z
_TEXT	SEGMENT
__t2m@??_Ebad_alloc@std@@UAEPAXI@Z PROC			; COMDAT
	jmp	DWORD PTR __mep@??_Ebad_alloc@std@@$$FUAEPAXI@Z
__t2m@??_Ebad_alloc@std@@UAEPAXI@Z ENDP
_TEXT	ENDS
PUBLIC	__mep@??0bad_alloc@std@@$$FQAE@ABV01@@Z
PUBLIC	__t2m@??0bad_alloc@std@@QAE@ABV01@@Z
;	COMDAT __mep@??0bad_alloc@std@@$$FQAE@ABV01@@Z
data	SEGMENT
__mep@??0bad_alloc@std@@$$FQAE@ABV01@@Z TOKEN 0A00027C
; Function compile flags: /Odtp
data	ENDS
;	COMDAT ??0bad_alloc@std@@QAE@ABV01@@Z
_TEXT	SEGMENT
__t2m@??0bad_alloc@std@@QAE@ABV01@@Z PROC		; COMDAT
	jmp	DWORD PTR __mep@??0bad_alloc@std@@$$FQAE@ABV01@@Z
__t2m@??0bad_alloc@std@@QAE@ABV01@@Z ENDP
.global	
	.bss
.local	,4
; Function compile flags: /Odtp
	.text
	.comdat	any, ?_AddRef@_bstr_t@@$$FAAEXXZ
.global	?_AddRef@_bstr_t@@$$FAAEXXZ			; _bstr_t::_AddRef
?_AddRef@_bstr_t@@$$FAAEXXZ:				; _bstr_t::_AddRef
;	.proc.def	D:V(I)

; Function Header:
; max stack depth = 1
; function size = 13 bytes
; local varsig tk = 0x0 
; Exception Information:
; 0 handlers, each consisting of filtered handlers

;	.formal.i4 0,"_this$" SIG: Optional C Binding Modifier(token:0x53F1815).Optional C Binding Modifier(token:0x53F1817).ptr.valueType (token:0x53F181A)

;	.proc.beg
; File c:\program files (x86)\microsoft visual studio 9.0\vc\include\comutil.h
; Line 628
	ldarg.0				; _this$
	ldind.i4	
	brfalse.s	$LN2@AddRef
; Line 629
	ldarg.0				; _this$
	ldind.i4	
	call		?AddRef@Data_t@_bstr_t@@$$FQAEKXZ
	pop		
$LN2@AddRef:
; Line 631
	ret		
 .end ?_AddRef@_bstr_t@@$$FAAEXXZ			; _bstr_t::_AddRef
;	.proc.end.void
_TEXT	ENDS
PUBLIC	__mep@?_AddRef@_bstr_t@@$$FAAEXXZ
PUBLIC	__t2m@?_AddRef@_bstr_t@@AAEXXZ
;	COMDAT __mep@?_AddRef@_bstr_t@@$$FAAEXXZ
data	SEGMENT
__mep@?_AddRef@_bstr_t@@$$FAAEXXZ TOKEN 0A00002B
; Function compile flags: /Odtp
data	ENDS
;	COMDAT ?_AddRef@_bstr_t@@AAEXXZ
_TEXT	SEGMENT
__t2m@?_AddRef@_bstr_t@@AAEXXZ PROC			; COMDAT
	jmp	DWORD PTR __mep@?_AddRef@_bstr_t@@$$FAAEXXZ
__t2m@?_AddRef@_bstr_t@@AAEXXZ ENDP
.global	
.global	
	.bss
.local	$T74643,0
.local	,4
.local	,4
; Function compile flags: /Odtp
	.text
	.comdat	any, ?_Adopt@_Iterator_base@std@@$$FQAEXPBV_Container_base_secure@2@@Z
.global	?_Adopt@_Iterator_base@std@@$$FQAEXPBV_Container_base_secure@2@@Z ; std::_Iterator_base::_Adopt
?_Adopt@_Iterator_base@std@@$$FQAEXPBV_Container_base_secure@2@@Z: ; std::_Iterator_base::_Adopt
;	.proc.def	D:V(II)

; Function Header:
; max stack depth = 2
; function size = 65 bytes
; local varsig tk = 0x1100005E 
; Exception Information:
; 1 handlers, each consisting of filtered handlers

;	.formal.i4 1,"__Parent$" SIG: ptr.Optional C Binding Modifier(token:0x53FDF86).valueType (token:0x53FDF88)
;	.formal.i4 0,"_this$" SIG: Optional C Binding Modifier(token:0x53E76BD).Optional C Binding Modifier(token:0x53E76BF).ptr.valueType (token:0x53E76C2)
;	.local.mb4   0,"__Lock$52320" SIG: valueType (token:0x53E7CFD)

;	.proc.beg
; File c:\program files (x86)\microsoft visual studio 9.0\vc\include\xutility
; Line 166
	ldarg.0				; _this$
	ldind.i4	
	ldarg.1				; __Parent$
	beq.s		$LN3@Adopt
; Line 168
	ldloca.s	0		; __Lock$52320
	ldc.i.3		3		; i32 0x3
	call		??0_Lockit@std@@$$FQAE@H@Z
	pop		
$LN6@Adopt:
; Line 169
	ldarg.0				; _this$
	call		?_Orphan_me@_Iterator_base@std@@$$FQAEXXZ
; Line 170
	ldarg.1				; __Parent$
	brfalse.s	$LN1@Adopt
	ldarg.1				; __Parent$
	ldind.i4	
	ldc.i4.s	-3		; u32 0xfffffffd
	beq.s		$LN1@Adopt
; Line 172
	ldarg.0				; _this$
	ldc.i.4		4		; i32 0x4
	add		
	ldarg.1				; __Parent$
	ldind.i4	
	stind.i4	
; Line 173
	ldarg.1				; __Parent$
	ldarg.0				; _this$
	stind.i4	
$LN1@Adopt:
; Line 175
	ldarg.0				; _this$
	ldarg.1				; __Parent$
	stind.i4	
	leave.s		$LN7@Adopt
$LN8@Adopt:
	ldftn		??1_Lockit@std@@$$FQAE@XZ
	ldloca.s	0		; __Lock$52320
	call		?___CxxCallUnwindDtor@@$$J0YMXP6MXPAX@Z0@Z
	endfinally	
$LN7@Adopt:
; Line 176
	ldloca.s	0		; __Lock$52320
	call		??1_Lockit@std@@$$FQAE@XZ
$LN3@Adopt:
; Line 177
	ret		
 .end ?_Adopt@_Iterator_base@std@@$$FQAEXPBV_Container_base_secure@2@@Z ; std::_Iterator_base::_Adopt
;	.proc.end.void
_TEXT	ENDS
PUBLIC	__mep@?_Adopt@_Iterator_base@std@@$$FQAEXPBV_Container_base_secure@2@@Z
PUBLIC	__t2m@?_Adopt@_Iterator_base@std@@QAEXPBV_Container_base_secure@2@@Z
;	COMDAT __mep@?_Adopt@_Iterator_base@std@@$$FQAEXPBV_Container_base_secure@2@@Z
data	SEGMENT
__mep@?_Adopt@_Iterator_base@std@@$$FQAEXPBV_Container_base_secure@2@@Z TOKEN 0A000066
; Function compile flags: /Odtp
data	ENDS
;	COMDAT ?_Adopt@_Iterator_base@std@@QAEXPBV_Container_base_secure@2@@Z
_TEXT	SEGMENT
__t2m@?_Adopt@_Iterator_base@std@@QAEXPBV_Container_base_secure@2@@Z PROC ; COMDAT
	jmp	DWORD PTR __mep@?_Adopt@_Iterator_base@std@@$$FQAEXPBV_Container_base_secure@2@@Z
__t2m@?_Adopt@_Iterator_base@std@@QAEXPBV_Container_base_secure@2@@Z ENDP
.global	??_7out_of_range@std@@6B@			; std::out_of_range::`vftable'
.global	
.global	
.global	??_R4out_of_range@std@@6B@			; std::out_of_range::`RTTI Complete Object Locator'
.global	??_R0?AVout_of_range@std@@@8			; std::out_of_range `RTTI Type Descriptor'
.global	??_R3out_of_range@std@@8			; std::out_of_range::`RTTI Class Hierarchy Descriptor'
.global	??_R2out_of_range@std@@8			; std::out_of_range::`RTTI Base Class Array'
.global	??_R1A@?0A@EA@out_of_range@std@@8		; std::out_of_range::`RTTI Base Class Descriptor at (0,-1,0,64)'
	.bss
.local	,4
.local	,4
	.rdataseg	.rdata$r
	.comdat	any, ??_R1A@?0A@EA@out_of_range@std@@8

??_R1A@?0A@EA@out_of_range@std@@8:			; std::out_of_range::`RTTI Base Class Descriptor at (0,-1,0,64)'
	DD	??_R0?AVout_of_range@std@@@8
	.word	0x2
	.word	0x0
	.word	0xffffffff
	.word	0x0
	.word	0x40
	DD	??_R3out_of_range@std@@8
	.rdataseg	.rdata$r
	.comdat	any, ??_R2out_of_range@std@@8

??_R2out_of_range@std@@8:				; std::out_of_range::`RTTI Base Class Array'
	DD	??_R1A@?0A@EA@out_of_range@std@@8
	DD	??_R1A@?0A@EA@logic_error@std@@8
	DD	??_R1A@?0A@EA@exception@std@@8
	.rdataseg	.rdata$r
	.comdat	any, ??_R3out_of_range@std@@8

??_R3out_of_range@std@@8:				; std::out_of_range::`RTTI Class Hierarchy Descriptor'
	.word	0x0
	.word	0x0
	.word	0x3
	DD	??_R2out_of_range@std@@8
	.data
	.comdat	any, ??_R0?AVout_of_range@std@@@8

??_R0?AVout_of_range@std@@@8:				; std::out_of_range `RTTI Type Descriptor'
	DD	??_7type_info@@6B@
	.word	0x0
	.ascii	".?AVout_of_range@std@@\000"
	.rdataseg	.rdata$r
	.comdat	any, ??_R4out_of_range@std@@6B@

??_R4out_of_range@std@@6B@:				; std::out_of_range::`RTTI Complete Object Locator'
	.word	0x0
	.word	0x0
	.word	0x0
	DD	??_R0?AVout_of_range@std@@@8
	DD	??_R3out_of_range@std@@8
	.data
	.comdat	largest, ??_7out_of_range@std@@6B@

??_7out_of_range@std@@6B@:				; std::out_of_range::`vftable'
	DD	??_R4out_of_range@std@@6B@
	DD	??_Eout_of_range@std@@UAEPAXI@Z
	DD	?what@logic_error@std@@UBEPBDXZ
; Function compile flags: /Odtp
	.text
	.comdat	any, ??0out_of_range@std@@$$FQAE@ABV01@@Z
.global	??0out_of_range@std@@$$FQAE@ABV01@@Z		; std::out_of_range::out_of_range
??0out_of_range@std@@$$FQAE@ABV01@@Z:			; std::out_of_range::out_of_range
;	.proc.def	D:I(II)

; Function Header:
; max stack depth = 2
; function size = 32 bytes
; local varsig tk = 0x0 
; Exception Information:
; 1 handlers, each consisting of filtered handlers

;	.formal.i4 1,"___that$" SIG: Optional C Binding Modifier(token:0x53F72FD).ptr.Optional C Binding Modifier(token:0x53F7300).valueType (token:0x53F7302)
;	.formal.i4 0,"_this$" SIG: Optional C Binding Modifier(token:0x53EC149).Optional C Binding Modifier(token:0x53EC14B).ptr.valueType (token:0x53EC14E)

;	.proc.beg
	ldarg.0				; _this$
	ldarg.1				; ___that$
	call		??0logic_error@std@@$$FQAE@ABV01@@Z
	pop		
$LN4@out_of_ran:
	ldarg.0				; _this$
	ldsflda		??_7out_of_range@std@@6B@
	stind.i4	
	leave.s		$LN5@out_of_ran
$LN6@out_of_ran:
	ldftn		??1logic_error@std@@$$FUAE@XZ
	ldarg.0				; _this$
	call		?___CxxCallUnwindDtor@@$$J0YMXP6MXPAX@Z0@Z
	endfinally	
$LN5@out_of_ran:
	ldarg.0				; _this$
	ret		
 .end ??0out_of_range@std@@$$FQAE@ABV01@@Z		; std::out_of_range::out_of_range
;	.proc.end.i4
	.bss
.local	$T74664,0
; Function compile flags: /Odtp
	.text
	.comdat	any, ??_Eout_of_range@std@@$$FUAEPAXI@Z
.global	??_Eout_of_range@std@@$$FUAEPAXI@Z		; std::out_of_range::`vector deleting destructor'
??_Eout_of_range@std@@$$FUAEPAXI@Z:			; std::out_of_range::`vector deleting destructor'
;	.proc.def	D:I(II)

; Function Header:
; max stack depth = 4
; function size = 63 bytes
; local varsig tk = 0x11000047 
; Exception Information:
; 0 handlers, each consisting of filtered handlers

;	.formal.i4 0,"_this$" SIG: Optional C Binding Modifier(token:0x53EC149).Optional C Binding Modifier(token:0x53EC14B).ptr.valueType (token:0x53EC14E)
;	.formal.u4 1,"___flags$" SIG: u4
;	.local.i4 0,"$T74663" SIG: ptr.void

;	.proc.beg
	ldarg.1				; ___flags$
	ldc.i.2		2		; u32 0x2
	and		
	brfalse.s	$LN3@vector@5
	ldarg.0				; _this$
	ldc.i4.s	44		; u32 0x2c
	ldarg.0				; _this$
	ldc.i.4		4		; i32 0x4
	sub		
	ldind.i4	
	ldftn		??1out_of_range@std@@$$FUAE@XZ
	call		??_M@$$FYMXPAXIHP6MX0@Z@Z
	ldarg.1				; ___flags$
	ldc.i.1		1		; u32 0x1
	and		
	brfalse.s	$LN2@vector@5
	ldarg.0				; _this$
	ldc.i.4		4		; i32 0x4
	sub		
	call		??_V@$$FYAXPAX@Z
$LN2@vector@5:
	ldarg.0				; _this$
	ldc.i.4		4		; i32 0x4
	sub		
	stloc.0				; $T74663
	br.s		$LN4@vector@5
$LN3@vector@5:
	ldarg.0				; _this$
	call		??1out_of_range@std@@$$FUAE@XZ
	ldarg.1				; ___flags$
	ldc.i.1		1		; u32 0x1
	and		
	brfalse.s	$LN1@vector@5
	ldarg.0				; _this$
	call		??3@$$FYAXPAX@Z
$LN1@vector@5:
	ldarg.0				; _this$
	stloc.0				; $T74663
$LN4@vector@5:
	ldloc.0				; $T74663
	ret		
 .end ??_Eout_of_range@std@@$$FUAEPAXI@Z		; std::out_of_range::`vector deleting destructor'
;	.proc.end.i4
; Function compile flags: /Odtp
	.text
	.comdat	any, ??1out_of_range@std@@$$FUAE@XZ
.global	??1out_of_range@std@@$$FUAE@XZ			; std::out_of_range::~out_of_range
??1out_of_range@std@@$$FUAE@XZ:				; std::out_of_range::~out_of_range
;	.proc.def	D:V(I)

; Function Header:
; max stack depth = 2
; function size = 14 bytes
; local varsig tk = 0x0 
; Exception Information:
; 0 handlers, each consisting of filtered handlers

;	.formal.i4 0,"_this$" SIG: Optional C Binding Modifier(token:0x53EC149).Optional C Binding Modifier(token:0x53EC14B).ptr.valueType (token:0x53EC14E)

;	.proc.beg
; File c:\program files (x86)\microsoft visual studio 9.0\vc\include\stdexcept
; Line 133
	ldarg.0				; _this$
	ldsflda		??_7out_of_range@std@@6B@
	stind.i4	
; Line 134
	ldarg.0				; _this$
	call		??1logic_error@std@@$$FUAE@XZ
	ret		
 .end ??1out_of_range@std@@$$FUAE@XZ			; std::out_of_range::~out_of_range
;	.proc.end.void
_TEXT	ENDS
PUBLIC	__mep@??1out_of_range@std@@$$FUAE@XZ
PUBLIC	__t2m@??1out_of_range@std@@UAE@XZ
;	COMDAT __mep@??1out_of_range@std@@$$FUAE@XZ
data	SEGMENT
__mep@??1out_of_range@std@@$$FUAE@XZ TOKEN 0A000075
; Function compile flags: /Odtp
data	ENDS
;	COMDAT ??1out_of_range@std@@UAE@XZ
_TEXT	SEGMENT
__t2m@??1out_of_range@std@@UAE@XZ PROC			; COMDAT
	jmp	DWORD PTR __mep@??1out_of_range@std@@$$FUAE@XZ
__t2m@??1out_of_range@std@@UAE@XZ ENDP
_TEXT	ENDS
PUBLIC	__mep@??_Eout_of_range@std@@$$FUAEPAXI@Z
PUBLIC	__t2m@??_Eout_of_range@std@@UAEPAXI@Z
;	COMDAT __mep@??_Eout_of_range@std@@$$FUAEPAXI@Z
data	SEGMENT
__mep@??_Eout_of_range@std@@$$FUAEPAXI@Z TOKEN 0A000076
; Function compile flags: /Odtp
data	ENDS
;	COMDAT ??_Eout_of_range@std@@UAEPAXI@Z
_TEXT	SEGMENT
__t2m@??_Eout_of_range@std@@UAEPAXI@Z PROC		; COMDAT
	jmp	DWORD PTR __mep@??_Eout_of_range@std@@$$FUAEPAXI@Z
__t2m@??_Eout_of_range@std@@UAEPAXI@Z ENDP
_TEXT	ENDS
PUBLIC	__mep@??0out_of_range@std@@$$FQAE@ABV01@@Z
PUBLIC	__t2m@??0out_of_range@std@@QAE@ABV01@@Z
;	COMDAT __mep@??0out_of_range@std@@$$FQAE@ABV01@@Z
data	SEGMENT
__mep@??0out_of_range@std@@$$FQAE@ABV01@@Z TOKEN 0A0000CB
; Function compile flags: /Odtp
data	ENDS
;	COMDAT ??0out_of_range@std@@QAE@ABV01@@Z
_TEXT	SEGMENT
__t2m@??0out_of_range@std@@QAE@ABV01@@Z PROC		; COMDAT
	jmp	DWORD PTR __mep@??0out_of_range@std@@$$FQAE@ABV01@@Z
__t2m@??0out_of_range@std@@QAE@ABV01@@Z ENDP
.global	__unep@?WaitForNewFile@@$$FYGKPAX@Z
.global	
.global	
.global	
.global	
.global	
.global	
	.bss
.local	$T74702,0
.local	,4
.local	,4
.local	,4
.local	,4
.local	,4
.local	,4
; File d:\mystuff\ulslogview\ulslogview\ulslogview.cpp
	.rdata
	.comdat	any, __unep@?WaitForNewFile@@$$FYGKPAX@Z

__unep@?WaitForNewFile@@$$FYGKPAX@Z:
	DD	?WaitForNewFile@@YGKPAX@Z
; Function compile flags: /Odtp
	.text
.global	?WndProc@@$$FYGJPAUHWND__@@IIJ@Z		; WndProc
?WndProc@@$$FYGJPAUHWND__@@IIJ@Z:			; WndProc
;	.proc.def	D:I(IIII)

; Function Header:
; max stack depth = 12
; function size = 559 bytes
; local varsig tk = 0x11000067 
; Exception Information:
; 1 handlers, each consisting of filtered handlers

;	.formal.i4 3,"_lParam$" SIG: Optional C Binding Modifier(token:0x53DD7BD).i4
;	.formal.u4 2,"_wParam$" SIG: u4
;	.formal.i4 0,"_hWnd$" SIG: ptr.valueType (token:0x54003FA)
;	.formal.u4 1,"_message$" SIG: u4
;	.local.i4 12,"_hdc$" SIG: ptr.valueType (token:0x5404586)
;	.local.mb64  13,"_ps$" SIG: valueType (token:0x540B161)
;	.local.i4 2,"$T74690" SIG: Optional C Binding Modifier(token:0x5398B65).i4
;	.local.i4 7,"_memFile$67658" SIG: ptr.void
;	.local.i4 5,"_parser$67651" SIG: ptr.valueType (token:0x53E57DE)
;	.local.i4 8,"$T67655" SIG: ptr.valueType (token:0x53E57DE)
;	.local.i4 3,"$T67653" SIG: ptr.valueType (token:0x53E57DE)
;	.local.i4 9,"_writeTime$67645" SIG: i4
;	.local.i4 0,"_logFile$" SIG: ptr.valueType (token:0x5409922)
;	.local.mb8   14,"_fileTime$67643" SIG: valueType (token:0x53EA1A9)
;	.local.i4 6,"_fileHandle$67634" SIG: ptr.void
;	.local.mb200 15,"_Location1$67629" SIG: valueType (token:0x53DE545)
;	.local.i4 4,"_Location$" SIG: ptr.char
;	.local.mb200 16,"_errMsg$" SIG: valueType (token:0x53DE545)
;	.local.i4 10,"_logLocation$" SIG: ptr.char
;	.local.i4 17,"_wmEvent$" SIG: i4
;	.local.i4 11,"_wmId$" SIG: i4
;	.local.u4 1,"$T74691" SIG: u4

;	.proc.beg
; Line 166
	ldarg.1				; _message$
	stloc.1				; $T74691
	ldloc.1				; $T74691
	ldc.i.5		5		; u32 0x5
	bgt.un.s	$LN29@WndProc
	ldloc.1				; $T74691
	ldc.i.5		5		; u32 0x5
	beq.s		$LN21@WndProc
	ldloc.1				; $T74691
	ldc.i.1		1		; u32 0x1
	beq.s		$LN22@WndProc
	ldloc.1				; $T74691
	ldc.i.2		2		; u32 0x2
	beq		$LN2@WndProc
	br		$LN1@WndProc
$LN29@WndProc:
	ldloc.1				; $T74691
	ldc.i4.s	15		; u32 0xf
	beq		$LN3@WndProc
	ldloc.1				; $T74691
	ldc.i4		273		; u32 0x111
	beq.s		$LN20@WndProc
	br		$LN1@WndProc
$LN22@WndProc:
; Line 169
	ldc.i.0		0		; u32 0x0
	ldsflda		$SG67613
	ldc.i.0		0		; i32 0x0
	ldc.i4		1342177280	; u32 0x50000000
	ldc.i.0		0		; i32 0x0
	ldc.i.0		0		; i32 0x0
	ldc.i.0		0		; i32 0x0
	ldc.i.0		0		; i32 0x0
	ldarg.0				; _hWnd$
	ldc.i.0		0		; i32 0x0
	ldsfld		?hInst@@3PAUHINSTANCE__@@A
	ldc.i.0		0		; i32 0x0
	call		?CreateWindowExW@@$$J248YGPAUHWND__@@KPB_W0KHHHHPAU1@PAUHMENU__@@PAUHINSTANCE__@@PAX@Z
	stsfld		?listWindow@@3PAUHWND__@@A
; Line 171
	br		$LN23@WndProc
$LN21@WndProc:
; Line 173
	ldsfld		?listWindow@@3PAUHWND__@@A
	ldc.i.0		0		; i32 0x0
	ldc.i.0		0		; i32 0x0
	ldc.i4.s	100		; i32 0x64
	ldc.i4.s	100		; i32 0x64
	ldc.i.1		1		; i32 0x1
	call		?MoveWindow@@$$J224YGHPAUHWND__@@HHHHH@Z
	pop		
; Line 175
	br		$LN23@WndProc
$LN20@WndProc:
; Line 178
	ldarg.2				; _wParam$
	ldc.i4		65535		; u32 0xffff
	and		
	conv.u2		
	stloc.s		11		; _wmId$
; Line 179
	ldarg.2				; _wParam$
	ldc.i4.s	16		; i32 0x10
	shr.un		
	ldc.i4		65535		; u32 0xffff
	and		
	conv.u2		
	stloc.s		17		; _wmEvent$
; Line 181
	ldloc.s		11		; _wmId$
	ldc.i4		40002		; i32 0x9c42
	beq.s		$LN17@WndProc
	br		$LN4@WndProc
$LN17@WndProc:
; Line 184
	call		?GetLogLocation@@$$FYAPA_WXZ
	stloc.s		10		; _logLocation$
; Line 187
	ldloc.s		10		; _logLocation$
	call		?ConvertBSTRToString@_com_util@@$$FYGPADPA_W@Z
	ldsflda		$SG67626
	call		?strcmp@@$$J0YAHPBD0@Z
	brfalse.s	$LN16@WndProc
; Line 190
	ldsfld		?hInst@@3PAUHINSTANCE__@@A
	ldc.i4.s	105		; u32 0x69
	ldloca.s	16		; _errMsg$
	ldc.i4.s	100		; i32 0x64
	call		?LoadStringW@@$$J216YGHPAUHINSTANCE__@@IPA_WH@Z
	pop		
; Line 191
	ldarg.0				; _hWnd$
	ldloca.s	16		; _errMsg$
	ldsflda		?szTitle@@3PA_WA
	ldc.i.0		0		; u32 0x0
	call		?MessageBox@@$$J0YAHPAUHWND__@@PB_W1I@Z
	pop		
; Line 193
	br		$LN15@WndProc
$LN16@WndProc:
; Line 195
	ldsflda		$SG67628
	stloc.s		4		; _Location$
; Line 197
	ldloc.s		4		; _Location$
	ldc.i.0		0		; i32 0x0
	ldc.i4.s	17		; u32 0x11
	call		?FindFirstChangeNotificationW@@$$J212YGPAXPB_WHK@Z
	stsfld		?fileChange@@3PAXA
; Line 198
	ldsfld		?fileChange@@3PAXA
	ldc.i.-1	-1		; u32 0xffffffff
	bne.un.s	$LN14@WndProc
; Line 201
	call		?GetLastError@@$$J10YGKXZ
	call		?ExitProcess@@$$J14YGXI@Z
$LN14@WndProc:
; Line 204
	ldc.i.0		0		; i32 0x0
	ldc.i.0		0		; u32 0x0
	ldsfld		__unep@?WaitForNewFile@@$$FYGKPAX@Z
	ldc.i.0		0		; i32 0x0
	ldc.i.0		0		; u32 0x0
	ldsflda		?ThreadId@@3KA
	call		?CreateThread@@$$J224YGPAXPAU_SECURITY_ATTRIBUTES@@KP6GKPAX@Z1KPAK@Z
	pop		
; Line 206
	ldloca.s	15		; _Location1$67629
	ldloc.s		4		; _Location$
	call		?wcscpy@@$$J0YAPA_WPA_WPB_W@Z
	pop		
; Line 207
	ldloca.s	15		; _Location1$67629
	ldsflda		$SG67633
	call		?wcscat@@$$J0YAPA_WPA_WPB_W@Z
	pop		
; Line 208
	ldloca.s	15		; _Location1$67629
	ldsflda		?ffd@@3U_WIN32_FIND_DATAW@@A
	call		?FindFirstFileW@@$$J18YGPAXPB_WPAU_WIN32_FIND_DATAW@@@Z
	stloc.s		6		; _fileHandle$67634
$LN12@WndProc:
; Line 218
	ldsflda		?ffd@@3U_WIN32_FIND_DATAW@@A
	ldind.i4	
	ldc.i4.s	16		; u32 0x10
	and		
	brfalse.s	$LN9@WndProc
; Line 222
	br.s		$LN11@WndProc
$LN9@WndProc:
; Line 224
	ldloca.s	14		; _fileTime$67643
	ldsflda		?ffd@@3U_WIN32_FIND_DATAW@@A
	ldc.i4.s	20		; i32 0x14
	add		
	ldc.i.8		8		; u32 0x8
	cpblk		
; Line 225
	ldloc.0				; _logFile$
	brfalse.s	$LN7@WndProc
; Line 227
	ldloca.s	14		; _fileTime$67643
	ldloc.0				; _logFile$
	call		?CompareFileTime@@$$J18YGJPBU_FILETIME@@0@Z
	stloc.s		9		; _writeTime$67645
; Line 228
	ldloc.s		9		; _writeTime$67645
	ldc.i.1		1		; i32 0x1
	bne.un.s	$LN6@WndProc
; Line 230
	ldloc.0				; _logFile$
	ldc.i.8		8		; i32 0x8
	add		
	ldsflda		?ffd@@3U_WIN32_FIND_DATAW@@A
	ldc.i4.s	44		; i32 0x2c
	add		
	call		?wcscpy@@$$J0YAPA_WPA_WPB_W@Z
	pop		
; Line 231
	ldloc.0				; _logFile$
	ldsflda		?ffd@@3U_WIN32_FIND_DATAW@@A
	ldc.i4.s	20		; i32 0x14
	add		
	ldc.i.8		8		; u32 0x8
	cpblk		
$LN6@WndProc:
; Line 234
	br.s		$LN11@WndProc
$LN7@WndProc:
; Line 236
	ldc.i4		528		; u32 0x210
	call		??2@$$FYAPAXI@Z
	stloc.0				; _logFile$
; Line 237
	ldloc.0				; _logFile$
	ldc.i.8		8		; i32 0x8
	add		
	ldsflda		?ffd@@3U_WIN32_FIND_DATAW@@A
	ldc.i4.s	44		; i32 0x2c
	add		
	call		?wcscpy@@$$J0YAPA_WPA_WPB_W@Z
	pop		
; Line 238
	ldloc.0				; _logFile$
	ldsflda		?ffd@@3U_WIN32_FIND_DATAW@@A
	ldc.i4.s	20		; i32 0x14
	add		
	ldc.i.8		8		; u32 0x8
	cpblk		
$LN11@WndProc:
; Line 246
	ldloc.s		6		; _fileHandle$67634
	ldsflda		?ffd@@3U_WIN32_FIND_DATAW@@A
	call		?FindNextFileW@@$$J18YGHPAXPAU_WIN32_FIND_DATAW@@@Z
	brtrue		$LN12@WndProc
; Line 249
	ldc.i4.s	16		; u32 0x10
	call		??2@$$FYAPAXI@Z
	stloc.3				; $T67653
$LN31@WndProc:
	ldloc.3				; $T67653
	brfalse.s	$LN27@WndProc
	ldloc.3				; $T67653
	call		??0SPLogParser@@$$FQAE@XZ
	br.s		$LN28@WndProc
$LN27@WndProc:
	ldc.i.0		0		; i32 0x0
$LN28@WndProc:
	stloc.s		8		; $T67655
	leave.s		$LN32@WndProc
$LN33@WndProc:
	ldloc.3				; $T67653
	call		??3@$$FYAXPAX@Z
	endfinally	
$LN32@WndProc:
	ldloc.s		8		; $T67655
	stloc.s		5		; _parser$67651
; Line 255
	ldloc.s		5		; _parser$67651
	ldloc.s		4		; _Location$
	ldloc.0				; _logFile$
	ldc.i.8		8		; i32 0x8
	add		
	call		?OpenFileReading@SPLogParser@@$$FQAEPAXPA_WQA_W@Z
	stloc.s		7		; _memFile$67658
; Line 256
	ldloc.s		5		; _parser$67651
	ldloc.s		7		; _memFile$67658
	ldloc.s		6		; _fileHandle$67634
	call		?ParseFile@SPLogParser@@$$FQAEXPAX0@Z
$LN15@WndProc:
; Line 259
	br.s		$LN18@WndProc
$LN4@WndProc:
; Line 264
	ldarg.0				; _hWnd$
	ldarg.1				; _message$
	ldarg.2				; _wParam$
	ldarg.3				; _lParam$
	call		?DefWindowProcW@@$$J216YGJPAUHWND__@@IIJ@Z
	stloc.2				; $T74690
	br.s		$LN26@WndProc
$LN18@WndProc:
; Line 266
	br.s		$LN23@WndProc
$LN3@WndProc:
; Line 268
	ldarg.0				; _hWnd$
	ldloca.s	13		; _ps$
	call		?BeginPaint@@$$J18YGPAUHDC__@@PAUHWND__@@PAUtagPAINTSTRUCT@@@Z
	stloc.s		12		; _hdc$
; Line 270
	ldarg.0				; _hWnd$
	ldloca.s	13		; _ps$
	call		?EndPaint@@$$J18YGHPAUHWND__@@PBUtagPAINTSTRUCT@@@Z
	pop		
; Line 271
	br.s		$LN23@WndProc
$LN2@WndProc:
; Line 273
	ldc.i.0		0		; i32 0x0
	call		?PostQuitMessage@@$$J14YGXH@Z
; Line 274
	br.s		$LN23@WndProc
$LN1@WndProc:
; Line 276
	ldarg.0				; _hWnd$
	ldarg.1				; _message$
	ldarg.2				; _wParam$
	ldarg.3				; _lParam$
	call		?DefWindowProcW@@$$J216YGJPAUHWND__@@IIJ@Z
	stloc.2				; $T74690
	br.s		$LN26@WndProc
$LN23@WndProc:
; Line 278
	ldc.i.0		0		; i32 0x0
	stloc.2				; $T74690
$LN26@WndProc:
; Line 279
	ldloc.2				; $T74690
	ret		
 .end ?WndProc@@$$FYGJPAUHWND__@@IIJ@Z			; WndProc
;	.proc.end.i4
_TEXT	ENDS
PUBLIC	__mep@?WndProc@@$$FYGJPAUHWND__@@IIJ@Z
PUBLIC	?WndProc@@YGJPAUHWND__@@IIJ@Z			; WndProc
;	COMDAT __mep@?WndProc@@$$FYGJPAUHWND__@@IIJ@Z
data	SEGMENT
__mep@?WndProc@@$$FYGJPAUHWND__@@IIJ@Z TOKEN 0A000144
; Function compile flags: /Odtp
data	ENDS
;	COMDAT ?WndProc@@YGJPAUHWND__@@IIJ@Z
_TEXT	SEGMENT
?WndProc@@YGJPAUHWND__@@IIJ@Z PROC			; WndProc, COMDAT
	jmp	DWORD PTR __mep@?WndProc@@$$FYGJPAUHWND__@@IIJ@Z
?WndProc@@YGJPAUHWND__@@IIJ@Z ENDP			; WndProc
.global	
	.bss
.local	,4
; Function compile flags: /Odtp
	.text
	.comdat	any, ??0_bstr_t@@$$FQAE@ABV0@@Z
.global	??0_bstr_t@@$$FQAE@ABV0@@Z			; _bstr_t::_bstr_t
??0_bstr_t@@$$FQAE@ABV0@@Z:				; _bstr_t::_bstr_t
;	.proc.def	D:I(II)

; Function Header:
; max stack depth = 2
; function size = 12 bytes
; local varsig tk = 0x0 
; Exception Information:
; 0 handlers, each consisting of filtered handlers

;	.formal.i4 1,"_s$" SIG: Optional C Binding Modifier(token:0x53E0865).ptr.Optional C Binding Modifier(token:0x53E0868).valueType (token:0x53E086A)
;	.formal.i4 0,"_this$" SIG: Optional C Binding Modifier(token:0x53F1815).Optional C Binding Modifier(token:0x53F1817).ptr.valueType (token:0x53F181A)

;	.proc.beg
; File c:\program files (x86)\microsoft visual studio 9.0\vc\include\comutil.h
; Line 304
	ldarg.0				; _this$
	ldarg.1				; _s$
	ldind.i4	
	stind.i4	
; Line 305
	ldarg.0				; _this$
	call		?_AddRef@_bstr_t@@$$FAAEXXZ
; Line 306
	ldarg.0				; _this$
	ret		
 .end ??0_bstr_t@@$$FQAE@ABV0@@Z			; _bstr_t::_bstr_t
;	.proc.end.i4
_TEXT	ENDS
PUBLIC	__mep@??0_bstr_t@@$$FQAE@ABV0@@Z
PUBLIC	__t2m@??0_bstr_t@@QAE@ABV0@@Z
;	COMDAT __mep@??0_bstr_t@@$$FQAE@ABV0@@Z
data	SEGMENT
__mep@??0_bstr_t@@$$FQAE@ABV0@@Z TOKEN 0A00001F
; Function compile flags: /Odtp
data	ENDS
;	COMDAT ??0_bstr_t@@QAE@ABV0@@Z
_TEXT	SEGMENT
__t2m@??0_bstr_t@@QAE@ABV0@@Z PROC			; COMDAT
	jmp	DWORD PTR __mep@??0_bstr_t@@$$FQAE@ABV0@@Z
__t2m@??0_bstr_t@@QAE@ABV0@@Z ENDP
.global	
	.bss
.local	$T74723,0
.local	,4
; Function compile flags: /Odtp
	.text
	.comdat	any, ??4_Iterator_base@std@@$$FQAEAAV01@ABV01@@Z
.global	??4_Iterator_base@std@@$$FQAEAAV01@ABV01@@Z	; std::_Iterator_base::operator=
??4_Iterator_base@std@@$$FQAEAAV01@ABV01@@Z:		; std::_Iterator_base::operator=
;	.proc.def	D:I(II)

; Function Header:
; max stack depth = 2
; function size = 56 bytes
; local varsig tk = 0x1100006A 
; Exception Information:
; 1 handlers, each consisting of filtered handlers

;	.formal.i4 1,"__Right$" SIG: Optional C Binding Modifier(token:0x541E9C1).ptr.Optional C Binding Modifier(token:0x541E9C4).valueType (token:0x541E9C6)
;	.formal.i4 0,"_this$" SIG: Optional C Binding Modifier(token:0x53E76BD).Optional C Binding Modifier(token:0x53E76BF).ptr.valueType (token:0x53E76C2)
;	.local.i4 0,"$T74718" SIG: Optional C Binding Modifier(token:0x47B439).ptr.valueType (token:0x47B43C)
;	.local.mb4   1,"__Lock$52312" SIG: valueType (token:0x53E7CFD)

;	.proc.beg
; File c:\program files (x86)\microsoft visual studio 9.0\vc\include\xutility
; Line 149
	ldarg.0				; _this$
	ldind.i4	
	ldarg.1				; __Right$
	ldind.i4	
	beq.s		$LN1@operator
; Line 151
	ldloca.s	1		; __Lock$52312
	ldc.i.3		3		; i32 0x3
	call		??0_Lockit@std@@$$FQAE@H@Z
	pop		
$LN5@operator:
; Line 152
	ldarg.0				; _this$
	call		?_Orphan_me@_Iterator_base@std@@$$FQAEXXZ
; Line 153
	ldarg.0				; _this$
	ldarg.1				; __Right$
	ldind.i4	
	call		?_Adopt@_Iterator_base@std@@$$FQAEXPBV_Container_base_secure@2@@Z
	leave.s		$LN6@operator
$LN7@operator:
	ldftn		??1_Lockit@std@@$$FQAE@XZ
	ldloca.s	1		; __Lock$52312
	call		?___CxxCallUnwindDtor@@$$J0YMXP6MXPAX@Z0@Z
	endfinally	
$LN6@operator:
; Line 154
	ldloca.s	1		; __Lock$52312
	call		??1_Lockit@std@@$$FQAE@XZ
$LN1@operator:
; Line 155
	ldarg.0				; _this$
	stloc.0				; $T74718
; Line 156
	ldloc.0				; $T74718
	ret		
 .end ??4_Iterator_base@std@@$$FQAEAAV01@ABV01@@Z	; std::_Iterator_base::operator=
;	.proc.end.i4
_TEXT	ENDS
PUBLIC	__mep@??4_Iterator_base@std@@$$FQAEAAV01@ABV01@@Z
PUBLIC	__t2m@??4_Iterator_base@std@@QAEAAV01@ABV01@@Z
;	COMDAT __mep@??4_Iterator_base@std@@$$FQAEAAV01@ABV01@@Z
data	SEGMENT
__mep@??4_Iterator_base@std@@$$FQAEAAV01@ABV01@@Z TOKEN 0A000065
; Function compile flags: /Odtp
data	ENDS
;	COMDAT ??4_Iterator_base@std@@QAEAAV01@ABV01@@Z
_TEXT	SEGMENT
__t2m@??4_Iterator_base@std@@QAEAAV01@ABV01@@Z PROC	; COMDAT
	jmp	DWORD PTR __mep@??4_Iterator_base@std@@$$FQAEAAV01@ABV01@@Z
__t2m@??4_Iterator_base@std@@QAEAAV01@ABV01@@Z ENDP
.global	__unep@?WndProc@@$$FYGJPAUHWND__@@IIJ@Z
.global	
	.bss
.local	$T74732,0
.local	,4
; File d:\mystuff\ulslogview\ulslogview\ulslogview.cpp
	.rdata
	.comdat	any, __unep@?WndProc@@$$FYGJPAUHWND__@@IIJ@Z

__unep@?WndProc@@$$FYGJPAUHWND__@@IIJ@Z:
	DD	?WndProc@@YGJPAUHWND__@@IIJ@Z
; Function compile flags: /Odtp
	.text
.global	?MyRegisterClass@@$$FYAGPAUHINSTANCE__@@@Z	; MyRegisterClass
?MyRegisterClass@@$$FYAGPAUHINSTANCE__@@@Z:		; MyRegisterClass
;	.proc.def	D:I(I)

; Function Header:
; max stack depth = 3
; function size = 128 bytes
; local varsig tk = 0x1100006C 
; Exception Information:
; 0 handlers, each consisting of filtered handlers

;	.formal.i4 0,"_hInstance$" SIG: ptr.valueType (token:0x53E20FE)
;	.local.u2 0,"$T74730" SIG: u2
;	.local.mb48  1,"_wcex$" SIG: valueType (token:0x53EA299)

;	.proc.beg
; Line 97
	ldloca.s	1		; _wcex$
	ldc.i4.s	48		; u32 0x30
	stind.i4	
; Line 99
	ldloca.s	1		; _wcex$
	ldc.i.4		4		; i32 0x4
	add		
	ldc.i.3		3		; u32 0x3
	stind.i4	
; Line 100
	ldloca.s	1		; _wcex$
	ldc.i.8		8		; i32 0x8
	add		
	ldsfld		__unep@?WndProc@@$$FYGJPAUHWND__@@IIJ@Z
	stind.i4	
; Line 101
	ldloca.s	1		; _wcex$
	ldc.i4.s	12		; i32 0xc
	add		
	ldc.i.0		0		; i32 0x0
	stind.i4	
; Line 102
	ldloca.s	1		; _wcex$
	ldc.i4.s	16		; i32 0x10
	add		
	ldc.i.0		0		; i32 0x0
	stind.i4	
; Line 103
	ldloca.s	1		; _wcex$
	ldc.i4.s	20		; i32 0x14
	add		
	ldarg.0				; _hInstance$
	stind.i4	
; Line 104
	ldloca.s	1		; _wcex$
	ldc.i4.s	24		; i32 0x18
	add		
	ldarg.0				; _hInstance$
	ldc.i4.s	101		; i32 0x65
	call		?LoadIconW@@$$J18YGPAUHICON__@@PAUHINSTANCE__@@PB_W@Z
	stind.i4	
; Line 105
	ldloca.s	1		; _wcex$
	ldc.i4.s	28		; i32 0x1c
	add		
	ldc.i.0		0		; i32 0x0
	ldc.i4		32512		; i32 0x7f00
	call		?LoadCursorW@@$$J18YGPAUHICON__@@PAUHINSTANCE__@@PB_W@Z
	stind.i4	
; Line 106
	ldloca.s	1		; _wcex$
	ldc.i4.s	32		; i32 0x20
	add		
	ldc.i.6		6		; i32 0x6
	stind.i4	
; Line 107
	ldloca.s	1		; _wcex$
	ldc.i4.s	36		; i32 0x24
	add		
	ldc.i4.s	104		; i32 0x68
	stind.i4	
; Line 108
	ldloca.s	1		; _wcex$
	ldc.i4.s	40		; i32 0x28
	add		
	ldsflda		?szWindowClass@@3PA_WA
	stind.i4	
; Line 109
	ldloca.s	1		; _wcex$
	ldc.i4.s	44		; i32 0x2c
	add		
	ldloca.s	1		; _wcex$
	ldc.i4.s	20		; i32 0x14
	add		
	ldind.i4	
	ldc.i4.s	101		; i32 0x65
	call		?LoadIconW@@$$J18YGPAUHICON__@@PAUHINSTANCE__@@PB_W@Z
	stind.i4	
; Line 111
	ldloca.s	1		; _wcex$
	call		?RegisterClassExW@@$$J14YGGPBUtagWNDCLASSEXW@@@Z
	stloc.0				; $T74730
; Line 112
	ldloc.0				; $T74730
	ret		
 .end ?MyRegisterClass@@$$FYAGPAUHINSTANCE__@@@Z	; MyRegisterClass
;	.proc.end.u2
_TEXT	ENDS
PUBLIC	__mep@?MyRegisterClass@@$$FYAGPAUHINSTANCE__@@@Z
PUBLIC	?MyRegisterClass@@YAGPAUHINSTANCE__@@@Z		; MyRegisterClass
;	COMDAT __mep@?MyRegisterClass@@$$FYAGPAUHINSTANCE__@@@Z
data	SEGMENT
__mep@?MyRegisterClass@@$$FYAGPAUHINSTANCE__@@@Z TOKEN 0A000142
; Function compile flags: /Odtp
data	ENDS
;	COMDAT ?MyRegisterClass@@YAGPAUHINSTANCE__@@@Z
_TEXT	SEGMENT
?MyRegisterClass@@YAGPAUHINSTANCE__@@@Z PROC		; MyRegisterClass, COMDAT
	jmp	DWORD PTR __mep@?MyRegisterClass@@$$FYAGPAUHINSTANCE__@@@Z
?MyRegisterClass@@YAGPAUHINSTANCE__@@@Z ENDP		; MyRegisterClass
; Function compile flags: /Odtp
	.text
	.comdat	any, ??0_Iterator_base@std@@$$FQAE@ABV01@@Z
.global	??0_Iterator_base@std@@$$FQAE@ABV01@@Z		; std::_Iterator_base::_Iterator_base
??0_Iterator_base@std@@$$FQAE@ABV01@@Z:			; std::_Iterator_base::_Iterator_base
;	.proc.def	D:I(II)

; Function Header:
; max stack depth = 2
; function size = 18 bytes
; local varsig tk = 0x0 
; Exception Information:
; 0 handlers, each consisting of filtered handlers

;	.formal.i4 1,"__Right$" SIG: Optional C Binding Modifier(token:0x541E9C1).ptr.Optional C Binding Modifier(token:0x541E9C4).valueType (token:0x541E9C6)
;	.formal.i4 0,"_this$" SIG: Optional C Binding Modifier(token:0x53E76BD).Optional C Binding Modifier(token:0x53E76BF).ptr.valueType (token:0x53E76C2)

;	.proc.beg
; File c:\program files (x86)\microsoft visual studio 9.0\vc\include\xutility
; Line 143
	ldarg.0				; _this$
	ldc.i.0		0		; i32 0x0
	stind.i4	
	ldarg.0				; _this$
	ldc.i.4		4		; i32 0x4
	add		
	ldc.i.0		0		; i32 0x0
	stind.i4	
; Line 144
	ldarg.0				; _this$
	ldarg.1				; __Right$
	call		??4_Iterator_base@std@@$$FQAEAAV01@ABV01@@Z
	pop		
; Line 145
	ldarg.0				; _this$
	ret		
 .end ??0_Iterator_base@std@@$$FQAE@ABV01@@Z		; std::_Iterator_base::_Iterator_base
;	.proc.end.i4
_TEXT	ENDS
PUBLIC	__mep@??0_Iterator_base@std@@$$FQAE@ABV01@@Z
PUBLIC	__t2m@??0_Iterator_base@std@@QAE@ABV01@@Z
;	COMDAT __mep@??0_Iterator_base@std@@$$FQAE@ABV01@@Z
data	SEGMENT
__mep@??0_Iterator_base@std@@$$FQAE@ABV01@@Z TOKEN 0A000064
; Function compile flags: /Odtp
data	ENDS
;	COMDAT ??0_Iterator_base@std@@QAE@ABV01@@Z
_TEXT	SEGMENT
__t2m@??0_Iterator_base@std@@QAE@ABV01@@Z PROC		; COMDAT
	jmp	DWORD PTR __mep@??0_Iterator_base@std@@$$FQAE@ABV01@@Z
__t2m@??0_Iterator_base@std@@QAE@ABV01@@Z ENDP
.global	
.global	
	.bss
.local	$T74747,0
.local	,4
.local	,4
; Function compile flags: /Odtp
	.text
.global	?wWinMain@@$$J216YGHPAUHINSTANCE__@@0PA_WH@Z	; wWinMain
?wWinMain@@$$J216YGHPAUHINSTANCE__@@0PA_WH@Z:		; wWinMain
;	.proc.def	D:I(IIII)

; Function Header:
; max stack depth = 4
; function size = 120 bytes
; local varsig tk = 0x1100006F 
; Exception Information:
; 0 handlers, each consisting of filtered handlers

;	.formal.i4 3,"_nCmdShow$" SIG: i4
;	.formal.i4 0,"_hInstance$" SIG: ptr.valueType (token:0x53E20FE)
;	.local.mb28  2,"_msg$" SIG: valueType (token:0x541EAC5)
;	.local.i4 1,"_hAccelTable$" SIG: ptr.valueType (token:0x53DCE5A)
;	.local.i4 0,"$T74744" SIG: i4

;	.proc.beg
; File d:\mystuff\ulslogview\ulslogview\ulslogview.cpp
; Line 53
	ldsfld		?hInst@@3PAUHINSTANCE__@@A
	ldc.i4.s	103		; u32 0x67
	ldsflda		?szTitle@@3PA_WA
	ldc.i4.s	100		; i32 0x64
	call		?LoadStringW@@$$J216YGHPAUHINSTANCE__@@IPA_WH@Z
	pop		
; Line 54
	ldsfld		?hInst@@3PAUHINSTANCE__@@A
	ldc.i4.s	104		; u32 0x68
	ldsflda		?szWindowClass@@3PA_WA
	ldc.i4.s	100		; i32 0x64
	call		?LoadStringW@@$$J216YGHPAUHINSTANCE__@@IPA_WH@Z
	pop		
; Line 55
	ldarg.0				; _hInstance$
	call		?MyRegisterClass@@$$FYAGPAUHINSTANCE__@@@Z
	pop		
; Line 58
	ldarg.0				; _hInstance$
	ldarg.3				; _nCmdShow$
	call		?InitInstance@@$$FYAHPAUHINSTANCE__@@H@Z
	brtrue.s	$LN4@wWinMain
; Line 60
	ldc.i.0		0		; i32 0x0
	stloc.0				; $T74744
	br.s		$LN5@wWinMain
$LN4@wWinMain:
; Line 63
	ldarg.0				; _hInstance$
	ldc.i4.s	101		; i32 0x65
	call		?LoadAcceleratorsW@@$$J18YGPAUHACCEL__@@PAUHINSTANCE__@@PB_W@Z
	stloc.1				; _hAccelTable$
$LN3@wWinMain:
; Line 66
	ldloca.s	2		; _msg$
	ldc.i.0		0		; i32 0x0
	ldc.i.0		0		; u32 0x0
	ldc.i.0		0		; u32 0x0
	call		?GetMessage@@$$J0YAHPAUtagMSG@@PAUHWND__@@II@Z
	brfalse.s	$LN2@wWinMain
; Line 68
	ldloca.s	2		; _msg$
	ldind.i4	
	ldloc.1				; _hAccelTable$
	ldloca.s	2		; _msg$
	call		?TranslateAcceleratorW@@$$J212YGHPAUHWND__@@PAUHACCEL__@@PAUtagMSG@@@Z
	brtrue.s	$LN1@wWinMain
; Line 70
	ldloca.s	2		; _msg$
	call		?TranslateMessage@@$$J14YGHPBUtagMSG@@@Z
	pop		
; Line 71
	ldloca.s	2		; _msg$
	call		?DispatchMessage@@$$J0YAJPBUtagMSG@@@Z
	pop		
$LN1@wWinMain:
; Line 73
	br.s		$LN3@wWinMain
$LN2@wWinMain:
; Line 75
	ldloca.s	2		; _msg$
	ldc.i.8		8		; i32 0x8
	add		
	ldind.i4	
	stloc.0				; $T74744
$LN5@wWinMain:
; Line 76
	ldloc.0				; $T74744
	ret		
 .end ?wWinMain@@$$J216YGHPAUHINSTANCE__@@0PA_WH@Z	; wWinMain
;	.proc.end.i4
_TEXT	ENDS
PUBLIC	__mep@?wWinMain@@$$J216YGHPAUHINSTANCE__@@0PA_WH@Z
PUBLIC	_wWinMain@16
;	COMDAT __mep@?wWinMain@@$$J216YGHPAUHINSTANCE__@@0PA_WH@Z
data	SEGMENT
__mep@?wWinMain@@$$J216YGHPAUHINSTANCE__@@0PA_WH@Z TOKEN 0A000141
; Function compile flags: /Odtp
data	ENDS
;	COMDAT _wWinMain@16
_TEXT	SEGMENT
_wWinMain@16 PROC					; COMDAT
	jmp	DWORD PTR __mep@?wWinMain@@$$J216YGHPAUHINSTANCE__@@0PA_WH@Z
_wWinMain@16 ENDP
_TEXT	ENDS
END
