; Listing generated by Microsoft (R) Optimizing Compiler Version 15.00.21022.08 

; Generated by VC++ for Common Language Runtime
.file "d:\GRE\My Stuff\ULSLogView\ULSLogView\SPInterface.cpp"
.global	
	.bss
.local	,4
; Function compile flags: /Odtp
	.text
	.comdat	any, ?CheckError@_com_util@@$$FYAXJ@Z
.global	?CheckError@_com_util@@$$FYAXJ@Z		; _com_util::CheckError
?CheckError@_com_util@@$$FYAXJ@Z:			; _com_util::CheckError
;	.proc.def	D:V(I)

; Function Header:
; max stack depth = 2
; function size = 11 bytes
; local varsig tk = 0x0 
; Exception Information:
; 0 handlers, each consisting of filtered handlers

;	.formal.i4 0,"hr$" SIG: Optional C Binding Modifier(token:0x52CCA59).i4

;	.proc.beg
; File c:\program files (x86)\microsoft visual studio 9.0\vc\include\comutil.h
; Line 96
  0000b	02		 ldarg.0 	; hr$
  0000c	16		 ldc.i.0 0	; i32 0x0
  0000d	2f 07		 bge.s $LN3@CheckError
; Line 97
  0000f	02		 ldarg.0 	; hr$
  00010	28 00 00 00 00	 call ?_com_issue_error@@$$FYAXJ@Z
$LN3@CheckError:
; Line 99
  00016	2a		 ret 
 .end ?CheckError@_com_util@@$$FYAXJ@Z			; _com_util::CheckError
;	.proc.end.void
_TEXT	ENDS
PUBLIC	__mep@?CheckError@_com_util@@$$FYAXJ@Z
PUBLIC	__m2mep@?CheckError@_com_util@@$$FYAXJ@Z
PUBLIC	__t2m@?CheckError@_com_util@@YAXJ@Z
;	COMDAT __mep@?CheckError@_com_util@@$$FYAXJ@Z
data	SEGMENT
__mep@?CheckError@_com_util@@$$FYAXJ@Z TOKEN 0A000014
data	ENDS
;	COMDAT __m2mep@?CheckError@_com_util@@$$FYAXJ@Z
data	SEGMENT
__m2mep@?CheckError@_com_util@@$$FYAXJ@Z DD FLAT:?CheckError@_com_util@@$$FYAXJ@Z
; Function compile flags: /Odtp
data	ENDS
;	COMDAT nep
_TEXT	SEGMENT
__t2m@?CheckError@_com_util@@YAXJ@Z PROC		; COMDAT
  00000	eb 08		 jmp	 SHORT $LN1@
  00002	0f 0b		 ud2
$LN2@:
  00004	ff 25 00 00 00
	00		 jmp	 QWORD PTR __m2mep@?CheckError@_com_util@@$$FYAXJ@Z
$LN1@:
  0000a	ff 25 00 00 00
	00		 jmp	 QWORD PTR __mep@?CheckError@_com_util@@$$FYAXJ@Z
__t2m@?CheckError@_com_util@@YAXJ@Z ENDP
.global	
	.bss
.local	$T74850,0
.local	,4
; Function compile flags: /Odtp
	.text
	.comdat	any, ?AddRef@Data_t@_bstr_t@@$$FQEAAKXZ
.global	?AddRef@Data_t@_bstr_t@@$$FQEAAKXZ		; _bstr_t::Data_t::AddRef
?AddRef@Data_t@_bstr_t@@$$FQEAAKXZ:			; _bstr_t::Data_t::AddRef
;	.proc.def	D:I(J)

; Function Header:
; max stack depth = 2
; function size = 20 bytes
; local varsig tk = 0x11000008 
; Exception Information:
; 0 handlers, each consisting of filtered handlers

;	.formal.i8 0,"this$" SIG: Optional C Binding Modifier(token:0x52CCBBD).Optional C Binding Modifier(token:0x52CCBBF).ptr.valueType (token:0x52CCBC2)
;	.local.u4 0,"$T74848" SIG: Optional C Binding Modifier(token:0x418241).u4

;	.proc.beg
; Line 767
  0000b	02		 ldarg.0 	; this$
  0000c	1f 10		 ldc.i4.s 16	; i64 0x10
  0000e	6a		 conv.i8 
  0000f	58		 add 
  00010	28 00 00 00 00	 call System.Threading.Interlocked.Increment
  00015	26		 pop 
; Line 768
  00016	02		 ldarg.0 	; this$
  00017	1f 10		 ldc.i4.s 16	; i64 0x10
  00019	6a		 conv.i8 
  0001a	58		 add 
  0001b	4a		 ldind.i4 
  0001c	0a		 stloc.0 	; $T74848
; Line 769
  0001d	06		 ldloc.0 	; $T74848
  0001e	2a		 ret 
 .end ?AddRef@Data_t@_bstr_t@@$$FQEAAKXZ		; _bstr_t::Data_t::AddRef
;	.proc.end.u4
_TEXT	ENDS
PUBLIC	__mep@?AddRef@Data_t@_bstr_t@@$$FQEAAKXZ
PUBLIC	__m2mep@?AddRef@Data_t@_bstr_t@@$$FQEAAKXZ
PUBLIC	__t2m@?AddRef@Data_t@_bstr_t@@QEAAKXZ
;	COMDAT __mep@?AddRef@Data_t@_bstr_t@@$$FQEAAKXZ
data	SEGMENT
__mep@?AddRef@Data_t@_bstr_t@@$$FQEAAKXZ TOKEN 0A00002C
data	ENDS
;	COMDAT __m2mep@?AddRef@Data_t@_bstr_t@@$$FQEAAKXZ
data	SEGMENT
__m2mep@?AddRef@Data_t@_bstr_t@@$$FQEAAKXZ DD FLAT:?AddRef@Data_t@_bstr_t@@$$FQEAAKXZ
; Function compile flags: /Odtp
data	ENDS
;	COMDAT nep
_TEXT	SEGMENT
__t2m@?AddRef@Data_t@_bstr_t@@QEAAKXZ PROC		; COMDAT
  00000	eb 08		 jmp	 SHORT $LN1@
  00002	0f 0b		 ud2
$LN2@:
  00004	ff 25 00 00 00
	00		 jmp	 QWORD PTR __m2mep@?AddRef@Data_t@_bstr_t@@$$FQEAAKXZ
$LN1@:
  0000a	ff 25 00 00 00
	00		 jmp	 QWORD PTR __mep@?AddRef@Data_t@_bstr_t@@$$FQEAAKXZ
__t2m@?AddRef@Data_t@_bstr_t@@QEAAKXZ ENDP
.global	
.global	
	.bss
.local	,4
.local	,4
; Function compile flags: /Odtp
	.text
	.comdat	any, ??0_variant_t@@$$FQEAA@AEBV0@@Z
.global	??0_variant_t@@$$FQEAA@AEBV0@@Z			; _variant_t::_variant_t
??0_variant_t@@$$FQEAA@AEBV0@@Z:			; _variant_t::_variant_t
;	.proc.def	D:J(JJ)

; Function Header:
; max stack depth = 2
; function size = 20 bytes
; local varsig tk = 0x0 
; Exception Information:
; 0 handlers, each consisting of filtered handlers

;	.formal.i8 1,"varSrc$" SIG: Optional C Binding Modifier(token:0x52CDDE9).ptr.Optional C Binding Modifier(token:0x52CDDEC).valueType (token:0x52CDDEE)
;	.formal.i8 0,"this$" SIG: Optional C Binding Modifier(token:0x4643ED).Optional C Binding Modifier(token:0x4643EF).ptr.valueType (token:0x4643F2)

;	.proc.beg
; Line 1156
  0000b	02		 ldarg.0 	; this$
  0000c	28 00 00 00 00	 call ?VariantInit@@$$J0YAXPEAUtagVARIANT@@@Z
; Line 1157
  00011	02		 ldarg.0 	; this$
  00012	03		 ldarg.1 	; varSrc$
  00013	28 00 00 00 00	 call ?VariantCopy@@$$J0YAJPEAUtagVARIANT@@PEBU1@@Z
  00018	28 00 00 00 00	 call ?CheckError@_com_util@@$$FYAXJ@Z
; Line 1158
  0001d	02		 ldarg.0 	; this$
  0001e	2a		 ret 
 .end ??0_variant_t@@$$FQEAA@AEBV0@@Z			; _variant_t::_variant_t
;	.proc.end.i8
_TEXT	ENDS
PUBLIC	__mep@??0_variant_t@@$$FQEAA@AEBV0@@Z
PUBLIC	__m2mep@??0_variant_t@@$$FQEAA@AEBV0@@Z
PUBLIC	__t2m@??0_variant_t@@QEAA@AEBV0@@Z
;	COMDAT __mep@??0_variant_t@@$$FQEAA@AEBV0@@Z
data	SEGMENT
__mep@??0_variant_t@@$$FQEAA@AEBV0@@Z TOKEN 0A000038
data	ENDS
;	COMDAT __m2mep@??0_variant_t@@$$FQEAA@AEBV0@@Z
data	SEGMENT
__m2mep@??0_variant_t@@$$FQEAA@AEBV0@@Z DD FLAT:??0_variant_t@@$$FQEAA@AEBV0@@Z
; Function compile flags: /Odtp
data	ENDS
;	COMDAT nep
_TEXT	SEGMENT
__t2m@??0_variant_t@@QEAA@AEBV0@@Z PROC			; COMDAT
  00000	eb 08		 jmp	 SHORT $LN1@
  00002	0f 0b		 ud2
$LN2@:
  00004	ff 25 00 00 00
	00		 jmp	 QWORD PTR __m2mep@??0_variant_t@@$$FQEAA@AEBV0@@Z
$LN1@:
  0000a	ff 25 00 00 00
	00		 jmp	 QWORD PTR __mep@??0_variant_t@@$$FQEAA@AEBV0@@Z
__t2m@??0_variant_t@@QEAA@AEBV0@@Z ENDP
.global	??_7_com_error@@6B@				; _com_error::`vftable'
.global	
.global	
.global	??_R4_com_error@@6B@				; _com_error::`RTTI Complete Object Locator'
.global	??_R0?AV_com_error@@@8				; _com_error `RTTI Type Descriptor'
.global	??_R3_com_error@@8				; _com_error::`RTTI Class Hierarchy Descriptor'
.global	??_R2_com_error@@8				; _com_error::`RTTI Base Class Array'
.global	??_R1A@?0A@EA@_com_error@@8			; _com_error::`RTTI Base Class Descriptor at (0,-1,0,64)'
	.bss
.local	$SigTok$$$A8IUnknown@@EAAKXZ,4
.local	,4
.local	,4
; File c:\program files (x86)\microsoft visual studio 9.0\vc\include\comdef.h
	.rdataseg	.rdata$r
	.comdat	any, ??_R1A@?0A@EA@_com_error@@8

??_R1A@?0A@EA@_com_error@@8:				; _com_error::`RTTI Base Class Descriptor at (0,-1,0,64)' DD imagerel ??_R0?AV_com_error@@@8
	.word	0x0
	.word	0x0
	.word	0xffffffff
	.word	0x0
	.word	0x40 DD imagerel ??_R3_com_error@@8
	.rdataseg	.rdata$r
	.comdat	any, ??_R2_com_error@@8

??_R2_com_error@@8:					; _com_error::`RTTI Base Class Array' DD imagerel ??_R1A@?0A@EA@_com_error@@8
	.space	3
	.rdataseg	.rdata$r
	.comdat	any, ??_R3_com_error@@8

??_R3_com_error@@8:					; _com_error::`RTTI Class Hierarchy Descriptor'
	.word	0x0
	.word	0x0
	.word	0x1 DD imagerel ??_R2_com_error@@8
	.data
	.comdat	any, ??_R0?AV_com_error@@@8

??_R0?AV_com_error@@@8:					; _com_error `RTTI Type Descriptor'
	DQ	??_7type_info@@6B@
	.double	0x0000000000000000
	.ascii	".?AV_com_error@@\000"
	.rdataseg	.rdata$r
	.comdat	any, ??_R4_com_error@@6B@

??_R4_com_error@@6B@:					; _com_error::`RTTI Complete Object Locator'
	.word	0x1
	.word	0x0
	.word	0x0 DD imagerel ??_R0?AV_com_error@@@8 DD imagerel ??_R3_com_error@@8 DD imagerel ??_R4_com_error@@6B@
	.data
	.comdat	largest, ??_7_com_error@@6B@

??_7_com_error@@6B@:					; _com_error::`vftable'
	DQ	??_R4_com_error@@6B@
	DQ	??_E_com_error@@UEAAPEAXI@Z
; Function compile flags: /Odtp
	.text
	.comdat	any, ??0_com_error@@$$FQEAA@AEBV0@@Z
.global	??0_com_error@@$$FQEAA@AEBV0@@Z			; _com_error::_com_error
??0_com_error@@$$FQEAA@AEBV0@@Z:			; _com_error::_com_error
;	.proc.def	D:J(JJ)

; Function Header:
; max stack depth = 3
; function size = 70 bytes
; local varsig tk = 0x0 
; Exception Information:
; 0 handlers, each consisting of filtered handlers

;	.formal.i8 1,"that$" SIG: Optional C Binding Modifier(token:0x459041).ptr.Optional C Binding Modifier(token:0x459044).valueType (token:0x459046)
;	.formal.i8 0,"this$" SIG: Optional C Binding Modifier(token:0x45CDC1).Optional C Binding Modifier(token:0x45CDC3).ptr.valueType (token:0x45CDC6)

;	.proc.beg
; Line 147
  0000b	02		 ldarg.0 	; this$
  0000c	7f 00 00 00 00	 ldsflda ??_7_com_error@@6B@
  00011	55		 stind.i8 
  00012	02		 ldarg.0 	; this$
  00013	1e		 ldc.i.8 8	; i64 0x8
  00014	6a		 conv.i8 
  00015	58		 add 
  00016	03		 ldarg.1 	; that$
  00017	1e		 ldc.i.8 8	; i64 0x8
  00018	6a		 conv.i8 
  00019	58		 add 
  0001a	4a		 ldind.i4 
  0001b	54		 stind.i4 
  0001c	02		 ldarg.0 	; this$
  0001d	1f 10		 ldc.i4.s 16	; i64 0x10
  0001f	6a		 conv.i8 
  00020	58		 add 
  00021	03		 ldarg.1 	; that$
  00022	1f 10		 ldc.i4.s 16	; i64 0x10
  00024	6a		 conv.i8 
  00025	58		 add 
  00026	4c		 ldind.i8 
  00027	55		 stind.i8 
  00028	02		 ldarg.0 	; this$
  00029	1f 18		 ldc.i4.s 24	; i64 0x18
  0002b	6a		 conv.i8 
  0002c	58		 add 
  0002d	16		 ldc.i.0 0	; i64 0x0
  0002e	6a		 conv.i8 
  0002f	55		 stind.i8 
; Line 148
  00030	02		 ldarg.0 	; this$
  00031	1f 10		 ldc.i4.s 16	; i64 0x10
  00033	6a		 conv.i8 
  00034	58		 add 
  00035	4c		 ldind.i8 
  00036	2c 18		 brfalse.s $LN2@com_error
; Line 149
  00038	02		 ldarg.0 	; this$
  00039	1f 10		 ldc.i4.s 16	; i64 0x10
  0003b	6a		 conv.i8 
  0003c	58		 add 
  0003d	4c		 ldind.i8 
  0003e	02		 ldarg.0 	; this$
  0003f	1f 10		 ldc.i4.s 16	; i64 0x10
  00041	6a		 conv.i8 
  00042	58		 add 
  00043	4c		 ldind.i8 
  00044	4c		 ldind.i8 
  00045	1e		 ldc.i.8 8	; i64 0x8
  00046	6a		 conv.i8 
  00047	58		 add 
  00048	4c		 ldind.i8 
  00049	29 00 00 00 00	 calli D:I(J)
  0004e	26		 pop 
$LN2@com_error:
; Line 151
  00050	02		 ldarg.0 	; this$
  00051	2a		 ret 
 .end ??0_com_error@@$$FQEAA@AEBV0@@Z			; _com_error::_com_error
;	.proc.end.i8
_TEXT	ENDS
PUBLIC	__mep@??0_com_error@@$$FQEAA@AEBV0@@Z
PUBLIC	__m2mep@??0_com_error@@$$FQEAA@AEBV0@@Z
PUBLIC	__t2m@??0_com_error@@QEAA@AEBV0@@Z
;	COMDAT __mep@??0_com_error@@$$FQEAA@AEBV0@@Z
data	SEGMENT
__mep@??0_com_error@@$$FQEAA@AEBV0@@Z TOKEN 0A00003E
data	ENDS
;	COMDAT __m2mep@??0_com_error@@$$FQEAA@AEBV0@@Z
data	SEGMENT
__m2mep@??0_com_error@@$$FQEAA@AEBV0@@Z DD FLAT:??0_com_error@@$$FQEAA@AEBV0@@Z
; Function compile flags: /Odtp
data	ENDS
;	COMDAT nep
_TEXT	SEGMENT
__t2m@??0_com_error@@QEAA@AEBV0@@Z PROC			; COMDAT
  00000	eb 08		 jmp	 SHORT $LN1@
  00002	0f 0b		 ud2
$LN2@:
  00004	ff 25 00 00 00
	00		 jmp	 QWORD PTR __m2mep@??0_com_error@@$$FQEAA@AEBV0@@Z
$LN1@:
  0000a	ff 25 00 00 00
	00		 jmp	 QWORD PTR __mep@??0_com_error@@$$FQEAA@AEBV0@@Z
__t2m@??0_com_error@@QEAA@AEBV0@@Z ENDP
	.bss
.local	$T74884,0
; Function compile flags: /Odtp
	.text
	.comdat	any, ??_E_com_error@@$$FUEAAPEAXI@Z
.global	??_E_com_error@@$$FUEAAPEAXI@Z			; _com_error::`vector deleting destructor'
??_E_com_error@@$$FUEAAPEAXI@Z:				; _com_error::`vector deleting destructor'
;	.proc.def	D:J(JI)

; Function Header:
; max stack depth = 4
; function size = 67 bytes
; local varsig tk = 0x1100000D 
; Exception Information:
; 0 handlers, each consisting of filtered handlers

;	.formal.i8 0,"this$" SIG: Optional C Binding Modifier(token:0x45CDC1).Optional C Binding Modifier(token:0x45CDC3).ptr.valueType (token:0x45CDC6)
;	.formal.u4 1,"__flags$" SIG: u4
;	.local.i8 0,"$T74883" SIG: ptr.void

;	.proc.beg
  0000b	03		 ldarg.1 	; __flags$
  0000c	18		 ldc.i.2 2	; u32 0x2
  0000d	5f		 and 
  0000e	2c 2a		 brfalse.s $LN3@vector
  00010	02		 ldarg.0 	; this$
  00011	1f 20		 ldc.i4.s 32	; u64 0x20
  00013	6a		 conv.i8 
  00014	02		 ldarg.0 	; this$
  00015	1e		 ldc.i.8 8	; i64 0x8
  00016	6a		 conv.i8 
  00017	59		 sub 
  00018	4a		 ldind.i4 
  00019	fe 06 00 00 00
	00		 ldftn ??1_com_error@@$$FUEAA@XZ
  0001f	28 00 00 00 00	 call ??_M@$$FYMXPEAX_KHP6MX0@Z@Z
  00024	03		 ldarg.1 	; __flags$
  00025	17		 ldc.i.1 1	; u32 0x1
  00026	5f		 and 
  00027	2c 0a		 brfalse.s $LN2@vector
  00029	02		 ldarg.0 	; this$
  0002a	1e		 ldc.i.8 8	; i64 0x8
  0002b	6a		 conv.i8 
  0002c	59		 sub 
  0002d	28 00 00 00 00	 call ??3@$$FYAXPEAX@Z
$LN2@vector:
  00033	02		 ldarg.0 	; this$
  00034	1e		 ldc.i.8 8	; i64 0x8
  00035	6a		 conv.i8 
  00036	59		 sub 
  00037	0a		 stloc.0 	; $T74883
  00038	2b 13		 br.s $LN4@vector
$LN3@vector:
  0003a	02		 ldarg.0 	; this$
  0003b	28 00 00 00 00	 call ??1_com_error@@$$FUEAA@XZ
  00040	03		 ldarg.1 	; __flags$
  00041	17		 ldc.i.1 1	; u32 0x1
  00042	5f		 and 
  00043	2c 06		 brfalse.s $LN1@vector
  00045	02		 ldarg.0 	; this$
  00046	28 00 00 00 00	 call ??3@$$FYAXPEAX@Z
$LN1@vector:
  0004b	02		 ldarg.0 	; this$
  0004c	0a		 stloc.0 	; $T74883
$LN4@vector:
  0004d	06		 ldloc.0 	; $T74883
  0004e	2a		 ret 
 .end ??_E_com_error@@$$FUEAAPEAXI@Z			; _com_error::`vector deleting destructor'
;	.proc.end.i8
.global	
	.bss
.local	$T74890,0
.local	,4
; Function compile flags: /Odtp
	.text
	.comdat	any, ??1_com_error@@$$FUEAA@XZ
.global	??1_com_error@@$$FUEAA@XZ			; _com_error::~_com_error
??1_com_error@@$$FUEAA@XZ:				; _com_error::~_com_error
;	.proc.def	D:V(J)

; Function Header:
; max stack depth = 4
; function size = 71 bytes
; local varsig tk = 0x1100000D 
; Exception Information:
; 0 handlers, each consisting of filtered handlers

;	.formal.i8 0,"this$" SIG: Optional C Binding Modifier(token:0x45CDC1).Optional C Binding Modifier(token:0x45CDC3).ptr.valueType (token:0x45CDC6)
;	.local.i8 0,"hHeap$70819" SIG: ptr.void

;	.proc.beg
; Line 154
  0000b	02		 ldarg.0 	; this$
  0000c	7f 00 00 00 00	 ldsflda ??_7_com_error@@6B@
  00011	55		 stind.i8 
; Line 155
  00012	02		 ldarg.0 	; this$
  00013	1f 10		 ldc.i4.s 16	; i64 0x10
  00015	6a		 conv.i8 
  00016	58		 add 
  00017	4c		 ldind.i8 
  00018	2c 19		 brfalse.s $LN3@com_error@2
; Line 156
  0001a	02		 ldarg.0 	; this$
  0001b	1f 10		 ldc.i4.s 16	; i64 0x10
  0001d	6a		 conv.i8 
  0001e	58		 add 
  0001f	4c		 ldind.i8 
  00020	02		 ldarg.0 	; this$
  00021	1f 10		 ldc.i4.s 16	; i64 0x10
  00023	6a		 conv.i8 
  00024	58		 add 
  00025	4c		 ldind.i8 
  00026	4c		 ldind.i8 
  00027	1f 10		 ldc.i4.s 16	; i64 0x10
  00029	6a		 conv.i8 
  0002a	58		 add 
  0002b	4c		 ldind.i8 
  0002c	29 00 00 00 00	 calli D:I(J)
  00031	26		 pop 
$LN3@com_error@2:
; Line 158
  00033	02		 ldarg.0 	; this$
  00034	1f 18		 ldc.i4.s 24	; i64 0x18
  00036	6a		 conv.i8 
  00037	58		 add 
  00038	4c		 ldind.i8 
  00039	2c 17		 brfalse.s $LN4@com_error@2
; Line 159
  0003b	28 00 00 00 00	 call ?GetProcessHeap@@$$J0YAPEAXXZ
  00040	0a		 stloc.0 	; hHeap$70819
; Line 160
  00041	06		 ldloc.0 	; hHeap$70819
  00042	2c 0e		 brfalse.s $LN4@com_error@2
; Line 162
  00044	06		 ldloc.0 	; hHeap$70819
  00045	16		 ldc.i.0 0	; u32 0x0
  00046	02		 ldarg.0 	; this$
  00047	1f 18		 ldc.i4.s 24	; i64 0x18
  00049	6a		 conv.i8 
  0004a	58		 add 
  0004b	4c		 ldind.i8 
  0004c	28 00 00 00 00	 call ?HeapFree@@$$J0YAHPEAXK0@Z
  00051	26		 pop 
$LN4@com_error@2:
; Line 165
  00052	2a		 ret 
 .end ??1_com_error@@$$FUEAA@XZ				; _com_error::~_com_error
;	.proc.end.void
_TEXT	ENDS
PUBLIC	__mep@??1_com_error@@$$FUEAA@XZ
PUBLIC	__m2mep@??1_com_error@@$$FUEAA@XZ
PUBLIC	__t2m@??1_com_error@@UEAA@XZ
;	COMDAT __mep@??1_com_error@@$$FUEAA@XZ
data	SEGMENT
__mep@??1_com_error@@$$FUEAA@XZ TOKEN 0A00003F
data	ENDS
;	COMDAT __m2mep@??1_com_error@@$$FUEAA@XZ
data	SEGMENT
__m2mep@??1_com_error@@$$FUEAA@XZ DD FLAT:??1_com_error@@$$FUEAA@XZ
; Function compile flags: /Odtp
data	ENDS
;	COMDAT nep
_TEXT	SEGMENT
__t2m@??1_com_error@@UEAA@XZ PROC			; COMDAT
  00000	eb 08		 jmp	 SHORT $LN1@
  00002	0f 0b		 ud2
$LN2@:
  00004	ff 25 00 00 00
	00		 jmp	 QWORD PTR __m2mep@??1_com_error@@$$FUEAA@XZ
$LN1@:
  0000a	ff 25 00 00 00
	00		 jmp	 QWORD PTR __mep@??1_com_error@@$$FUEAA@XZ
__t2m@??1_com_error@@UEAA@XZ ENDP
_TEXT	ENDS
PUBLIC	__mep@??_E_com_error@@$$FUEAAPEAXI@Z
PUBLIC	__m2mep@??_E_com_error@@$$FUEAAPEAXI@Z
PUBLIC	__t2m@??_E_com_error@@UEAAPEAXI@Z
;	COMDAT __mep@??_E_com_error@@$$FUEAAPEAXI@Z
data	SEGMENT
__mep@??_E_com_error@@$$FUEAAPEAXI@Z TOKEN 0A000043
data	ENDS
;	COMDAT __m2mep@??_E_com_error@@$$FUEAAPEAXI@Z
data	SEGMENT
__m2mep@??_E_com_error@@$$FUEAAPEAXI@Z DD FLAT:??_E_com_error@@$$FUEAAPEAXI@Z
; Function compile flags: /Odtp
data	ENDS
;	COMDAT nep
_TEXT	SEGMENT
__t2m@??_E_com_error@@UEAAPEAXI@Z PROC			; COMDAT
  00000	eb 08		 jmp	 SHORT $LN1@
  00002	0f 0b		 ud2
$LN2@:
  00004	ff 25 00 00 00
	00		 jmp	 QWORD PTR __m2mep@??_E_com_error@@$$FUEAAPEAXI@Z
$LN1@:
  0000a	ff 25 00 00 00
	00		 jmp	 QWORD PTR __mep@??_E_com_error@@$$FUEAAPEAXI@Z
__t2m@??_E_com_error@@UEAAPEAXI@Z ENDP
.global	
	.bss
.local	$T74907,0
.local	,4
; Function compile flags: /Odtp
	.text
	.comdat	any, ??C?$_com_ptr_t@V?$_com_IIID@UIUlsInfo@SPULS@@$1?_GUID_ed1ed747_b451_3bdc_998c_dc70841fb411@@3U__s_GUID@@B@@@@$$FQEBAPEAUIUlsInfo@SPULS@@XZ
.global	??C?$_com_ptr_t@V?$_com_IIID@UIUlsInfo@SPULS@@$1?_GUID_ed1ed747_b451_3bdc_998c_dc70841fb411@@3U__s_GUID@@B@@@@$$FQEBAPEAUIUlsInfo@SPULS@@XZ ; _com_ptr_t<_com_IIID<SPULS::IUlsInfo,&_GUID_ed1ed747_b451_3bdc_998c_dc70841fb411> >::operator->
??C?$_com_ptr_t@V?$_com_IIID@UIUlsInfo@SPULS@@$1?_GUID_ed1ed747_b451_3bdc_998c_dc70841fb411@@3U__s_GUID@@B@@@@$$FQEBAPEAUIUlsInfo@SPULS@@XZ: ; _com_ptr_t<_com_IIID<SPULS::IUlsInfo,&_GUID_ed1ed747_b451_3bdc_998c_dc70841fb411> >::operator->
;	.proc.def	D:J(J)

; Function Header:
; max stack depth = 1
; function size = 19 bytes
; local varsig tk = 0x11000010 
; Exception Information:
; 0 handlers, each consisting of filtered handlers

;	.formal.i8 0,"this$" SIG: Optional C Binding Modifier(token:0x52D6791).Optional C Binding Modifier(token:0x52D6793).ptr.Optional C Binding Modifier(token:0x52D6796).valueType (token:0x52D6798)
;	.local.i8 0,"$T74905" SIG: ptr.valueType (token:0x52C6F2A)

;	.proc.beg
; File c:\program files (x86)\microsoft visual studio 9.0\vc\include\comip.h
; Line 395
  0000b	02		 ldarg.0 	; this$
  0000c	4c		 ldind.i8 
  0000d	2d 0b		 brtrue.s $LN1@operator
; Line 396
  0000f	20 03 40 00 80	 ldc.i4 -2147467261 ; i32 0x80004003
  00014	28 00 00 00 00	 call ?_com_issue_error@@$$FYAXJ@Z
$LN1@operator:
; Line 399
  0001a	02		 ldarg.0 	; this$
  0001b	4c		 ldind.i8 
  0001c	0a		 stloc.0 	; $T74905
; Line 400
  0001d	06		 ldloc.0 	; $T74905
  0001e	2a		 ret 
 .end ??C?$_com_ptr_t@V?$_com_IIID@UIUlsInfo@SPULS@@$1?_GUID_ed1ed747_b451_3bdc_998c_dc70841fb411@@3U__s_GUID@@B@@@@$$FQEBAPEAUIUlsInfo@SPULS@@XZ ; _com_ptr_t<_com_IIID<SPULS::IUlsInfo,&_GUID_ed1ed747_b451_3bdc_998c_dc70841fb411> >::operator->
;	.proc.end.i8
_TEXT	ENDS
PUBLIC	__mep@??C?$_com_ptr_t@V?$_com_IIID@UIUlsInfo@SPULS@@$1?_GUID_ed1ed747_b451_3bdc_998c_dc70841fb411@@3U__s_GUID@@B@@@@$$FQEBAPEAUIUlsInfo@SPULS@@XZ
PUBLIC	__m2mep@??C?$_com_ptr_t@V?$_com_IIID@UIUlsInfo@SPULS@@$1?_GUID_ed1ed747_b451_3bdc_998c_dc70841fb411@@3U__s_GUID@@B@@@@$$FQEBAPEAUIUlsInfo@SPULS@@XZ
PUBLIC	__t2m@??C?$_com_ptr_t@V?$_com_IIID@UIUlsInfo@SPULS@@$1?_GUID_ed1ed747_b451_3bdc_998c_dc70841fb411@@3U__s_GUID@@B@@@@QEBAPEAUIUlsInfo@SPULS@@XZ
;	COMDAT __mep@??C?$_com_ptr_t@V?$_com_IIID@UIUlsInfo@SPULS@@$1?_GUID_ed1ed747_b451_3bdc_998c_dc70841fb411@@3U__s_GUID@@B@@@@$$FQEBAPEAUIUlsInfo@SPULS@@XZ
data	SEGMENT
__mep@??C?$_com_ptr_t@V?$_com_IIID@UIUlsInfo@SPULS@@$1?_GUID_ed1ed747_b451_3bdc_998c_dc70841fb411@@3U__s_GUID@@B@@@@$$FQEBAPEAUIUlsInfo@SPULS@@XZ TOKEN 0A000049
data	ENDS
;	COMDAT __m2mep@??C?$_com_ptr_t@V?$_com_IIID@UIUlsInfo@SPULS@@$1?_GUID_ed1ed747_b451_3bdc_998c_dc70841fb411@@3U__s_GUID@@B@@@@$$FQEBAPEAUIUlsInfo@SPULS@@XZ
data	SEGMENT
__m2mep@??C?$_com_ptr_t@V?$_com_IIID@UIUlsInfo@SPULS@@$1?_GUID_ed1ed747_b451_3bdc_998c_dc70841fb411@@3U__s_GUID@@B@@@@$$FQEBAPEAUIUlsInfo@SPULS@@XZ DD FLAT:??C?$_com_ptr_t@V?$_com_IIID@UIUlsInfo@SPULS@@$1?_GUID_ed1ed747_b451_3bdc_998c_dc70841fb411@@3U__s_GUID@@B@@@@$$FQEBAPEAUIUlsInfo@SPULS@@XZ
; Function compile flags: /Odtp
data	ENDS
;	COMDAT nep
_TEXT	SEGMENT
__t2m@??C?$_com_ptr_t@V?$_com_IIID@UIUlsInfo@SPULS@@$1?_GUID_ed1ed747_b451_3bdc_998c_dc70841fb411@@3U__s_GUID@@B@@@@QEBAPEAUIUlsInfo@SPULS@@XZ PROC ; COMDAT
  00000	eb 08		 jmp	 SHORT $LN1@
  00002	0f 0b		 ud2
$LN2@:
  00004	ff 25 00 00 00
	00		 jmp	 QWORD PTR __m2mep@??C?$_com_ptr_t@V?$_com_IIID@UIUlsInfo@SPULS@@$1?_GUID_ed1ed747_b451_3bdc_998c_dc70841fb411@@3U__s_GUID@@B@@@@$$FQEBAPEAUIUlsInfo@SPULS@@XZ
$LN1@:
  0000a	ff 25 00 00 00
	00		 jmp	 QWORD PTR __mep@??C?$_com_ptr_t@V?$_com_IIID@UIUlsInfo@SPULS@@$1?_GUID_ed1ed747_b451_3bdc_998c_dc70841fb411@@3U__s_GUID@@B@@@@$$FQEBAPEAUIUlsInfo@SPULS@@XZ
__t2m@??C?$_com_ptr_t@V?$_com_IIID@UIUlsInfo@SPULS@@$1?_GUID_ed1ed747_b451_3bdc_998c_dc70841fb411@@3U__s_GUID@@B@@@@QEBAPEAUIUlsInfo@SPULS@@XZ ENDP
.global	
	.bss
.local	,4
; Function compile flags: /Odtp
	.text
	.comdat	any, ?_Release@?$_com_ptr_t@V?$_com_IIID@UIUlsInfo@SPULS@@$1?_GUID_ed1ed747_b451_3bdc_998c_dc70841fb411@@3U__s_GUID@@B@@@@$$FAEAAXXZ
.global	?_Release@?$_com_ptr_t@V?$_com_IIID@UIUlsInfo@SPULS@@$1?_GUID_ed1ed747_b451_3bdc_998c_dc70841fb411@@3U__s_GUID@@B@@@@$$FAEAAXXZ ; _com_ptr_t<_com_IIID<SPULS::IUlsInfo,&_GUID_ed1ed747_b451_3bdc_998c_dc70841fb411> >::_Release
?_Release@?$_com_ptr_t@V?$_com_IIID@UIUlsInfo@SPULS@@$1?_GUID_ed1ed747_b451_3bdc_998c_dc70841fb411@@3U__s_GUID@@B@@@@$$FAEAAXXZ: ; _com_ptr_t<_com_IIID<SPULS::IUlsInfo,&_GUID_ed1ed747_b451_3bdc_998c_dc70841fb411> >::_Release
;	.proc.def	D:V(J)

; Function Header:
; max stack depth = 3
; function size = 21 bytes
; local varsig tk = 0x0 
; Exception Information:
; 0 handlers, each consisting of filtered handlers

;	.formal.i8 0,"this$" SIG: Optional C Binding Modifier(token:0x52DA261).Optional C Binding Modifier(token:0x52DA263).ptr.valueType (token:0x52DA266)

;	.proc.beg
; Line 823
  0000b	02		 ldarg.0 	; this$
  0000c	4c		 ldind.i8 
  0000d	2c 11		 brfalse.s $LN2@Release
; Line 824
  0000f	02		 ldarg.0 	; this$
  00010	4c		 ldind.i8 
  00011	02		 ldarg.0 	; this$
  00012	4c		 ldind.i8 
  00013	4c		 ldind.i8 
  00014	1f 10		 ldc.i4.s 16	; i64 0x10
  00016	6a		 conv.i8 
  00017	58		 add 
  00018	4c		 ldind.i8 
  00019	29 00 00 00 00	 calli D:I(J)
  0001e	26		 pop 
$LN2@Release:
; Line 826
  00020	2a		 ret 
 .end ?_Release@?$_com_ptr_t@V?$_com_IIID@UIUlsInfo@SPULS@@$1?_GUID_ed1ed747_b451_3bdc_998c_dc70841fb411@@3U__s_GUID@@B@@@@$$FAEAAXXZ ; _com_ptr_t<_com_IIID<SPULS::IUlsInfo,&_GUID_ed1ed747_b451_3bdc_998c_dc70841fb411> >::_Release
;	.proc.end.void
_TEXT	ENDS
PUBLIC	__mep@?_Release@?$_com_ptr_t@V?$_com_IIID@UIUlsInfo@SPULS@@$1?_GUID_ed1ed747_b451_3bdc_998c_dc70841fb411@@3U__s_GUID@@B@@@@$$FAEAAXXZ
PUBLIC	__m2mep@?_Release@?$_com_ptr_t@V?$_com_IIID@UIUlsInfo@SPULS@@$1?_GUID_ed1ed747_b451_3bdc_998c_dc70841fb411@@3U__s_GUID@@B@@@@$$FAEAAXXZ
PUBLIC	__t2m@?_Release@?$_com_ptr_t@V?$_com_IIID@UIUlsInfo@SPULS@@$1?_GUID_ed1ed747_b451_3bdc_998c_dc70841fb411@@3U__s_GUID@@B@@@@AEAAXXZ
;	COMDAT __mep@?_Release@?$_com_ptr_t@V?$_com_IIID@UIUlsInfo@SPULS@@$1?_GUID_ed1ed747_b451_3bdc_998c_dc70841fb411@@3U__s_GUID@@B@@@@$$FAEAAXXZ
data	SEGMENT
__mep@?_Release@?$_com_ptr_t@V?$_com_IIID@UIUlsInfo@SPULS@@$1?_GUID_ed1ed747_b451_3bdc_998c_dc70841fb411@@3U__s_GUID@@B@@@@$$FAEAAXXZ TOKEN 0A00004B
data	ENDS
;	COMDAT __m2mep@?_Release@?$_com_ptr_t@V?$_com_IIID@UIUlsInfo@SPULS@@$1?_GUID_ed1ed747_b451_3bdc_998c_dc70841fb411@@3U__s_GUID@@B@@@@$$FAEAAXXZ
data	SEGMENT
__m2mep@?_Release@?$_com_ptr_t@V?$_com_IIID@UIUlsInfo@SPULS@@$1?_GUID_ed1ed747_b451_3bdc_998c_dc70841fb411@@3U__s_GUID@@B@@@@$$FAEAAXXZ DD FLAT:?_Release@?$_com_ptr_t@V?$_com_IIID@UIUlsInfo@SPULS@@$1?_GUID_ed1ed747_b451_3bdc_998c_dc70841fb411@@3U__s_GUID@@B@@@@$$FAEAAXXZ
; Function compile flags: /Odtp
data	ENDS
;	COMDAT nep
_TEXT	SEGMENT
__t2m@?_Release@?$_com_ptr_t@V?$_com_IIID@UIUlsInfo@SPULS@@$1?_GUID_ed1ed747_b451_3bdc_998c_dc70841fb411@@3U__s_GUID@@B@@@@AEAAXXZ PROC ; COMDAT
  00000	eb 08		 jmp	 SHORT $LN1@
  00002	0f 0b		 ud2
$LN2@:
  00004	ff 25 00 00 00
	00		 jmp	 QWORD PTR __m2mep@?_Release@?$_com_ptr_t@V?$_com_IIID@UIUlsInfo@SPULS@@$1?_GUID_ed1ed747_b451_3bdc_998c_dc70841fb411@@3U__s_GUID@@B@@@@$$FAEAAXXZ
$LN1@:
  0000a	ff 25 00 00 00
	00		 jmp	 QWORD PTR __mep@?_Release@?$_com_ptr_t@V?$_com_IIID@UIUlsInfo@SPULS@@$1?_GUID_ed1ed747_b451_3bdc_998c_dc70841fb411@@3U__s_GUID@@B@@@@$$FAEAAXXZ
__t2m@?_Release@?$_com_ptr_t@V?$_com_IIID@UIUlsInfo@SPULS@@$1?_GUID_ed1ed747_b451_3bdc_998c_dc70841fb411@@3U__s_GUID@@B@@@@AEAAXXZ ENDP
.global	_GUID_ed1ed747_b451_3bdc_998c_dc70841fb411
	.bss
.local	$T74928,0
	.rdata
	.comdat	any, _GUID_ed1ed747_b451_3bdc_998c_dc70841fb411

_GUID_ed1ed747_b451_3bdc_998c_dc70841fb411:
	.word	0xed1ed747
	.short	0xb451
	.short	0x3bdc
	.byte	0x99
	.byte	0x8c
	.byte	0xdc
	.byte	0x70
	.byte	0x84
	.byte	0x1f
	.byte	0xb4
	.byte	0x11
; Function compile flags: /Odtp
	.text
	.comdat	any, ?GetIID@?$_com_IIID@UIUlsInfo@SPULS@@$1?_GUID_ed1ed747_b451_3bdc_998c_dc70841fb411@@3U__s_GUID@@B@@$$FSAAEBU_GUID@@XZ
.global	?GetIID@?$_com_IIID@UIUlsInfo@SPULS@@$1?_GUID_ed1ed747_b451_3bdc_998c_dc70841fb411@@3U__s_GUID@@B@@$$FSAAEBU_GUID@@XZ ; _com_IIID<SPULS::IUlsInfo,&_GUID_ed1ed747_b451_3bdc_998c_dc70841fb411>::GetIID
?GetIID@?$_com_IIID@UIUlsInfo@SPULS@@$1?_GUID_ed1ed747_b451_3bdc_998c_dc70841fb411@@3U__s_GUID@@B@@$$FSAAEBU_GUID@@XZ: ; _com_IIID<SPULS::IUlsInfo,&_GUID_ed1ed747_b451_3bdc_998c_dc70841fb411>::GetIID
;	.proc.def	D:J()

; Function Header:
; max stack depth = 1
; function size = 8 bytes
; local varsig tk = 0x11000012 
; Exception Information:
; 0 handlers, each consisting of filtered handlers

;	.local.i8 0,"$T74927" SIG: Optional C Binding Modifier(token:0x52C9C9D).ptr.Optional C Binding Modifier(token:0x52C9CA0).valueType (token:0x52C9CA2)

;	.proc.beg
; Line 56
  0000b	7f 00 00 00 00	 ldsflda _GUID_ed1ed747_b451_3bdc_998c_dc70841fb411
  00010	0a		 stloc.0 	; $T74927
; Line 57
  00011	06		 ldloc.0 	; $T74927
  00012	2a		 ret 
 .end ?GetIID@?$_com_IIID@UIUlsInfo@SPULS@@$1?_GUID_ed1ed747_b451_3bdc_998c_dc70841fb411@@3U__s_GUID@@B@@$$FSAAEBU_GUID@@XZ ; _com_IIID<SPULS::IUlsInfo,&_GUID_ed1ed747_b451_3bdc_998c_dc70841fb411>::GetIID
;	.proc.end.i8
_TEXT	ENDS
PUBLIC	__mep@?GetIID@?$_com_IIID@UIUlsInfo@SPULS@@$1?_GUID_ed1ed747_b451_3bdc_998c_dc70841fb411@@3U__s_GUID@@B@@$$FSAAEBU_GUID@@XZ
PUBLIC	__m2mep@?GetIID@?$_com_IIID@UIUlsInfo@SPULS@@$1?_GUID_ed1ed747_b451_3bdc_998c_dc70841fb411@@3U__s_GUID@@B@@$$FSAAEBU_GUID@@XZ
PUBLIC	__t2m@?GetIID@?$_com_IIID@UIUlsInfo@SPULS@@$1?_GUID_ed1ed747_b451_3bdc_998c_dc70841fb411@@3U__s_GUID@@B@@SAAEBU_GUID@@XZ
;	COMDAT __mep@?GetIID@?$_com_IIID@UIUlsInfo@SPULS@@$1?_GUID_ed1ed747_b451_3bdc_998c_dc70841fb411@@3U__s_GUID@@B@@$$FSAAEBU_GUID@@XZ
data	SEGMENT
__mep@?GetIID@?$_com_IIID@UIUlsInfo@SPULS@@$1?_GUID_ed1ed747_b451_3bdc_998c_dc70841fb411@@3U__s_GUID@@B@@$$FSAAEBU_GUID@@XZ TOKEN 0A00004D
data	ENDS
;	COMDAT __m2mep@?GetIID@?$_com_IIID@UIUlsInfo@SPULS@@$1?_GUID_ed1ed747_b451_3bdc_998c_dc70841fb411@@3U__s_GUID@@B@@$$FSAAEBU_GUID@@XZ
data	SEGMENT
__m2mep@?GetIID@?$_com_IIID@UIUlsInfo@SPULS@@$1?_GUID_ed1ed747_b451_3bdc_998c_dc70841fb411@@3U__s_GUID@@B@@$$FSAAEBU_GUID@@XZ DD FLAT:?GetIID@?$_com_IIID@UIUlsInfo@SPULS@@$1?_GUID_ed1ed747_b451_3bdc_998c_dc70841fb411@@3U__s_GUID@@B@@$$FSAAEBU_GUID@@XZ
; Function compile flags: /Odtp
data	ENDS
;	COMDAT nep
_TEXT	SEGMENT
__t2m@?GetIID@?$_com_IIID@UIUlsInfo@SPULS@@$1?_GUID_ed1ed747_b451_3bdc_998c_dc70841fb411@@3U__s_GUID@@B@@SAAEBU_GUID@@XZ PROC ; COMDAT
  00000	eb 08		 jmp	 SHORT $LN1@
  00002	0f 0b		 ud2
$LN2@:
  00004	ff 25 00 00 00
	00		 jmp	 QWORD PTR __m2mep@?GetIID@?$_com_IIID@UIUlsInfo@SPULS@@$1?_GUID_ed1ed747_b451_3bdc_998c_dc70841fb411@@3U__s_GUID@@B@@$$FSAAEBU_GUID@@XZ
$LN1@:
  0000a	ff 25 00 00 00
	00		 jmp	 QWORD PTR __mep@?GetIID@?$_com_IIID@UIUlsInfo@SPULS@@$1?_GUID_ed1ed747_b451_3bdc_998c_dc70841fb411@@3U__s_GUID@@B@@$$FSAAEBU_GUID@@XZ
__t2m@?GetIID@?$_com_IIID@UIUlsInfo@SPULS@@$1?_GUID_ed1ed747_b451_3bdc_998c_dc70841fb411@@3U__s_GUID@@B@@SAAEBU_GUID@@XZ ENDP
.global	
	.bss
.local	,4
; Function compile flags: /Odtp
	.text
	.comdat	any, ?_AddRef@_bstr_t@@$$FAEAAXXZ
.global	?_AddRef@_bstr_t@@$$FAEAAXXZ			; _bstr_t::_AddRef
?_AddRef@_bstr_t@@$$FAEAAXXZ:				; _bstr_t::_AddRef
;	.proc.def	D:V(J)

; Function Header:
; max stack depth = 1
; function size = 13 bytes
; local varsig tk = 0x0 
; Exception Information:
; 0 handlers, each consisting of filtered handlers

;	.formal.i8 0,"this$" SIG: Optional C Binding Modifier(token:0x45D199).Optional C Binding Modifier(token:0x45D19B).ptr.valueType (token:0x45D19E)

;	.proc.beg
; File c:\program files (x86)\microsoft visual studio 9.0\vc\include\comutil.h
; Line 628
  0000b	02		 ldarg.0 	; this$
  0000c	4c		 ldind.i8 
  0000d	2c 09		 brfalse.s $LN2@AddRef
; Line 629
  0000f	02		 ldarg.0 	; this$
  00010	4c		 ldind.i8 
  00011	28 00 00 00 00	 call ?AddRef@Data_t@_bstr_t@@$$FQEAAKXZ
  00016	26		 pop 
$LN2@AddRef:
; Line 631
  00018	2a		 ret 
 .end ?_AddRef@_bstr_t@@$$FAEAAXXZ			; _bstr_t::_AddRef
;	.proc.end.void
_TEXT	ENDS
PUBLIC	__mep@?_AddRef@_bstr_t@@$$FAEAAXXZ
PUBLIC	__m2mep@?_AddRef@_bstr_t@@$$FAEAAXXZ
PUBLIC	__t2m@?_AddRef@_bstr_t@@AEAAXXZ
;	COMDAT __mep@?_AddRef@_bstr_t@@$$FAEAAXXZ
data	SEGMENT
__mep@?_AddRef@_bstr_t@@$$FAEAAXXZ TOKEN 0A000025
data	ENDS
;	COMDAT __m2mep@?_AddRef@_bstr_t@@$$FAEAAXXZ
data	SEGMENT
__m2mep@?_AddRef@_bstr_t@@$$FAEAAXXZ DD FLAT:?_AddRef@_bstr_t@@$$FAEAAXXZ
; Function compile flags: /Odtp
data	ENDS
;	COMDAT nep
_TEXT	SEGMENT
__t2m@?_AddRef@_bstr_t@@AEAAXXZ PROC			; COMDAT
  00000	eb 08		 jmp	 SHORT $LN1@
  00002	0f 0b		 ud2
$LN2@:
  00004	ff 25 00 00 00
	00		 jmp	 QWORD PTR __m2mep@?_AddRef@_bstr_t@@$$FAEAAXXZ
$LN1@:
  0000a	ff 25 00 00 00
	00		 jmp	 QWORD PTR __mep@?_AddRef@_bstr_t@@$$FAEAAXXZ
__t2m@?_AddRef@_bstr_t@@AEAAXXZ ENDP
; Function compile flags: /Odtp
	.text
	.comdat	any, ??1?$_com_ptr_t@V?$_com_IIID@UIUlsInfo@SPULS@@$1?_GUID_ed1ed747_b451_3bdc_998c_dc70841fb411@@3U__s_GUID@@B@@@@$$FQEAA@XZ
.global	??1?$_com_ptr_t@V?$_com_IIID@UIUlsInfo@SPULS@@$1?_GUID_ed1ed747_b451_3bdc_998c_dc70841fb411@@3U__s_GUID@@B@@@@$$FQEAA@XZ ; _com_ptr_t<_com_IIID<SPULS::IUlsInfo,&_GUID_ed1ed747_b451_3bdc_998c_dc70841fb411> >::~_com_ptr_t<_com_IIID<SPULS::IUlsInfo,&_GUID_ed1ed747_b451_3bdc_998c_dc70841fb411> >
??1?$_com_ptr_t@V?$_com_IIID@UIUlsInfo@SPULS@@$1?_GUID_ed1ed747_b451_3bdc_998c_dc70841fb411@@3U__s_GUID@@B@@@@$$FQEAA@XZ: ; _com_ptr_t<_com_IIID<SPULS::IUlsInfo,&_GUID_ed1ed747_b451_3bdc_998c_dc70841fb411> >::~_com_ptr_t<_com_IIID<SPULS::IUlsInfo,&_GUID_ed1ed747_b451_3bdc_998c_dc70841fb411> >
;	.proc.def	D:V(J)

; Function Header:
; max stack depth = 1
; function size = 7 bytes
; local varsig tk = 0x0 
; Exception Information:
; 0 handlers, each consisting of filtered handlers

;	.formal.i8 0,"this$" SIG: Optional C Binding Modifier(token:0x52DA261).Optional C Binding Modifier(token:0x52DA263).ptr.valueType (token:0x52DA266)

;	.proc.beg
; File c:\program files (x86)\microsoft visual studio 9.0\vc\include\comip.h
; Line 309
  0000b	02		 ldarg.0 	; this$
  0000c	28 00 00 00 00	 call ?_Release@?$_com_ptr_t@V?$_com_IIID@UIUlsInfo@SPULS@@$1?_GUID_ed1ed747_b451_3bdc_998c_dc70841fb411@@3U__s_GUID@@B@@@@$$FAEAAXXZ
; Line 310
  00011	2a		 ret 
 .end ??1?$_com_ptr_t@V?$_com_IIID@UIUlsInfo@SPULS@@$1?_GUID_ed1ed747_b451_3bdc_998c_dc70841fb411@@3U__s_GUID@@B@@@@$$FQEAA@XZ ; _com_ptr_t<_com_IIID<SPULS::IUlsInfo,&_GUID_ed1ed747_b451_3bdc_998c_dc70841fb411> >::~_com_ptr_t<_com_IIID<SPULS::IUlsInfo,&_GUID_ed1ed747_b451_3bdc_998c_dc70841fb411> >
;	.proc.end.void
_TEXT	ENDS
PUBLIC	__mep@??1?$_com_ptr_t@V?$_com_IIID@UIUlsInfo@SPULS@@$1?_GUID_ed1ed747_b451_3bdc_998c_dc70841fb411@@3U__s_GUID@@B@@@@$$FQEAA@XZ
PUBLIC	__m2mep@??1?$_com_ptr_t@V?$_com_IIID@UIUlsInfo@SPULS@@$1?_GUID_ed1ed747_b451_3bdc_998c_dc70841fb411@@3U__s_GUID@@B@@@@$$FQEAA@XZ
PUBLIC	__t2m@??1?$_com_ptr_t@V?$_com_IIID@UIUlsInfo@SPULS@@$1?_GUID_ed1ed747_b451_3bdc_998c_dc70841fb411@@3U__s_GUID@@B@@@@QEAA@XZ
;	COMDAT __mep@??1?$_com_ptr_t@V?$_com_IIID@UIUlsInfo@SPULS@@$1?_GUID_ed1ed747_b451_3bdc_998c_dc70841fb411@@3U__s_GUID@@B@@@@$$FQEAA@XZ
data	SEGMENT
__mep@??1?$_com_ptr_t@V?$_com_IIID@UIUlsInfo@SPULS@@$1?_GUID_ed1ed747_b451_3bdc_998c_dc70841fb411@@3U__s_GUID@@B@@@@$$FQEAA@XZ TOKEN 0A000048
data	ENDS
;	COMDAT __m2mep@??1?$_com_ptr_t@V?$_com_IIID@UIUlsInfo@SPULS@@$1?_GUID_ed1ed747_b451_3bdc_998c_dc70841fb411@@3U__s_GUID@@B@@@@$$FQEAA@XZ
data	SEGMENT
__m2mep@??1?$_com_ptr_t@V?$_com_IIID@UIUlsInfo@SPULS@@$1?_GUID_ed1ed747_b451_3bdc_998c_dc70841fb411@@3U__s_GUID@@B@@@@$$FQEAA@XZ DD FLAT:??1?$_com_ptr_t@V?$_com_IIID@UIUlsInfo@SPULS@@$1?_GUID_ed1ed747_b451_3bdc_998c_dc70841fb411@@3U__s_GUID@@B@@@@$$FQEAA@XZ
; Function compile flags: /Odtp
data	ENDS
;	COMDAT nep
_TEXT	SEGMENT
__t2m@??1?$_com_ptr_t@V?$_com_IIID@UIUlsInfo@SPULS@@$1?_GUID_ed1ed747_b451_3bdc_998c_dc70841fb411@@3U__s_GUID@@B@@@@QEAA@XZ PROC ; COMDAT
  00000	eb 08		 jmp	 SHORT $LN1@
  00002	0f 0b		 ud2
$LN2@:
  00004	ff 25 00 00 00
	00		 jmp	 QWORD PTR __m2mep@??1?$_com_ptr_t@V?$_com_IIID@UIUlsInfo@SPULS@@$1?_GUID_ed1ed747_b451_3bdc_998c_dc70841fb411@@3U__s_GUID@@B@@@@$$FQEAA@XZ
$LN1@:
  0000a	ff 25 00 00 00
	00		 jmp	 QWORD PTR __mep@??1?$_com_ptr_t@V?$_com_IIID@UIUlsInfo@SPULS@@$1?_GUID_ed1ed747_b451_3bdc_998c_dc70841fb411@@3U__s_GUID@@B@@@@$$FQEAA@XZ
__t2m@??1?$_com_ptr_t@V?$_com_IIID@UIUlsInfo@SPULS@@$1?_GUID_ed1ed747_b451_3bdc_998c_dc70841fb411@@3U__s_GUID@@B@@@@QEAA@XZ ENDP
	.bss
.local	$T74958,0
; Function compile flags: /Odtp
	.text
	.comdat	any, ?GetIID@?$_com_ptr_t@V?$_com_IIID@UIUlsInfo@SPULS@@$1?_GUID_ed1ed747_b451_3bdc_998c_dc70841fb411@@3U__s_GUID@@B@@@@$$FSAAEBU_GUID@@XZ
.global	?GetIID@?$_com_ptr_t@V?$_com_IIID@UIUlsInfo@SPULS@@$1?_GUID_ed1ed747_b451_3bdc_998c_dc70841fb411@@3U__s_GUID@@B@@@@$$FSAAEBU_GUID@@XZ ; _com_ptr_t<_com_IIID<SPULS::IUlsInfo,&_GUID_ed1ed747_b451_3bdc_998c_dc70841fb411> >::GetIID
?GetIID@?$_com_ptr_t@V?$_com_IIID@UIUlsInfo@SPULS@@$1?_GUID_ed1ed747_b451_3bdc_998c_dc70841fb411@@3U__s_GUID@@B@@@@$$FSAAEBU_GUID@@XZ: ; _com_ptr_t<_com_IIID<SPULS::IUlsInfo,&_GUID_ed1ed747_b451_3bdc_998c_dc70841fb411> >::GetIID
;	.proc.def	D:J()

; Function Header:
; max stack depth = 1
; function size = 8 bytes
; local varsig tk = 0x11000012 
; Exception Information:
; 0 handlers, each consisting of filtered handlers

;	.local.i8 0,"$T74957" SIG: Optional C Binding Modifier(token:0x52C8F35).ptr.Optional C Binding Modifier(token:0x52C8F38).valueType (token:0x52C8F3A)

;	.proc.beg
; Line 75
  0000b	28 00 00 00 00	 call ?GetIID@?$_com_IIID@UIUlsInfo@SPULS@@$1?_GUID_ed1ed747_b451_3bdc_998c_dc70841fb411@@3U__s_GUID@@B@@$$FSAAEBU_GUID@@XZ
  00010	0a		 stloc.0 	; $T74957
; Line 76
  00011	06		 ldloc.0 	; $T74957
  00012	2a		 ret 
 .end ?GetIID@?$_com_ptr_t@V?$_com_IIID@UIUlsInfo@SPULS@@$1?_GUID_ed1ed747_b451_3bdc_998c_dc70841fb411@@3U__s_GUID@@B@@@@$$FSAAEBU_GUID@@XZ ; _com_ptr_t<_com_IIID<SPULS::IUlsInfo,&_GUID_ed1ed747_b451_3bdc_998c_dc70841fb411> >::GetIID
;	.proc.end.i8
_TEXT	ENDS
PUBLIC	__mep@?GetIID@?$_com_ptr_t@V?$_com_IIID@UIUlsInfo@SPULS@@$1?_GUID_ed1ed747_b451_3bdc_998c_dc70841fb411@@3U__s_GUID@@B@@@@$$FSAAEBU_GUID@@XZ
PUBLIC	__m2mep@?GetIID@?$_com_ptr_t@V?$_com_IIID@UIUlsInfo@SPULS@@$1?_GUID_ed1ed747_b451_3bdc_998c_dc70841fb411@@3U__s_GUID@@B@@@@$$FSAAEBU_GUID@@XZ
PUBLIC	__t2m@?GetIID@?$_com_ptr_t@V?$_com_IIID@UIUlsInfo@SPULS@@$1?_GUID_ed1ed747_b451_3bdc_998c_dc70841fb411@@3U__s_GUID@@B@@@@SAAEBU_GUID@@XZ
;	COMDAT __mep@?GetIID@?$_com_ptr_t@V?$_com_IIID@UIUlsInfo@SPULS@@$1?_GUID_ed1ed747_b451_3bdc_998c_dc70841fb411@@3U__s_GUID@@B@@@@$$FSAAEBU_GUID@@XZ
data	SEGMENT
__mep@?GetIID@?$_com_ptr_t@V?$_com_IIID@UIUlsInfo@SPULS@@$1?_GUID_ed1ed747_b451_3bdc_998c_dc70841fb411@@3U__s_GUID@@B@@@@$$FSAAEBU_GUID@@XZ TOKEN 0A00004C
data	ENDS
;	COMDAT __m2mep@?GetIID@?$_com_ptr_t@V?$_com_IIID@UIUlsInfo@SPULS@@$1?_GUID_ed1ed747_b451_3bdc_998c_dc70841fb411@@3U__s_GUID@@B@@@@$$FSAAEBU_GUID@@XZ
data	SEGMENT
__m2mep@?GetIID@?$_com_ptr_t@V?$_com_IIID@UIUlsInfo@SPULS@@$1?_GUID_ed1ed747_b451_3bdc_998c_dc70841fb411@@3U__s_GUID@@B@@@@$$FSAAEBU_GUID@@XZ DD FLAT:?GetIID@?$_com_ptr_t@V?$_com_IIID@UIUlsInfo@SPULS@@$1?_GUID_ed1ed747_b451_3bdc_998c_dc70841fb411@@3U__s_GUID@@B@@@@$$FSAAEBU_GUID@@XZ
; Function compile flags: /Odtp
data	ENDS
;	COMDAT nep
_TEXT	SEGMENT
__t2m@?GetIID@?$_com_ptr_t@V?$_com_IIID@UIUlsInfo@SPULS@@$1?_GUID_ed1ed747_b451_3bdc_998c_dc70841fb411@@3U__s_GUID@@B@@@@SAAEBU_GUID@@XZ PROC ; COMDAT
  00000	eb 08		 jmp	 SHORT $LN1@
  00002	0f 0b		 ud2
$LN2@:
  00004	ff 25 00 00 00
	00		 jmp	 QWORD PTR __m2mep@?GetIID@?$_com_ptr_t@V?$_com_IIID@UIUlsInfo@SPULS@@$1?_GUID_ed1ed747_b451_3bdc_998c_dc70841fb411@@3U__s_GUID@@B@@@@$$FSAAEBU_GUID@@XZ
$LN1@:
  0000a	ff 25 00 00 00
	00		 jmp	 QWORD PTR __mep@?GetIID@?$_com_ptr_t@V?$_com_IIID@UIUlsInfo@SPULS@@$1?_GUID_ed1ed747_b451_3bdc_998c_dc70841fb411@@3U__s_GUID@@B@@@@$$FSAAEBU_GUID@@XZ
__t2m@?GetIID@?$_com_ptr_t@V?$_com_IIID@UIUlsInfo@SPULS@@$1?_GUID_ed1ed747_b451_3bdc_998c_dc70841fb411@@3U__s_GUID@@B@@@@SAAEBU_GUID@@XZ ENDP
.global	
	.bss
.local	,4
; Function compile flags: /Odtp
	.text
	.comdat	any, ??0_bstr_t@@$$FQEAA@AEBV0@@Z
.global	??0_bstr_t@@$$FQEAA@AEBV0@@Z			; _bstr_t::_bstr_t
??0_bstr_t@@$$FQEAA@AEBV0@@Z:				; _bstr_t::_bstr_t
;	.proc.def	D:J(JJ)

; Function Header:
; max stack depth = 2
; function size = 12 bytes
; local varsig tk = 0x0 
; Exception Information:
; 0 handlers, each consisting of filtered handlers

;	.formal.i8 1,"s$" SIG: Optional C Binding Modifier(token:0x45551D).ptr.Optional C Binding Modifier(token:0x455520).valueType (token:0x455522)
;	.formal.i8 0,"this$" SIG: Optional C Binding Modifier(token:0x45D199).Optional C Binding Modifier(token:0x45D19B).ptr.valueType (token:0x45D19E)

;	.proc.beg
; File c:\program files (x86)\microsoft visual studio 9.0\vc\include\comutil.h
; Line 304
  0000b	02		 ldarg.0 	; this$
  0000c	03		 ldarg.1 	; s$
  0000d	4c		 ldind.i8 
  0000e	55		 stind.i8 
; Line 305
  0000f	02		 ldarg.0 	; this$
  00010	28 00 00 00 00	 call ?_AddRef@_bstr_t@@$$FAEAAXXZ
; Line 306
  00015	02		 ldarg.0 	; this$
  00016	2a		 ret 
 .end ??0_bstr_t@@$$FQEAA@AEBV0@@Z			; _bstr_t::_bstr_t
;	.proc.end.i8
_TEXT	ENDS
PUBLIC	__mep@??0_bstr_t@@$$FQEAA@AEBV0@@Z
PUBLIC	__m2mep@??0_bstr_t@@$$FQEAA@AEBV0@@Z
PUBLIC	__t2m@??0_bstr_t@@QEAA@AEBV0@@Z
;	COMDAT __mep@??0_bstr_t@@$$FQEAA@AEBV0@@Z
data	SEGMENT
__mep@??0_bstr_t@@$$FQEAA@AEBV0@@Z TOKEN 0A000017
data	ENDS
;	COMDAT __m2mep@??0_bstr_t@@$$FQEAA@AEBV0@@Z
data	SEGMENT
__m2mep@??0_bstr_t@@$$FQEAA@AEBV0@@Z DD FLAT:??0_bstr_t@@$$FQEAA@AEBV0@@Z
; Function compile flags: /Odtp
data	ENDS
;	COMDAT nep
_TEXT	SEGMENT
__t2m@??0_bstr_t@@QEAA@AEBV0@@Z PROC			; COMDAT
  00000	eb 08		 jmp	 SHORT $LN1@
  00002	0f 0b		 ud2
$LN2@:
  00004	ff 25 00 00 00
	00		 jmp	 QWORD PTR __m2mep@??0_bstr_t@@$$FQEAA@AEBV0@@Z
$LN1@:
  0000a	ff 25 00 00 00
	00		 jmp	 QWORD PTR __mep@??0_bstr_t@@$$FQEAA@AEBV0@@Z
__t2m@??0_bstr_t@@QEAA@AEBV0@@Z ENDP
.global	_GUID_00000000_0000_0000_c000_000000000046
.global	
.global	
.global	
	.bss
.local	$T74982,0
.local	$SigTok$$$A8IUnknown@@EAAJPEBU_GUID@@PEAPEAX@Z,4
.local	,4
.local	,4
.local	,4
; File c:\program files (x86)\microsoft visual studio 9.0\vc\include\comip.h
	.rdata
	.comdat	any, _GUID_00000000_0000_0000_c000_000000000046

_GUID_00000000_0000_0000_c000_000000000046:
	.word	0x0
	.short	0x0
	.short	0x0
	.byte	0xc0
	.byte	0x0
	.byte	0x0
	.byte	0x0
	.byte	0x0
	.byte	0x0
	.byte	0x0
	.byte	0x46
; Function compile flags: /Odtp
	.text
	.comdat	any, ?CreateInstance@?$_com_ptr_t@V?$_com_IIID@UIUlsInfo@SPULS@@$1?_GUID_ed1ed747_b451_3bdc_998c_dc70841fb411@@3U__s_GUID@@B@@@@$$FQEAAJAEBU_GUID@@PEAUIUnknown@@K@Z
.global	?CreateInstance@?$_com_ptr_t@V?$_com_IIID@UIUlsInfo@SPULS@@$1?_GUID_ed1ed747_b451_3bdc_998c_dc70841fb411@@3U__s_GUID@@B@@@@$$FQEAAJAEBU_GUID@@PEAUIUnknown@@K@Z ; _com_ptr_t<_com_IIID<SPULS::IUlsInfo,&_GUID_ed1ed747_b451_3bdc_998c_dc70841fb411> >::CreateInstance
?CreateInstance@?$_com_ptr_t@V?$_com_IIID@UIUlsInfo@SPULS@@$1?_GUID_ed1ed747_b451_3bdc_998c_dc70841fb411@@3U__s_GUID@@B@@@@$$FQEAAJAEBU_GUID@@PEAUIUnknown@@K@Z: ; _com_ptr_t<_com_IIID<SPULS::IUlsInfo,&_GUID_ed1ed747_b451_3bdc_998c_dc70841fb411> >::CreateInstance
;	.proc.def	D:I(JJJI)

; Function Header:
; max stack depth = 5
; function size = 102 bytes
; local varsig tk = 0x11000018 
; Exception Information:
; 0 handlers, each consisting of filtered handlers

;	.formal.i8 2,"pOuter$" SIG: ptr.valueType (token:0x52D4C5A)
;	.formal.i8 1,"rclsid$" SIG: Optional C Binding Modifier(token:0x52D4F99).ptr.Optional C Binding Modifier(token:0x52D4F9C).valueType (token:0x52D4F9E)
;	.formal.u4 3,"dwClsContext$" SIG: Optional C Binding Modifier(token:0x45F4E9).u4
;	.formal.i8 0,"this$" SIG: Optional C Binding Modifier(token:0x52DA261).Optional C Binding Modifier(token:0x52DA263).ptr.valueType (token:0x52DA266)
;	.local.i4 2,"$T74978" SIG: Optional C Binding Modifier(token:0x52C7B65).i4
;	.local.i4 0,"hr$" SIG: Optional C Binding Modifier(token:0x52CCA59).i4
;	.local.i8 1,"pIUnknown$73808" SIG: ptr.valueType (token:0x52D4C5A)

;	.proc.beg
; Line 624
  0000b	02		 ldarg.0 	; this$
  0000c	28 00 00 00 00	 call ?_Release@?$_com_ptr_t@V?$_com_IIID@UIUlsInfo@SPULS@@$1?_GUID_ed1ed747_b451_3bdc_998c_dc70841fb411@@3U__s_GUID@@B@@@@$$FAEAAXXZ
; Line 626
  00011	05		 ldarg.3 	; dwClsContext$
  00012	1f 14		 ldc.i4.s 20	; u32 0x14
  00014	5f		 and 
  00015	2c 40		 brfalse.s $LN5@CreateInst
; Line 628
  00017	03		 ldarg.1 	; rclsid$
  00018	04		 ldarg.2 	; pOuter$
  00019	05		 ldarg.3 	; dwClsContext$
  0001a	7f 00 00 00 00	 ldsflda _GUID_00000000_0000_0000_c000_000000000046
  0001f	12 01		 ldloca.s 1	; pIUnknown$73808
  00021	28 00 00 00 00	 call ?CoCreateInstance@@$$J0YAJAEBU_GUID@@PEAUIUnknown@@K0PEAPEAX@Z
  00026	0a		 stloc.0 	; hr$
; Line 630
  00027	06		 ldloc.0 	; hr$
  00028	16		 ldc.i.0 0	; i32 0x0
  00029	32 2a		 blt.s $LN4@CreateInst
; Line 631
  0002b	07		 ldloc.1 	; pIUnknown$73808
  0002c	28 00 00 00 00	 call ?OleRun@@$$J0YAJPEAUIUnknown@@@Z
  00031	0a		 stloc.0 	; hr$
; Line 633
  00032	06		 ldloc.0 	; hr$
  00033	16		 ldc.i.0 0	; i32 0x0
  00034	32 11		 blt.s $LN3@CreateInst
; Line 634
  00036	07		 ldloc.1 	; pIUnknown$73808
  00037	28 00 00 00 00	 call ?GetIID@?$_com_ptr_t@V?$_com_IIID@UIUlsInfo@SPULS@@$1?_GUID_ed1ed747_b451_3bdc_998c_dc70841fb411@@3U__s_GUID@@B@@@@$$FSAAEBU_GUID@@XZ
  0003c	02		 ldarg.0 	; this$
  0003d	07		 ldloc.1 	; pIUnknown$73808
  0003e	4c		 ldind.i8 
  0003f	4c		 ldind.i8 
  00040	29 00 00 00 00	 calli D:I(JJJ)
  00045	0a		 stloc.0 	; hr$
$LN3@CreateInst:
; Line 637
  00047	07		 ldloc.1 	; pIUnknown$73808
  00048	25		 dup 
  00049	4c		 ldind.i8 
  0004a	1f 10		 ldc.i4.s 16	; i64 0x10
  0004c	6a		 conv.i8 
  0004d	58		 add 
  0004e	4c		 ldind.i8 
  0004f	29 00 00 00 00	 calli D:I(J)
  00054	26		 pop 
$LN4@CreateInst:
; Line 640
  00055	2b 0f		 br.s $LN2@CreateInst
$LN5@CreateInst:
; Line 641
  00057	03		 ldarg.1 	; rclsid$
  00058	04		 ldarg.2 	; pOuter$
  00059	05		 ldarg.3 	; dwClsContext$
  0005a	28 00 00 00 00	 call ?GetIID@?$_com_ptr_t@V?$_com_IIID@UIUlsInfo@SPULS@@$1?_GUID_ed1ed747_b451_3bdc_998c_dc70841fb411@@3U__s_GUID@@B@@@@$$FSAAEBU_GUID@@XZ
  0005f	02		 ldarg.0 	; this$
  00060	28 00 00 00 00	 call ?CoCreateInstance@@$$J0YAJAEBU_GUID@@PEAUIUnknown@@K0PEAPEAX@Z
  00065	0a		 stloc.0 	; hr$
$LN2@CreateInst:
; Line 644
  00066	06		 ldloc.0 	; hr$
  00067	16		 ldc.i.0 0	; i32 0x0
  00068	2f 04		 bge.s $LN1@CreateInst
; Line 646
  0006a	02		 ldarg.0 	; this$
  0006b	16		 ldc.i.0 0	; i64 0x0
  0006c	6a		 conv.i8 
  0006d	55		 stind.i8 
$LN1@CreateInst:
; Line 649
  0006e	06		 ldloc.0 	; hr$
  0006f	0c		 stloc.2 	; $T74978
; Line 650
  00070	08		 ldloc.2 	; $T74978
  00071	2a		 ret 
 .end ?CreateInstance@?$_com_ptr_t@V?$_com_IIID@UIUlsInfo@SPULS@@$1?_GUID_ed1ed747_b451_3bdc_998c_dc70841fb411@@3U__s_GUID@@B@@@@$$FQEAAJAEBU_GUID@@PEAUIUnknown@@K@Z ; _com_ptr_t<_com_IIID<SPULS::IUlsInfo,&_GUID_ed1ed747_b451_3bdc_998c_dc70841fb411> >::CreateInstance
;	.proc.end.i4
_TEXT	ENDS
PUBLIC	__mep@?CreateInstance@?$_com_ptr_t@V?$_com_IIID@UIUlsInfo@SPULS@@$1?_GUID_ed1ed747_b451_3bdc_998c_dc70841fb411@@3U__s_GUID@@B@@@@$$FQEAAJAEBU_GUID@@PEAUIUnknown@@K@Z
PUBLIC	__m2mep@?CreateInstance@?$_com_ptr_t@V?$_com_IIID@UIUlsInfo@SPULS@@$1?_GUID_ed1ed747_b451_3bdc_998c_dc70841fb411@@3U__s_GUID@@B@@@@$$FQEAAJAEBU_GUID@@PEAUIUnknown@@K@Z
PUBLIC	__t2m@?CreateInstance@?$_com_ptr_t@V?$_com_IIID@UIUlsInfo@SPULS@@$1?_GUID_ed1ed747_b451_3bdc_998c_dc70841fb411@@3U__s_GUID@@B@@@@QEAAJAEBU_GUID@@PEAUIUnknown@@K@Z
;	COMDAT __mep@?CreateInstance@?$_com_ptr_t@V?$_com_IIID@UIUlsInfo@SPULS@@$1?_GUID_ed1ed747_b451_3bdc_998c_dc70841fb411@@3U__s_GUID@@B@@@@$$FQEAAJAEBU_GUID@@PEAUIUnknown@@K@Z
data	SEGMENT
__mep@?CreateInstance@?$_com_ptr_t@V?$_com_IIID@UIUlsInfo@SPULS@@$1?_GUID_ed1ed747_b451_3bdc_998c_dc70841fb411@@3U__s_GUID@@B@@@@$$FQEAAJAEBU_GUID@@PEAUIUnknown@@K@Z TOKEN 0A00004A
data	ENDS
;	COMDAT __m2mep@?CreateInstance@?$_com_ptr_t@V?$_com_IIID@UIUlsInfo@SPULS@@$1?_GUID_ed1ed747_b451_3bdc_998c_dc70841fb411@@3U__s_GUID@@B@@@@$$FQEAAJAEBU_GUID@@PEAUIUnknown@@K@Z
data	SEGMENT
__m2mep@?CreateInstance@?$_com_ptr_t@V?$_com_IIID@UIUlsInfo@SPULS@@$1?_GUID_ed1ed747_b451_3bdc_998c_dc70841fb411@@3U__s_GUID@@B@@@@$$FQEAAJAEBU_GUID@@PEAUIUnknown@@K@Z DD FLAT:?CreateInstance@?$_com_ptr_t@V?$_com_IIID@UIUlsInfo@SPULS@@$1?_GUID_ed1ed747_b451_3bdc_998c_dc70841fb411@@3U__s_GUID@@B@@@@$$FQEAAJAEBU_GUID@@PEAUIUnknown@@K@Z
; Function compile flags: /Odtp
data	ENDS
;	COMDAT nep
_TEXT	SEGMENT
__t2m@?CreateInstance@?$_com_ptr_t@V?$_com_IIID@UIUlsInfo@SPULS@@$1?_GUID_ed1ed747_b451_3bdc_998c_dc70841fb411@@3U__s_GUID@@B@@@@QEAAJAEBU_GUID@@PEAUIUnknown@@K@Z PROC ; COMDAT
  00000	eb 08		 jmp	 SHORT $LN1@
  00002	0f 0b		 ud2
$LN2@:
  00004	ff 25 00 00 00
	00		 jmp	 QWORD PTR __m2mep@?CreateInstance@?$_com_ptr_t@V?$_com_IIID@UIUlsInfo@SPULS@@$1?_GUID_ed1ed747_b451_3bdc_998c_dc70841fb411@@3U__s_GUID@@B@@@@$$FQEAAJAEBU_GUID@@PEAUIUnknown@@K@Z
$LN1@:
  0000a	ff 25 00 00 00
	00		 jmp	 QWORD PTR __mep@?CreateInstance@?$_com_ptr_t@V?$_com_IIID@UIUlsInfo@SPULS@@$1?_GUID_ed1ed747_b451_3bdc_998c_dc70841fb411@@3U__s_GUID@@B@@@@$$FQEAAJAEBU_GUID@@PEAUIUnknown@@K@Z
__t2m@?CreateInstance@?$_com_ptr_t@V?$_com_IIID@UIUlsInfo@SPULS@@$1?_GUID_ed1ed747_b451_3bdc_998c_dc70841fb411@@3U__s_GUID@@B@@@@QEAAJAEBU_GUID@@PEAUIUnknown@@K@Z ENDP
	.bss
.local	$T74993,0
; Function compile flags: /Odtp
	.text
	.comdat	any, ??0?$_com_ptr_t@V?$_com_IIID@UIUlsInfo@SPULS@@$1?_GUID_ed1ed747_b451_3bdc_998c_dc70841fb411@@3U__s_GUID@@B@@@@$$FQEAA@AEBU_GUID@@PEAUIUnknown@@K@Z
.global	??0?$_com_ptr_t@V?$_com_IIID@UIUlsInfo@SPULS@@$1?_GUID_ed1ed747_b451_3bdc_998c_dc70841fb411@@3U__s_GUID@@B@@@@$$FQEAA@AEBU_GUID@@PEAUIUnknown@@K@Z ; _com_ptr_t<_com_IIID<SPULS::IUlsInfo,&_GUID_ed1ed747_b451_3bdc_998c_dc70841fb411> >::_com_ptr_t<_com_IIID<SPULS::IUlsInfo,&_GUID_ed1ed747_b451_3bdc_998c_dc70841fb411> >
??0?$_com_ptr_t@V?$_com_IIID@UIUlsInfo@SPULS@@$1?_GUID_ed1ed747_b451_3bdc_998c_dc70841fb411@@3U__s_GUID@@B@@@@$$FQEAA@AEBU_GUID@@PEAUIUnknown@@K@Z: ; _com_ptr_t<_com_IIID<SPULS::IUlsInfo,&_GUID_ed1ed747_b451_3bdc_998c_dc70841fb411> >::_com_ptr_t<_com_IIID<SPULS::IUlsInfo,&_GUID_ed1ed747_b451_3bdc_998c_dc70841fb411> >
;	.proc.def	D:J(JJJI)

; Function Header:
; max stack depth = 4
; function size = 36 bytes
; local varsig tk = 0x11000019 
; Exception Information:
; 0 handlers, each consisting of filtered handlers

;	.formal.u4 3,"dwClsContext$" SIG: Optional C Binding Modifier(token:0x45F4E9).u4
;	.formal.i8 2,"pOuter$" SIG: ptr.valueType (token:0x52D4C5A)
;	.formal.i8 1,"clsid$" SIG: Optional C Binding Modifier(token:0x52D4F99).ptr.Optional C Binding Modifier(token:0x52D4F9C).valueType (token:0x52D4F9E)
;	.formal.i8 0,"this$" SIG: Optional C Binding Modifier(token:0x52DA261).Optional C Binding Modifier(token:0x52DA263).ptr.valueType (token:0x52DA266)
;	.local.i8 1,"$T74992" SIG: Optional C Binding Modifier(token:0x52C5AB5).Optional C Binding Modifier(token:0x52C5AB7).ptr.valueType (token:0x52C5ABA)
;	.local.i4 0,"hr$" SIG: Optional C Binding Modifier(token:0x52CCA59).i4

;	.proc.beg
; Line 192
  0000b	02		 ldarg.0 	; this$
  0000c	16		 ldc.i.0 0	; i64 0x0
  0000d	6a		 conv.i8 
  0000e	55		 stind.i8 
; Line 193
  0000f	02		 ldarg.0 	; this$
  00010	03		 ldarg.1 	; clsid$
  00011	04		 ldarg.2 	; pOuter$
  00012	05		 ldarg.3 	; dwClsContext$
  00013	28 00 00 00 00	 call ?CreateInstance@?$_com_ptr_t@V?$_com_IIID@UIUlsInfo@SPULS@@$1?_GUID_ed1ed747_b451_3bdc_998c_dc70841fb411@@3U__s_GUID@@B@@@@$$FQEAAJAEBU_GUID@@PEAUIUnknown@@K@Z
  00018	0a		 stloc.0 	; hr$
; Line 195
  00019	06		 ldloc.0 	; hr$
  0001a	16		 ldc.i.0 0	; i32 0x0
  0001b	2f 0f		 bge.s $LN2@com_ptr_t@3
  0001d	06		 ldloc.0 	; hr$
  0001e	20 02 40 00 80	 ldc.i4 -2147467262 ; i32 0x80004002
  00023	2e 07		 beq.s $LN2@com_ptr_t@3
; Line 196
  00025	06		 ldloc.0 	; hr$
  00026	28 00 00 00 00	 call ?_com_issue_error@@$$FYAXJ@Z
$LN2@com_ptr_t@3:
; Line 198
  0002c	02		 ldarg.0 	; this$
  0002d	0b		 stloc.1 	; $T74992
  0002e	07		 ldloc.1 	; $T74992
  0002f	2a		 ret 
 .end ??0?$_com_ptr_t@V?$_com_IIID@UIUlsInfo@SPULS@@$1?_GUID_ed1ed747_b451_3bdc_998c_dc70841fb411@@3U__s_GUID@@B@@@@$$FQEAA@AEBU_GUID@@PEAUIUnknown@@K@Z ; _com_ptr_t<_com_IIID<SPULS::IUlsInfo,&_GUID_ed1ed747_b451_3bdc_998c_dc70841fb411> >::_com_ptr_t<_com_IIID<SPULS::IUlsInfo,&_GUID_ed1ed747_b451_3bdc_998c_dc70841fb411> >
;	.proc.end.i8
_TEXT	ENDS
PUBLIC	__mep@??0?$_com_ptr_t@V?$_com_IIID@UIUlsInfo@SPULS@@$1?_GUID_ed1ed747_b451_3bdc_998c_dc70841fb411@@3U__s_GUID@@B@@@@$$FQEAA@AEBU_GUID@@PEAUIUnknown@@K@Z
PUBLIC	__m2mep@??0?$_com_ptr_t@V?$_com_IIID@UIUlsInfo@SPULS@@$1?_GUID_ed1ed747_b451_3bdc_998c_dc70841fb411@@3U__s_GUID@@B@@@@$$FQEAA@AEBU_GUID@@PEAUIUnknown@@K@Z
PUBLIC	__t2m@??0?$_com_ptr_t@V?$_com_IIID@UIUlsInfo@SPULS@@$1?_GUID_ed1ed747_b451_3bdc_998c_dc70841fb411@@3U__s_GUID@@B@@@@QEAA@AEBU_GUID@@PEAUIUnknown@@K@Z
;	COMDAT __mep@??0?$_com_ptr_t@V?$_com_IIID@UIUlsInfo@SPULS@@$1?_GUID_ed1ed747_b451_3bdc_998c_dc70841fb411@@3U__s_GUID@@B@@@@$$FQEAA@AEBU_GUID@@PEAUIUnknown@@K@Z
data	SEGMENT
__mep@??0?$_com_ptr_t@V?$_com_IIID@UIUlsInfo@SPULS@@$1?_GUID_ed1ed747_b451_3bdc_998c_dc70841fb411@@3U__s_GUID@@B@@@@$$FQEAA@AEBU_GUID@@PEAUIUnknown@@K@Z TOKEN 0A000047
data	ENDS
;	COMDAT __m2mep@??0?$_com_ptr_t@V?$_com_IIID@UIUlsInfo@SPULS@@$1?_GUID_ed1ed747_b451_3bdc_998c_dc70841fb411@@3U__s_GUID@@B@@@@$$FQEAA@AEBU_GUID@@PEAUIUnknown@@K@Z
data	SEGMENT
__m2mep@??0?$_com_ptr_t@V?$_com_IIID@UIUlsInfo@SPULS@@$1?_GUID_ed1ed747_b451_3bdc_998c_dc70841fb411@@3U__s_GUID@@B@@@@$$FQEAA@AEBU_GUID@@PEAUIUnknown@@K@Z DD FLAT:??0?$_com_ptr_t@V?$_com_IIID@UIUlsInfo@SPULS@@$1?_GUID_ed1ed747_b451_3bdc_998c_dc70841fb411@@3U__s_GUID@@B@@@@$$FQEAA@AEBU_GUID@@PEAUIUnknown@@K@Z
; Function compile flags: /Odtp
data	ENDS
;	COMDAT nep
_TEXT	SEGMENT
__t2m@??0?$_com_ptr_t@V?$_com_IIID@UIUlsInfo@SPULS@@$1?_GUID_ed1ed747_b451_3bdc_998c_dc70841fb411@@3U__s_GUID@@B@@@@QEAA@AEBU_GUID@@PEAUIUnknown@@K@Z PROC ; COMDAT
  00000	eb 08		 jmp	 SHORT $LN1@
  00002	0f 0b		 ud2
$LN2@:
  00004	ff 25 00 00 00
	00		 jmp	 QWORD PTR __m2mep@??0?$_com_ptr_t@V?$_com_IIID@UIUlsInfo@SPULS@@$1?_GUID_ed1ed747_b451_3bdc_998c_dc70841fb411@@3U__s_GUID@@B@@@@$$FQEAA@AEBU_GUID@@PEAUIUnknown@@K@Z
$LN1@:
  0000a	ff 25 00 00 00
	00		 jmp	 QWORD PTR __mep@??0?$_com_ptr_t@V?$_com_IIID@UIUlsInfo@SPULS@@$1?_GUID_ed1ed747_b451_3bdc_998c_dc70841fb411@@3U__s_GUID@@B@@@@$$FQEAA@AEBU_GUID@@PEAUIUnknown@@K@Z
__t2m@??0?$_com_ptr_t@V?$_com_IIID@UIUlsInfo@SPULS@@$1?_GUID_ed1ed747_b451_3bdc_998c_dc70841fb411@@3U__s_GUID@@B@@@@QEAA@AEBU_GUID@@PEAUIUnknown@@K@Z ENDP
.global	_GUID_2e3fe898_8a41_344a_8a55_74b4d0215c56
.global	
.global	
	.bss
.local	$T75015,0
.local	$SigTok$$$A8IUlsInfo@SPULS@@EAAJPEAPEA_W@Z,4
.local	,4
.local	,4
; File d:\gre\my stuff\ulslogview\ulslogview\spinterface.cpp
	.rdata
	.comdat	any, _GUID_2e3fe898_8a41_344a_8a55_74b4d0215c56

_GUID_2e3fe898_8a41_344a_8a55_74b4d0215c56:
	.word	0x2e3fe898
	.short	0x8a41
	.short	0x344a
	.byte	0x8a
	.byte	0x55
	.byte	0x74
	.byte	0xb4
	.byte	0xd0
	.byte	0x21
	.byte	0x5c
	.byte	0x56
; Function compile flags: /Odtp
	.text
.global	?GetLogLocation@@$$FYAPEA_WXZ			; GetLogLocation
?GetLogLocation@@$$FYAPEA_WXZ:				; GetLogLocation
;	.proc.def	D:J()

; Function Header:
; max stack depth = 4
; function size = 98 bytes
; local varsig tk = 0x1100001C 
; Exception Information:
; 1 handlers, each consisting of filtered handlers

;	.local.i8 1,"$T75008" SIG: ptr.char
;	.local.i8 2,"$T73788" SIG: ptr.char
;	.local.i8 0,"$T75009" SIG: ptr.valueType (token:0x52C6F2A)
;	.local.i8 3,"logLocation$" SIG: ptr.char
;	.local.mb8   5,"pICalc$" SIG: valueType (token:0x457B05)
;	.local.i4 4,"hr$" SIG: Optional C Binding Modifier(token:0x52CCA59).i4

;	.proc.beg
; Line 12
  0000b	16		 ldc.i.0 0	; i64 0x0
  0000c	6a		 conv.i8 
  0000d	28 00 00 00 00	 call ?CoInitialize@@$$J0YAJPEAX@Z
  00012	13 04		 stloc.s 4	; hr$
; Line 15
  00014	12 05		 ldloca.s 5	; pICalc$
  00016	7f 00 00 00 00	 ldsflda _GUID_2e3fe898_8a41_344a_8a55_74b4d0215c56
  0001b	16		 ldc.i.0 0	; i64 0x0
  0001c	6a		 conv.i8 
  0001d	1f 17		 ldc.i4.s 23	; u32 0x17
  0001f	28 00 00 00 00	 call ??0?$_com_ptr_t@V?$_com_IIID@UIUlsInfo@SPULS@@$1?_GUID_ed1ed747_b451_3bdc_998c_dc70841fb411@@3U__s_GUID@@B@@@@$$FQEAA@AEBU_GUID@@PEAUIUnknown@@K@Z
  00024	26		 pop 
$LN4@GetLogLoca:
; Line 18
  00026	16		 ldc.i.0 0	; i64 0x0
  00027	6a		 conv.i8 
  00028	20 04 01 00 00	 ldc.i4 260	; u32 0x104
  0002d	28 00 00 00 00	 call ?SysAllocStringLen@@$$J0YAPEA_WPEB_WI@Z
  00032	0d		 stloc.3 	; logLocation$
; Line 20
  00033	12 05		 ldloca.s 5	; pICalc$
  00035	28 00 00 00 00	 call ??C?$_com_ptr_t@V?$_com_IIID@UIUlsInfo@SPULS@@$1?_GUID_ed1ed747_b451_3bdc_998c_dc70841fb411@@3U__s_GUID@@B@@@@$$FQEBAPEAUIUlsInfo@SPULS@@XZ
  0003a	0a		 stloc.0 	; $T75009
  0003b	06		 ldloc.0 	; $T75009
  0003c	12 03		 ldloca.s 3	; logLocation$
  0003e	06		 ldloc.0 	; $T75009
  0003f	4c		 ldind.i8 
  00040	1f 38		 ldc.i4.s 56	; i64 0x38
  00042	6a		 conv.i8 
  00043	58		 add 
  00044	4c		 ldind.i8 
  00045	29 00 00 00 00	 calli D:I(JJ)
  0004a	13 04		 stloc.s 4	; hr$
; Line 26
  0004c	28 00 00 00 00	 call ?CoUninitialize@@$$J0YAXXZ
; Line 27
  00051	09		 ldloc.3 	; logLocation$
  00052	0c		 stloc.2 	; $T73788
  00053	de 0e		 leave.s $LN5@GetLogLoca
$LN6@GetLogLoca:
  00055	fe 06 00 00 00
	00		 ldftn ??1?$_com_ptr_t@V?$_com_IIID@UIUlsInfo@SPULS@@$1?_GUID_ed1ed747_b451_3bdc_998c_dc70841fb411@@3U__s_GUID@@B@@@@$$FQEAA@XZ
  0005b	12 05		 ldloca.s 5	; pICalc$
  0005d	28 00 00 00 00	 call ?___CxxCallUnwindDtor@@$$J0YMXP6MXPEAX@Z0@Z
  00062	dc		 endfinally 
$LN5@GetLogLoca:
  00063	12 05		 ldloca.s 5	; pICalc$
  00065	28 00 00 00 00	 call ??1?$_com_ptr_t@V?$_com_IIID@UIUlsInfo@SPULS@@$1?_GUID_ed1ed747_b451_3bdc_998c_dc70841fb411@@3U__s_GUID@@B@@@@$$FQEAA@XZ
  0006a	08		 ldloc.2 	; $T73788
  0006b	0b		 stloc.1 	; $T75008
; Line 28
  0006c	07		 ldloc.1 	; $T75008
  0006d	2a		 ret 
 .end ?GetLogLocation@@$$FYAPEA_WXZ			; GetLogLocation
;	.proc.end.i8
_TEXT	ENDS
PUBLIC	__mep@?GetLogLocation@@$$FYAPEA_WXZ
PUBLIC	__m2mep@?GetLogLocation@@$$FYAPEA_WXZ
PUBLIC	?GetLogLocation@@YAPEA_WXZ			; GetLogLocation
;	COMDAT __mep@?GetLogLocation@@$$FYAPEA_WXZ
data	SEGMENT
__mep@?GetLogLocation@@$$FYAPEA_WXZ TOKEN 0A000046
data	ENDS
;	COMDAT __m2mep@?GetLogLocation@@$$FYAPEA_WXZ
data	SEGMENT
__m2mep@?GetLogLocation@@$$FYAPEA_WXZ DD FLAT:?GetLogLocation@@$$FYAPEA_WXZ
; Function compile flags: /Odtp
data	ENDS
;	COMDAT nep
_TEXT	SEGMENT
?GetLogLocation@@YAPEA_WXZ PROC				; GetLogLocation, COMDAT
  00000	eb 08		 jmp	 SHORT $LN1@GetLogLoca@2
  00002	0f 0b		 ud2
  00004	ff 25 00 00 00
	00		 jmp	 QWORD PTR __m2mep@?GetLogLocation@@$$FYAPEA_WXZ
$LN1@GetLogLoca@2:
  0000a	ff 25 00 00 00
	00		 jmp	 QWORD PTR __mep@?GetLogLocation@@$$FYAPEA_WXZ
?GetLogLocation@@YAPEA_WXZ ENDP				; GetLogLocation
_TEXT	ENDS
END
