; Listing generated by Microsoft (R) Optimizing Compiler Version 15.00.21022.08 

; Generated by VC++ for Common Language Runtime
.file "d:\GRE\My Stuff\ULSLogView\ULSLogView\SPInterface.cpp"
.global	
	.bss
.local	,4
; Function compile flags: /Odtp
; File c:\program files (x86)\microsoft visual studio 9.0\vc\include\comutil.h
	.text
	.comdat	any, ?CheckError@_com_util@@$$FYAXJ@Z
.global	?CheckError@_com_util@@$$FYAXJ@Z		; _com_util::CheckError
?CheckError@_com_util@@$$FYAXJ@Z:			; _com_util::CheckError
;	.proc.def	D:V(I)

; Function Header:
; max stack depth = 2
; function size = 11 bytes
; local varsig tk = 0x0 
; Exception Information:
; 0 handlers, each consisting of filtered handlers

;	.formal.i4 0,"hr$" SIG: Optional C Binding Modifier(token:0x3B790D).i4

;	.proc.beg

; 96   :         if (FAILED(hr)) {

	ldarg.0				; hr$
	ldc.i.0		0		; i32 0x0
	bge.s		$LN3@CheckError

; 97   :             _com_issue_error(hr);

	ldarg.0				; hr$
	call		?_com_issue_error@@$$FYAXJ@Z
$LN3@CheckError:

; 98   :         }
; 99   :     }

	ret		
 .end ?CheckError@_com_util@@$$FYAXJ@Z			; _com_util::CheckError
;	.proc.end.void
_TEXT	ENDS
PUBLIC	__mep@?CheckError@_com_util@@$$FYAXJ@Z
PUBLIC	__m2mep@?CheckError@_com_util@@$$FYAXJ@Z
PUBLIC	__t2m@?CheckError@_com_util@@YAXJ@Z
;	COMDAT __mep@?CheckError@_com_util@@$$FYAXJ@Z
data	SEGMENT
__mep@?CheckError@_com_util@@$$FYAXJ@Z TOKEN 0A000014
data	ENDS
;	COMDAT __m2mep@?CheckError@_com_util@@$$FYAXJ@Z
data	SEGMENT
__m2mep@?CheckError@_com_util@@$$FYAXJ@Z DD FLAT:?CheckError@_com_util@@$$FYAXJ@Z
; Function compile flags: /Odtp
data	ENDS
;	COMDAT nep
_TEXT	SEGMENT
__t2m@?CheckError@_com_util@@YAXJ@Z PROC		; COMDAT
	jmp	SHORT $LN1@
	ud2
$LN2@:
	jmp	QWORD PTR __m2mep@?CheckError@_com_util@@$$FYAXJ@Z
$LN1@:
	jmp	QWORD PTR __mep@?CheckError@_com_util@@$$FYAXJ@Z
__t2m@?CheckError@_com_util@@YAXJ@Z ENDP
.global	
	.bss
.local	$T74064,0
.local	,4
; Function compile flags: /Odtp
	.text
	.comdat	any, ?AddRef@Data_t@_bstr_t@@$$FQEAAKXZ
.global	?AddRef@Data_t@_bstr_t@@$$FQEAAKXZ		; _bstr_t::Data_t::AddRef
?AddRef@Data_t@_bstr_t@@$$FQEAAKXZ:			; _bstr_t::Data_t::AddRef
;	.proc.def	D:I(J)

; Function Header:
; max stack depth = 2
; function size = 20 bytes
; local varsig tk = 0x11000008 
; Exception Information:
; 0 handlers, each consisting of filtered handlers

;	.formal.i8 0,"this$" SIG: Optional C Binding Modifier(token:0x3B7A71).Optional C Binding Modifier(token:0x3B7A73).ptr.valueType (token:0x3B7A76)
;	.local.u4 0,"$T74062" SIG: Optional C Binding Modifier(token:0x35822D).u4

;	.proc.beg

; 767  :     InterlockedIncrement(reinterpret_cast<long*>(&m_RefCount));

	ldarg.0				; this$
	ldc.i4.s	16		; i64 0x10
	conv.i8		
	add		
	call		System.Threading.Interlocked.Increment
	pop		

; 768  :     return m_RefCount;

	ldarg.0				; this$
	ldc.i4.s	16		; i64 0x10
	conv.i8		
	add		
	ldind.i4	
	stloc.0				; $T74062

; 769  : }

	ldloc.0				; $T74062
	ret		
 .end ?AddRef@Data_t@_bstr_t@@$$FQEAAKXZ		; _bstr_t::Data_t::AddRef
;	.proc.end.u4
_TEXT	ENDS
PUBLIC	__mep@?AddRef@Data_t@_bstr_t@@$$FQEAAKXZ
PUBLIC	__m2mep@?AddRef@Data_t@_bstr_t@@$$FQEAAKXZ
PUBLIC	__t2m@?AddRef@Data_t@_bstr_t@@QEAAKXZ
;	COMDAT __mep@?AddRef@Data_t@_bstr_t@@$$FQEAAKXZ
data	SEGMENT
__mep@?AddRef@Data_t@_bstr_t@@$$FQEAAKXZ TOKEN 0A00002C
data	ENDS
;	COMDAT __m2mep@?AddRef@Data_t@_bstr_t@@$$FQEAAKXZ
data	SEGMENT
__m2mep@?AddRef@Data_t@_bstr_t@@$$FQEAAKXZ DD FLAT:?AddRef@Data_t@_bstr_t@@$$FQEAAKXZ
; Function compile flags: /Odtp
data	ENDS
;	COMDAT nep
_TEXT	SEGMENT
__t2m@?AddRef@Data_t@_bstr_t@@QEAAKXZ PROC		; COMDAT
	jmp	SHORT $LN1@
	ud2
$LN2@:
	jmp	QWORD PTR __m2mep@?AddRef@Data_t@_bstr_t@@$$FQEAAKXZ
$LN1@:
	jmp	QWORD PTR __mep@?AddRef@Data_t@_bstr_t@@$$FQEAAKXZ
__t2m@?AddRef@Data_t@_bstr_t@@QEAAKXZ ENDP
.global	
.global	
	.bss
.local	,4
.local	,4
; Function compile flags: /Odtp
	.text
	.comdat	any, ??0_variant_t@@$$FQEAA@AEBV0@@Z
.global	??0_variant_t@@$$FQEAA@AEBV0@@Z			; _variant_t::_variant_t
??0_variant_t@@$$FQEAA@AEBV0@@Z:			; _variant_t::_variant_t
;	.proc.def	D:J(JJ)

; Function Header:
; max stack depth = 2
; function size = 20 bytes
; local varsig tk = 0x0 
; Exception Information:
; 0 handlers, each consisting of filtered handlers

;	.formal.i8 1,"varSrc$" SIG: Optional C Binding Modifier(token:0x3B8C75).ptr.Optional C Binding Modifier(token:0x3B8C78).valueType (token:0x3B8C7A)
;	.formal.i8 0,"this$" SIG: Optional C Binding Modifier(token:0x3DCFBD).Optional C Binding Modifier(token:0x3DCFBF).ptr.valueType (token:0x3DCFC2)

;	.proc.beg

; 1156 :     ::VariantInit(this);

	ldarg.0				; this$
	call		?VariantInit@@$$J0YAXPEAUtagVARIANT@@@Z

; 1157 :     _com_util::CheckError(::VariantCopy(this, const_cast<VARIANT*>(static_cast<const VARIANT*>(&varSrc))));

	ldarg.0				; this$
	ldarg.1				; varSrc$
	call		?VariantCopy@@$$J0YAJPEAUtagVARIANT@@PEBU1@@Z
	call		?CheckError@_com_util@@$$FYAXJ@Z

; 1158 : }

	ldarg.0				; this$
	ret		
 .end ??0_variant_t@@$$FQEAA@AEBV0@@Z			; _variant_t::_variant_t
;	.proc.end.i8
_TEXT	ENDS
PUBLIC	__mep@??0_variant_t@@$$FQEAA@AEBV0@@Z
PUBLIC	__m2mep@??0_variant_t@@$$FQEAA@AEBV0@@Z
PUBLIC	__t2m@??0_variant_t@@QEAA@AEBV0@@Z
;	COMDAT __mep@??0_variant_t@@$$FQEAA@AEBV0@@Z
data	SEGMENT
__mep@??0_variant_t@@$$FQEAA@AEBV0@@Z TOKEN 0A000038
data	ENDS
;	COMDAT __m2mep@??0_variant_t@@$$FQEAA@AEBV0@@Z
data	SEGMENT
__m2mep@??0_variant_t@@$$FQEAA@AEBV0@@Z DD FLAT:??0_variant_t@@$$FQEAA@AEBV0@@Z
; Function compile flags: /Odtp
data	ENDS
;	COMDAT nep
_TEXT	SEGMENT
__t2m@??0_variant_t@@QEAA@AEBV0@@Z PROC			; COMDAT
	jmp	SHORT $LN1@
	ud2
$LN2@:
	jmp	QWORD PTR __m2mep@??0_variant_t@@$$FQEAA@AEBV0@@Z
$LN1@:
	jmp	QWORD PTR __mep@??0_variant_t@@$$FQEAA@AEBV0@@Z
__t2m@??0_variant_t@@QEAA@AEBV0@@Z ENDP
.global	??_7_com_error@@6B@				; _com_error::`vftable'
.global	
.global	
.global	??_R4_com_error@@6B@				; _com_error::`RTTI Complete Object Locator'
.global	??_R0?AV_com_error@@@8				; _com_error `RTTI Type Descriptor'
.global	??_R3_com_error@@8				; _com_error::`RTTI Class Hierarchy Descriptor'
.global	??_R2_com_error@@8				; _com_error::`RTTI Base Class Array'
.global	??_R1A@?0A@EA@_com_error@@8			; _com_error::`RTTI Base Class Descriptor at (0,-1,0,64)'
	.bss
.local	$SigTok$$$A8IUnknown@@EAAKXZ,4
.local	,4
.local	,4
; File c:\program files (x86)\microsoft visual studio 9.0\vc\include\comdef.h
	.rdataseg	.rdata$r
	.comdat	any, ??_R1A@?0A@EA@_com_error@@8

??_R1A@?0A@EA@_com_error@@8:				; _com_error::`RTTI Base Class Descriptor at (0,-1,0,64)' DD imagerel ??_R0?AV_com_error@@@8
	.word	0x0
	.word	0x0
	.word	0xffffffff
	.word	0x0
	.word	0x40 DD imagerel ??_R3_com_error@@8
	.rdataseg	.rdata$r
	.comdat	any, ??_R2_com_error@@8

??_R2_com_error@@8:					; _com_error::`RTTI Base Class Array' DD imagerel ??_R1A@?0A@EA@_com_error@@8
	.space	3
	.rdataseg	.rdata$r
	.comdat	any, ??_R3_com_error@@8

??_R3_com_error@@8:					; _com_error::`RTTI Class Hierarchy Descriptor'
	.word	0x0
	.word	0x0
	.word	0x1 DD imagerel ??_R2_com_error@@8
	.data
	.comdat	any, ??_R0?AV_com_error@@@8

??_R0?AV_com_error@@@8:					; _com_error `RTTI Type Descriptor'
	DQ	??_7type_info@@6B@
	.double	0x0000000000000000
	.ascii	".?AV_com_error@@\000"
	.rdataseg	.rdata$r
	.comdat	any, ??_R4_com_error@@6B@

??_R4_com_error@@6B@:					; _com_error::`RTTI Complete Object Locator'
	.word	0x1
	.word	0x0
	.word	0x0 DD imagerel ??_R0?AV_com_error@@@8 DD imagerel ??_R3_com_error@@8 DD imagerel ??_R4_com_error@@6B@
	.data
	.comdat	largest, ??_7_com_error@@6B@

??_7_com_error@@6B@:					; _com_error::`vftable'
	DQ	??_R4_com_error@@6B@
	DQ	??_E_com_error@@UEAAPEAXI@Z
; Function compile flags: /Odtp
	.text
	.comdat	any, ??0_com_error@@$$FQEAA@AEBV0@@Z
.global	??0_com_error@@$$FQEAA@AEBV0@@Z			; _com_error::_com_error
??0_com_error@@$$FQEAA@AEBV0@@Z:			; _com_error::_com_error
;	.proc.def	D:J(JJ)

; Function Header:
; max stack depth = 3
; function size = 70 bytes
; local varsig tk = 0x0 
; Exception Information:
; 0 handlers, each consisting of filtered handlers

;	.formal.i8 1,"that$" SIG: Optional C Binding Modifier(token:0x3D1D05).ptr.Optional C Binding Modifier(token:0x3D1D08).valueType (token:0x3D1D0A)
;	.formal.i8 0,"this$" SIG: Optional C Binding Modifier(token:0x3D5A85).Optional C Binding Modifier(token:0x3D5A87).ptr.valueType (token:0x3D5A8A)

;	.proc.beg

; 147  : {

	ldarg.0				; this$
	ldsflda		??_7_com_error@@6B@
	stind.i8	
	ldarg.0				; this$
	ldc.i.8		8		; i64 0x8
	conv.i8		
	add		
	ldarg.1				; that$
	ldc.i.8		8		; i64 0x8
	conv.i8		
	add		
	ldind.i4	
	stind.i4	
	ldarg.0				; this$
	ldc.i4.s	16		; i64 0x10
	conv.i8		
	add		
	ldarg.1				; that$
	ldc.i4.s	16		; i64 0x10
	conv.i8		
	add		
	ldind.i8	
	stind.i8	
	ldarg.0				; this$
	ldc.i4.s	24		; i64 0x18
	conv.i8		
	add		
	ldc.i.0		0		; i64 0x0
	conv.i8		
	stind.i8	

; 148  :     if (m_perrinfo != NULL) {

	ldarg.0				; this$
	ldc.i4.s	16		; i64 0x10
	conv.i8		
	add		
	ldind.i8	
	brfalse.s	$LN2@com_error

; 149  :         m_perrinfo->AddRef();

	ldarg.0				; this$
	ldc.i4.s	16		; i64 0x10
	conv.i8		
	add		
	ldind.i8	
	ldarg.0				; this$
	ldc.i4.s	16		; i64 0x10
	conv.i8		
	add		
	ldind.i8	
	ldind.i8	
	ldc.i.8		8		; i64 0x8
	conv.i8		
	add		
	ldind.i8	
	calli		D:I(J)
	pop		
$LN2@com_error:

; 150  :     }
; 151  : }

	ldarg.0				; this$
	ret		
 .end ??0_com_error@@$$FQEAA@AEBV0@@Z			; _com_error::_com_error
;	.proc.end.i8
_TEXT	ENDS
PUBLIC	__mep@??0_com_error@@$$FQEAA@AEBV0@@Z
PUBLIC	__m2mep@??0_com_error@@$$FQEAA@AEBV0@@Z
PUBLIC	__t2m@??0_com_error@@QEAA@AEBV0@@Z
;	COMDAT __mep@??0_com_error@@$$FQEAA@AEBV0@@Z
data	SEGMENT
__mep@??0_com_error@@$$FQEAA@AEBV0@@Z TOKEN 0A00003E
data	ENDS
;	COMDAT __m2mep@??0_com_error@@$$FQEAA@AEBV0@@Z
data	SEGMENT
__m2mep@??0_com_error@@$$FQEAA@AEBV0@@Z DD FLAT:??0_com_error@@$$FQEAA@AEBV0@@Z
; Function compile flags: /Odtp
data	ENDS
;	COMDAT nep
_TEXT	SEGMENT
__t2m@??0_com_error@@QEAA@AEBV0@@Z PROC			; COMDAT
	jmp	SHORT $LN1@
	ud2
$LN2@:
	jmp	QWORD PTR __m2mep@??0_com_error@@$$FQEAA@AEBV0@@Z
$LN1@:
	jmp	QWORD PTR __mep@??0_com_error@@$$FQEAA@AEBV0@@Z
__t2m@??0_com_error@@QEAA@AEBV0@@Z ENDP
	.bss
.local	$T74098,0
; Function compile flags: /Odtp
	.text
	.comdat	any, ??_E_com_error@@$$FUEAAPEAXI@Z
.global	??_E_com_error@@$$FUEAAPEAXI@Z			; _com_error::`vector deleting destructor'
??_E_com_error@@$$FUEAAPEAXI@Z:				; _com_error::`vector deleting destructor'
;	.proc.def	D:J(JI)

; Function Header:
; max stack depth = 4
; function size = 67 bytes
; local varsig tk = 0x1100000D 
; Exception Information:
; 0 handlers, each consisting of filtered handlers

;	.formal.i8 0,"this$" SIG: Optional C Binding Modifier(token:0x3D5A85).Optional C Binding Modifier(token:0x3D5A87).ptr.valueType (token:0x3D5A8A)
;	.formal.u4 1,"__flags$" SIG: u4
;	.local.i8 0,"$T74097" SIG: ptr.void

;	.proc.beg
	ldarg.1				; __flags$
	ldc.i.2		2		; u32 0x2
	and		
	brfalse.s	$LN3@vector
	ldarg.0				; this$
	ldc.i4.s	32		; u64 0x20
	conv.i8		
	ldarg.0				; this$
	ldc.i.8		8		; i64 0x8
	conv.i8		
	sub		
	ldind.i4	
	ldftn		??1_com_error@@$$FUEAA@XZ
	call		??_M@$$FYMXPEAX_KHP6MX0@Z@Z
	ldarg.1				; __flags$
	ldc.i.1		1		; u32 0x1
	and		
	brfalse.s	$LN2@vector
	ldarg.0				; this$
	ldc.i.8		8		; i64 0x8
	conv.i8		
	sub		
	call		??3@$$FYAXPEAX@Z
$LN2@vector:
	ldarg.0				; this$
	ldc.i.8		8		; i64 0x8
	conv.i8		
	sub		
	stloc.0				; $T74097
	br.s		$LN4@vector
$LN3@vector:
	ldarg.0				; this$
	call		??1_com_error@@$$FUEAA@XZ
	ldarg.1				; __flags$
	ldc.i.1		1		; u32 0x1
	and		
	brfalse.s	$LN1@vector
	ldarg.0				; this$
	call		??3@$$FYAXPEAX@Z
$LN1@vector:
	ldarg.0				; this$
	stloc.0				; $T74097
$LN4@vector:
	ldloc.0				; $T74097
	ret		
 .end ??_E_com_error@@$$FUEAAPEAXI@Z			; _com_error::`vector deleting destructor'
;	.proc.end.i8
.global	
	.bss
.local	$T74104,0
.local	,4
; Function compile flags: /Odtp
	.text
	.comdat	any, ??1_com_error@@$$FUEAA@XZ
.global	??1_com_error@@$$FUEAA@XZ			; _com_error::~_com_error
??1_com_error@@$$FUEAA@XZ:				; _com_error::~_com_error
;	.proc.def	D:V(J)

; Function Header:
; max stack depth = 4
; function size = 71 bytes
; local varsig tk = 0x1100000D 
; Exception Information:
; 0 handlers, each consisting of filtered handlers

;	.formal.i8 0,"this$" SIG: Optional C Binding Modifier(token:0x3D5A85).Optional C Binding Modifier(token:0x3D5A87).ptr.valueType (token:0x3D5A8A)
;	.local.i8 0,"hHeap$70033" SIG: ptr.void

;	.proc.beg

; 154  : {

	ldarg.0				; this$
	ldsflda		??_7_com_error@@6B@
	stind.i8	

; 155  :     if (m_perrinfo != NULL) {

	ldarg.0				; this$
	ldc.i4.s	16		; i64 0x10
	conv.i8		
	add		
	ldind.i8	
	brfalse.s	$LN3@com_error@2

; 156  :         m_perrinfo->Release();

	ldarg.0				; this$
	ldc.i4.s	16		; i64 0x10
	conv.i8		
	add		
	ldind.i8	
	ldarg.0				; this$
	ldc.i4.s	16		; i64 0x10
	conv.i8		
	add		
	ldind.i8	
	ldind.i8	
	ldc.i4.s	16		; i64 0x10
	conv.i8		
	add		
	ldind.i8	
	calli		D:I(J)
	pop		
$LN3@com_error@2:

; 157  :     }
; 158  :     if (m_pszMsg != NULL) {

	ldarg.0				; this$
	ldc.i4.s	24		; i64 0x18
	conv.i8		
	add		
	ldind.i8	
	brfalse.s	$LN4@com_error@2

; 159  :         HANDLE hHeap = GetProcessHeap();

	call		?GetProcessHeap@@$$J0YAPEAXXZ
	stloc.0				; hHeap$70033

; 160  :         if (hHeap)

	ldloc.0				; hHeap$70033
	brfalse.s	$LN4@com_error@2

; 161  :         {
; 162  :             HeapFree(hHeap, 0, (LPVOID) m_pszMsg);

	ldloc.0				; hHeap$70033
	ldc.i.0		0		; u32 0x0
	ldarg.0				; this$
	ldc.i4.s	24		; i64 0x18
	conv.i8		
	add		
	ldind.i8	
	call		?HeapFree@@$$J0YAHPEAXK0@Z
	pop		
$LN4@com_error@2:

; 163  :         }
; 164  :     }
; 165  : }

	ret		
 .end ??1_com_error@@$$FUEAA@XZ				; _com_error::~_com_error
;	.proc.end.void
_TEXT	ENDS
PUBLIC	__mep@??1_com_error@@$$FUEAA@XZ
PUBLIC	__m2mep@??1_com_error@@$$FUEAA@XZ
PUBLIC	__t2m@??1_com_error@@UEAA@XZ
;	COMDAT __mep@??1_com_error@@$$FUEAA@XZ
data	SEGMENT
__mep@??1_com_error@@$$FUEAA@XZ TOKEN 0A00003F
data	ENDS
;	COMDAT __m2mep@??1_com_error@@$$FUEAA@XZ
data	SEGMENT
__m2mep@??1_com_error@@$$FUEAA@XZ DD FLAT:??1_com_error@@$$FUEAA@XZ
; Function compile flags: /Odtp
data	ENDS
;	COMDAT nep
_TEXT	SEGMENT
__t2m@??1_com_error@@UEAA@XZ PROC			; COMDAT
	jmp	SHORT $LN1@
	ud2
$LN2@:
	jmp	QWORD PTR __m2mep@??1_com_error@@$$FUEAA@XZ
$LN1@:
	jmp	QWORD PTR __mep@??1_com_error@@$$FUEAA@XZ
__t2m@??1_com_error@@UEAA@XZ ENDP
_TEXT	ENDS
PUBLIC	__mep@??_E_com_error@@$$FUEAAPEAXI@Z
PUBLIC	__m2mep@??_E_com_error@@$$FUEAAPEAXI@Z
PUBLIC	__t2m@??_E_com_error@@UEAAPEAXI@Z
;	COMDAT __mep@??_E_com_error@@$$FUEAAPEAXI@Z
data	SEGMENT
__mep@??_E_com_error@@$$FUEAAPEAXI@Z TOKEN 0A000043
data	ENDS
;	COMDAT __m2mep@??_E_com_error@@$$FUEAAPEAXI@Z
data	SEGMENT
__m2mep@??_E_com_error@@$$FUEAAPEAXI@Z DD FLAT:??_E_com_error@@$$FUEAAPEAXI@Z
; Function compile flags: /Odtp
data	ENDS
;	COMDAT nep
_TEXT	SEGMENT
__t2m@??_E_com_error@@UEAAPEAXI@Z PROC			; COMDAT
	jmp	SHORT $LN1@
	ud2
$LN2@:
	jmp	QWORD PTR __m2mep@??_E_com_error@@$$FUEAAPEAXI@Z
$LN1@:
	jmp	QWORD PTR __mep@??_E_com_error@@$$FUEAAPEAXI@Z
__t2m@??_E_com_error@@UEAAPEAXI@Z ENDP
.global	
	.bss
.local	$T74121,0
.local	,4
; Function compile flags: /Odtp
; File c:\program files (x86)\microsoft visual studio 9.0\vc\include\comip.h
	.text
	.comdat	any, ??C?$_com_ptr_t@V?$_com_IIID@UIUlsInfo@SPULS@@$1?_GUID_ed1ed747_b451_3bdc_998c_dc70841fb411@@3U__s_GUID@@B@@@@$$FQEBAPEAUIUlsInfo@SPULS@@XZ
.global	??C?$_com_ptr_t@V?$_com_IIID@UIUlsInfo@SPULS@@$1?_GUID_ed1ed747_b451_3bdc_998c_dc70841fb411@@3U__s_GUID@@B@@@@$$FQEBAPEAUIUlsInfo@SPULS@@XZ ; _com_ptr_t<_com_IIID<SPULS::IUlsInfo,&_GUID_ed1ed747_b451_3bdc_998c_dc70841fb411> >::operator->
??C?$_com_ptr_t@V?$_com_IIID@UIUlsInfo@SPULS@@$1?_GUID_ed1ed747_b451_3bdc_998c_dc70841fb411@@3U__s_GUID@@B@@@@$$FQEBAPEAUIUlsInfo@SPULS@@XZ: ; _com_ptr_t<_com_IIID<SPULS::IUlsInfo,&_GUID_ed1ed747_b451_3bdc_998c_dc70841fb411> >::operator->
;	.proc.def	D:J(J)

; Function Header:
; max stack depth = 1
; function size = 19 bytes
; local varsig tk = 0x11000010 
; Exception Information:
; 0 handlers, each consisting of filtered handlers

;	.formal.i8 0,"this$" SIG: Optional C Binding Modifier(token:0x3C1541).Optional C Binding Modifier(token:0x3C1543).ptr.Optional C Binding Modifier(token:0x3C1546).valueType (token:0x3C1548)
;	.local.i8 0,"$T74119" SIG: ptr.valueType (token:0x3B1DFE)

;	.proc.beg

; 395  :         if (m_pInterface == NULL) {

	ldarg.0				; this$
	ldind.i8	
	brtrue.s	$LN1@operator

; 396  :             _com_issue_error(E_POINTER);

	ldc.i4		-2147467261	; i32 0x80004003
	call		?_com_issue_error@@$$FYAXJ@Z
$LN1@operator:

; 397  :         }
; 398  : 
; 399  :         return m_pInterface; 

	ldarg.0				; this$
	ldind.i8	
	stloc.0				; $T74119

; 400  :     }

	ldloc.0				; $T74119
	ret		
 .end ??C?$_com_ptr_t@V?$_com_IIID@UIUlsInfo@SPULS@@$1?_GUID_ed1ed747_b451_3bdc_998c_dc70841fb411@@3U__s_GUID@@B@@@@$$FQEBAPEAUIUlsInfo@SPULS@@XZ ; _com_ptr_t<_com_IIID<SPULS::IUlsInfo,&_GUID_ed1ed747_b451_3bdc_998c_dc70841fb411> >::operator->
;	.proc.end.i8
_TEXT	ENDS
PUBLIC	__mep@??C?$_com_ptr_t@V?$_com_IIID@UIUlsInfo@SPULS@@$1?_GUID_ed1ed747_b451_3bdc_998c_dc70841fb411@@3U__s_GUID@@B@@@@$$FQEBAPEAUIUlsInfo@SPULS@@XZ
PUBLIC	__m2mep@??C?$_com_ptr_t@V?$_com_IIID@UIUlsInfo@SPULS@@$1?_GUID_ed1ed747_b451_3bdc_998c_dc70841fb411@@3U__s_GUID@@B@@@@$$FQEBAPEAUIUlsInfo@SPULS@@XZ
PUBLIC	__t2m@??C?$_com_ptr_t@V?$_com_IIID@UIUlsInfo@SPULS@@$1?_GUID_ed1ed747_b451_3bdc_998c_dc70841fb411@@3U__s_GUID@@B@@@@QEBAPEAUIUlsInfo@SPULS@@XZ
;	COMDAT __mep@??C?$_com_ptr_t@V?$_com_IIID@UIUlsInfo@SPULS@@$1?_GUID_ed1ed747_b451_3bdc_998c_dc70841fb411@@3U__s_GUID@@B@@@@$$FQEBAPEAUIUlsInfo@SPULS@@XZ
data	SEGMENT
__mep@??C?$_com_ptr_t@V?$_com_IIID@UIUlsInfo@SPULS@@$1?_GUID_ed1ed747_b451_3bdc_998c_dc70841fb411@@3U__s_GUID@@B@@@@$$FQEBAPEAUIUlsInfo@SPULS@@XZ TOKEN 0A000049
data	ENDS
;	COMDAT __m2mep@??C?$_com_ptr_t@V?$_com_IIID@UIUlsInfo@SPULS@@$1?_GUID_ed1ed747_b451_3bdc_998c_dc70841fb411@@3U__s_GUID@@B@@@@$$FQEBAPEAUIUlsInfo@SPULS@@XZ
data	SEGMENT
__m2mep@??C?$_com_ptr_t@V?$_com_IIID@UIUlsInfo@SPULS@@$1?_GUID_ed1ed747_b451_3bdc_998c_dc70841fb411@@3U__s_GUID@@B@@@@$$FQEBAPEAUIUlsInfo@SPULS@@XZ DD FLAT:??C?$_com_ptr_t@V?$_com_IIID@UIUlsInfo@SPULS@@$1?_GUID_ed1ed747_b451_3bdc_998c_dc70841fb411@@3U__s_GUID@@B@@@@$$FQEBAPEAUIUlsInfo@SPULS@@XZ
; Function compile flags: /Odtp
data	ENDS
;	COMDAT nep
_TEXT	SEGMENT
__t2m@??C?$_com_ptr_t@V?$_com_IIID@UIUlsInfo@SPULS@@$1?_GUID_ed1ed747_b451_3bdc_998c_dc70841fb411@@3U__s_GUID@@B@@@@QEBAPEAUIUlsInfo@SPULS@@XZ PROC ; COMDAT
	jmp	SHORT $LN1@
	ud2
$LN2@:
	jmp	QWORD PTR __m2mep@??C?$_com_ptr_t@V?$_com_IIID@UIUlsInfo@SPULS@@$1?_GUID_ed1ed747_b451_3bdc_998c_dc70841fb411@@3U__s_GUID@@B@@@@$$FQEBAPEAUIUlsInfo@SPULS@@XZ
$LN1@:
	jmp	QWORD PTR __mep@??C?$_com_ptr_t@V?$_com_IIID@UIUlsInfo@SPULS@@$1?_GUID_ed1ed747_b451_3bdc_998c_dc70841fb411@@3U__s_GUID@@B@@@@$$FQEBAPEAUIUlsInfo@SPULS@@XZ
__t2m@??C?$_com_ptr_t@V?$_com_IIID@UIUlsInfo@SPULS@@$1?_GUID_ed1ed747_b451_3bdc_998c_dc70841fb411@@3U__s_GUID@@B@@@@QEBAPEAUIUlsInfo@SPULS@@XZ ENDP
.global	
	.bss
.local	,4
; Function compile flags: /Odtp
	.text
	.comdat	any, ?_Release@?$_com_ptr_t@V?$_com_IIID@UIUlsInfo@SPULS@@$1?_GUID_ed1ed747_b451_3bdc_998c_dc70841fb411@@3U__s_GUID@@B@@@@$$FAEAAXXZ
.global	?_Release@?$_com_ptr_t@V?$_com_IIID@UIUlsInfo@SPULS@@$1?_GUID_ed1ed747_b451_3bdc_998c_dc70841fb411@@3U__s_GUID@@B@@@@$$FAEAAXXZ ; _com_ptr_t<_com_IIID<SPULS::IUlsInfo,&_GUID_ed1ed747_b451_3bdc_998c_dc70841fb411> >::_Release
?_Release@?$_com_ptr_t@V?$_com_IIID@UIUlsInfo@SPULS@@$1?_GUID_ed1ed747_b451_3bdc_998c_dc70841fb411@@3U__s_GUID@@B@@@@$$FAEAAXXZ: ; _com_ptr_t<_com_IIID<SPULS::IUlsInfo,&_GUID_ed1ed747_b451_3bdc_998c_dc70841fb411> >::_Release
;	.proc.def	D:V(J)

; Function Header:
; max stack depth = 3
; function size = 21 bytes
; local varsig tk = 0x0 
; Exception Information:
; 0 handlers, each consisting of filtered handlers

;	.formal.i8 0,"this$" SIG: Optional C Binding Modifier(token:0x3C4E9D).Optional C Binding Modifier(token:0x3C4E9F).ptr.valueType (token:0x3C4EA2)

;	.proc.beg

; 823  :         if (m_pInterface != NULL) {

	ldarg.0				; this$
	ldind.i8	
	brfalse.s	$LN2@Release

; 824  :             m_pInterface->Release();

	ldarg.0				; this$
	ldind.i8	
	ldarg.0				; this$
	ldind.i8	
	ldind.i8	
	ldc.i4.s	16		; i64 0x10
	conv.i8		
	add		
	ldind.i8	
	calli		D:I(J)
	pop		
$LN2@Release:

; 825  :         }
; 826  :     }

	ret		
 .end ?_Release@?$_com_ptr_t@V?$_com_IIID@UIUlsInfo@SPULS@@$1?_GUID_ed1ed747_b451_3bdc_998c_dc70841fb411@@3U__s_GUID@@B@@@@$$FAEAAXXZ ; _com_ptr_t<_com_IIID<SPULS::IUlsInfo,&_GUID_ed1ed747_b451_3bdc_998c_dc70841fb411> >::_Release
;	.proc.end.void
_TEXT	ENDS
PUBLIC	__mep@?_Release@?$_com_ptr_t@V?$_com_IIID@UIUlsInfo@SPULS@@$1?_GUID_ed1ed747_b451_3bdc_998c_dc70841fb411@@3U__s_GUID@@B@@@@$$FAEAAXXZ
PUBLIC	__m2mep@?_Release@?$_com_ptr_t@V?$_com_IIID@UIUlsInfo@SPULS@@$1?_GUID_ed1ed747_b451_3bdc_998c_dc70841fb411@@3U__s_GUID@@B@@@@$$FAEAAXXZ
PUBLIC	__t2m@?_Release@?$_com_ptr_t@V?$_com_IIID@UIUlsInfo@SPULS@@$1?_GUID_ed1ed747_b451_3bdc_998c_dc70841fb411@@3U__s_GUID@@B@@@@AEAAXXZ
;	COMDAT __mep@?_Release@?$_com_ptr_t@V?$_com_IIID@UIUlsInfo@SPULS@@$1?_GUID_ed1ed747_b451_3bdc_998c_dc70841fb411@@3U__s_GUID@@B@@@@$$FAEAAXXZ
data	SEGMENT
__mep@?_Release@?$_com_ptr_t@V?$_com_IIID@UIUlsInfo@SPULS@@$1?_GUID_ed1ed747_b451_3bdc_998c_dc70841fb411@@3U__s_GUID@@B@@@@$$FAEAAXXZ TOKEN 0A00004B
data	ENDS
;	COMDAT __m2mep@?_Release@?$_com_ptr_t@V?$_com_IIID@UIUlsInfo@SPULS@@$1?_GUID_ed1ed747_b451_3bdc_998c_dc70841fb411@@3U__s_GUID@@B@@@@$$FAEAAXXZ
data	SEGMENT
__m2mep@?_Release@?$_com_ptr_t@V?$_com_IIID@UIUlsInfo@SPULS@@$1?_GUID_ed1ed747_b451_3bdc_998c_dc70841fb411@@3U__s_GUID@@B@@@@$$FAEAAXXZ DD FLAT:?_Release@?$_com_ptr_t@V?$_com_IIID@UIUlsInfo@SPULS@@$1?_GUID_ed1ed747_b451_3bdc_998c_dc70841fb411@@3U__s_GUID@@B@@@@$$FAEAAXXZ
; Function compile flags: /Odtp
data	ENDS
;	COMDAT nep
_TEXT	SEGMENT
__t2m@?_Release@?$_com_ptr_t@V?$_com_IIID@UIUlsInfo@SPULS@@$1?_GUID_ed1ed747_b451_3bdc_998c_dc70841fb411@@3U__s_GUID@@B@@@@AEAAXXZ PROC ; COMDAT
	jmp	SHORT $LN1@
	ud2
$LN2@:
	jmp	QWORD PTR __m2mep@?_Release@?$_com_ptr_t@V?$_com_IIID@UIUlsInfo@SPULS@@$1?_GUID_ed1ed747_b451_3bdc_998c_dc70841fb411@@3U__s_GUID@@B@@@@$$FAEAAXXZ
$LN1@:
	jmp	QWORD PTR __mep@?_Release@?$_com_ptr_t@V?$_com_IIID@UIUlsInfo@SPULS@@$1?_GUID_ed1ed747_b451_3bdc_998c_dc70841fb411@@3U__s_GUID@@B@@@@$$FAEAAXXZ
__t2m@?_Release@?$_com_ptr_t@V?$_com_IIID@UIUlsInfo@SPULS@@$1?_GUID_ed1ed747_b451_3bdc_998c_dc70841fb411@@3U__s_GUID@@B@@@@AEAAXXZ ENDP
.global	_GUID_ed1ed747_b451_3bdc_998c_dc70841fb411
	.bss
.local	$T74142,0
	.rdata
	.comdat	any, _GUID_ed1ed747_b451_3bdc_998c_dc70841fb411

_GUID_ed1ed747_b451_3bdc_998c_dc70841fb411:
	.word	0xed1ed747
	.short	0xb451
	.short	0x3bdc
	.byte	0x99
	.byte	0x8c
	.byte	0xdc
	.byte	0x70
	.byte	0x84
	.byte	0x1f
	.byte	0xb4
	.byte	0x11
; Function compile flags: /Odtp
	.text
	.comdat	any, ?GetIID@?$_com_IIID@UIUlsInfo@SPULS@@$1?_GUID_ed1ed747_b451_3bdc_998c_dc70841fb411@@3U__s_GUID@@B@@$$FSAAEBU_GUID@@XZ
.global	?GetIID@?$_com_IIID@UIUlsInfo@SPULS@@$1?_GUID_ed1ed747_b451_3bdc_998c_dc70841fb411@@3U__s_GUID@@B@@$$FSAAEBU_GUID@@XZ ; _com_IIID<SPULS::IUlsInfo,&_GUID_ed1ed747_b451_3bdc_998c_dc70841fb411>::GetIID
?GetIID@?$_com_IIID@UIUlsInfo@SPULS@@$1?_GUID_ed1ed747_b451_3bdc_998c_dc70841fb411@@3U__s_GUID@@B@@$$FSAAEBU_GUID@@XZ: ; _com_IIID<SPULS::IUlsInfo,&_GUID_ed1ed747_b451_3bdc_998c_dc70841fb411>::GetIID
;	.proc.def	D:J()

; Function Header:
; max stack depth = 1
; function size = 8 bytes
; local varsig tk = 0x11000012 
; Exception Information:
; 0 handlers, each consisting of filtered handlers

;	.local.i8 0,"$T74141" SIG: Optional C Binding Modifier(token:0x3B4B75).ptr.Optional C Binding Modifier(token:0x3B4B78).valueType (token:0x3B4B7A)

;	.proc.beg

; 56   :         return *_IID;

	ldsflda		_GUID_ed1ed747_b451_3bdc_998c_dc70841fb411
	stloc.0				; $T74141

; 57   :     }

	ldloc.0				; $T74141
	ret		
 .end ?GetIID@?$_com_IIID@UIUlsInfo@SPULS@@$1?_GUID_ed1ed747_b451_3bdc_998c_dc70841fb411@@3U__s_GUID@@B@@$$FSAAEBU_GUID@@XZ ; _com_IIID<SPULS::IUlsInfo,&_GUID_ed1ed747_b451_3bdc_998c_dc70841fb411>::GetIID
;	.proc.end.i8
_TEXT	ENDS
PUBLIC	__mep@?GetIID@?$_com_IIID@UIUlsInfo@SPULS@@$1?_GUID_ed1ed747_b451_3bdc_998c_dc70841fb411@@3U__s_GUID@@B@@$$FSAAEBU_GUID@@XZ
PUBLIC	__m2mep@?GetIID@?$_com_IIID@UIUlsInfo@SPULS@@$1?_GUID_ed1ed747_b451_3bdc_998c_dc70841fb411@@3U__s_GUID@@B@@$$FSAAEBU_GUID@@XZ
PUBLIC	__t2m@?GetIID@?$_com_IIID@UIUlsInfo@SPULS@@$1?_GUID_ed1ed747_b451_3bdc_998c_dc70841fb411@@3U__s_GUID@@B@@SAAEBU_GUID@@XZ
;	COMDAT __mep@?GetIID@?$_com_IIID@UIUlsInfo@SPULS@@$1?_GUID_ed1ed747_b451_3bdc_998c_dc70841fb411@@3U__s_GUID@@B@@$$FSAAEBU_GUID@@XZ
data	SEGMENT
__mep@?GetIID@?$_com_IIID@UIUlsInfo@SPULS@@$1?_GUID_ed1ed747_b451_3bdc_998c_dc70841fb411@@3U__s_GUID@@B@@$$FSAAEBU_GUID@@XZ TOKEN 0A00004D
data	ENDS
;	COMDAT __m2mep@?GetIID@?$_com_IIID@UIUlsInfo@SPULS@@$1?_GUID_ed1ed747_b451_3bdc_998c_dc70841fb411@@3U__s_GUID@@B@@$$FSAAEBU_GUID@@XZ
data	SEGMENT
__m2mep@?GetIID@?$_com_IIID@UIUlsInfo@SPULS@@$1?_GUID_ed1ed747_b451_3bdc_998c_dc70841fb411@@3U__s_GUID@@B@@$$FSAAEBU_GUID@@XZ DD FLAT:?GetIID@?$_com_IIID@UIUlsInfo@SPULS@@$1?_GUID_ed1ed747_b451_3bdc_998c_dc70841fb411@@3U__s_GUID@@B@@$$FSAAEBU_GUID@@XZ
; Function compile flags: /Odtp
data	ENDS
;	COMDAT nep
_TEXT	SEGMENT
__t2m@?GetIID@?$_com_IIID@UIUlsInfo@SPULS@@$1?_GUID_ed1ed747_b451_3bdc_998c_dc70841fb411@@3U__s_GUID@@B@@SAAEBU_GUID@@XZ PROC ; COMDAT
	jmp	SHORT $LN1@
	ud2
$LN2@:
	jmp	QWORD PTR __m2mep@?GetIID@?$_com_IIID@UIUlsInfo@SPULS@@$1?_GUID_ed1ed747_b451_3bdc_998c_dc70841fb411@@3U__s_GUID@@B@@$$FSAAEBU_GUID@@XZ
$LN1@:
	jmp	QWORD PTR __mep@?GetIID@?$_com_IIID@UIUlsInfo@SPULS@@$1?_GUID_ed1ed747_b451_3bdc_998c_dc70841fb411@@3U__s_GUID@@B@@$$FSAAEBU_GUID@@XZ
__t2m@?GetIID@?$_com_IIID@UIUlsInfo@SPULS@@$1?_GUID_ed1ed747_b451_3bdc_998c_dc70841fb411@@3U__s_GUID@@B@@SAAEBU_GUID@@XZ ENDP
.global	
	.bss
.local	,4
; Function compile flags: /Odtp
; File c:\program files (x86)\microsoft visual studio 9.0\vc\include\comutil.h
	.text
	.comdat	any, ?_AddRef@_bstr_t@@$$FAEAAXXZ
.global	?_AddRef@_bstr_t@@$$FAEAAXXZ			; _bstr_t::_AddRef
?_AddRef@_bstr_t@@$$FAEAAXXZ:				; _bstr_t::_AddRef
;	.proc.def	D:V(J)

; Function Header:
; max stack depth = 1
; function size = 13 bytes
; local varsig tk = 0x0 
; Exception Information:
; 0 handlers, each consisting of filtered handlers

;	.formal.i8 0,"this$" SIG: Optional C Binding Modifier(token:0x3D5DD5).Optional C Binding Modifier(token:0x3D5DD7).ptr.valueType (token:0x3D5DDA)

;	.proc.beg

; 628  :     if (m_Data != NULL) {

	ldarg.0				; this$
	ldind.i8	
	brfalse.s	$LN2@AddRef

; 629  :         m_Data->AddRef();

	ldarg.0				; this$
	ldind.i8	
	call		?AddRef@Data_t@_bstr_t@@$$FQEAAKXZ
	pop		
$LN2@AddRef:

; 630  :     }
; 631  : }

	ret		
 .end ?_AddRef@_bstr_t@@$$FAEAAXXZ			; _bstr_t::_AddRef
;	.proc.end.void
_TEXT	ENDS
PUBLIC	__mep@?_AddRef@_bstr_t@@$$FAEAAXXZ
PUBLIC	__m2mep@?_AddRef@_bstr_t@@$$FAEAAXXZ
PUBLIC	__t2m@?_AddRef@_bstr_t@@AEAAXXZ
;	COMDAT __mep@?_AddRef@_bstr_t@@$$FAEAAXXZ
data	SEGMENT
__mep@?_AddRef@_bstr_t@@$$FAEAAXXZ TOKEN 0A000025
data	ENDS
;	COMDAT __m2mep@?_AddRef@_bstr_t@@$$FAEAAXXZ
data	SEGMENT
__m2mep@?_AddRef@_bstr_t@@$$FAEAAXXZ DD FLAT:?_AddRef@_bstr_t@@$$FAEAAXXZ
; Function compile flags: /Odtp
data	ENDS
;	COMDAT nep
_TEXT	SEGMENT
__t2m@?_AddRef@_bstr_t@@AEAAXXZ PROC			; COMDAT
	jmp	SHORT $LN1@
	ud2
$LN2@:
	jmp	QWORD PTR __m2mep@?_AddRef@_bstr_t@@$$FAEAAXXZ
$LN1@:
	jmp	QWORD PTR __mep@?_AddRef@_bstr_t@@$$FAEAAXXZ
__t2m@?_AddRef@_bstr_t@@AEAAXXZ ENDP
; Function compile flags: /Odtp
; File c:\program files (x86)\microsoft visual studio 9.0\vc\include\comip.h
	.text
	.comdat	any, ??1?$_com_ptr_t@V?$_com_IIID@UIUlsInfo@SPULS@@$1?_GUID_ed1ed747_b451_3bdc_998c_dc70841fb411@@3U__s_GUID@@B@@@@$$FQEAA@XZ
.global	??1?$_com_ptr_t@V?$_com_IIID@UIUlsInfo@SPULS@@$1?_GUID_ed1ed747_b451_3bdc_998c_dc70841fb411@@3U__s_GUID@@B@@@@$$FQEAA@XZ ; _com_ptr_t<_com_IIID<SPULS::IUlsInfo,&_GUID_ed1ed747_b451_3bdc_998c_dc70841fb411> >::~_com_ptr_t<_com_IIID<SPULS::IUlsInfo,&_GUID_ed1ed747_b451_3bdc_998c_dc70841fb411> >
??1?$_com_ptr_t@V?$_com_IIID@UIUlsInfo@SPULS@@$1?_GUID_ed1ed747_b451_3bdc_998c_dc70841fb411@@3U__s_GUID@@B@@@@$$FQEAA@XZ: ; _com_ptr_t<_com_IIID<SPULS::IUlsInfo,&_GUID_ed1ed747_b451_3bdc_998c_dc70841fb411> >::~_com_ptr_t<_com_IIID<SPULS::IUlsInfo,&_GUID_ed1ed747_b451_3bdc_998c_dc70841fb411> >
;	.proc.def	D:V(J)

; Function Header:
; max stack depth = 1
; function size = 7 bytes
; local varsig tk = 0x0 
; Exception Information:
; 0 handlers, each consisting of filtered handlers

;	.formal.i8 0,"this$" SIG: Optional C Binding Modifier(token:0x3C4E9D).Optional C Binding Modifier(token:0x3C4E9F).ptr.valueType (token:0x3C4EA2)

;	.proc.beg

; 309  :         _Release(); 

	ldarg.0				; this$
	call		?_Release@?$_com_ptr_t@V?$_com_IIID@UIUlsInfo@SPULS@@$1?_GUID_ed1ed747_b451_3bdc_998c_dc70841fb411@@3U__s_GUID@@B@@@@$$FAEAAXXZ

; 310  :     }

	ret		
 .end ??1?$_com_ptr_t@V?$_com_IIID@UIUlsInfo@SPULS@@$1?_GUID_ed1ed747_b451_3bdc_998c_dc70841fb411@@3U__s_GUID@@B@@@@$$FQEAA@XZ ; _com_ptr_t<_com_IIID<SPULS::IUlsInfo,&_GUID_ed1ed747_b451_3bdc_998c_dc70841fb411> >::~_com_ptr_t<_com_IIID<SPULS::IUlsInfo,&_GUID_ed1ed747_b451_3bdc_998c_dc70841fb411> >
;	.proc.end.void
_TEXT	ENDS
PUBLIC	__mep@??1?$_com_ptr_t@V?$_com_IIID@UIUlsInfo@SPULS@@$1?_GUID_ed1ed747_b451_3bdc_998c_dc70841fb411@@3U__s_GUID@@B@@@@$$FQEAA@XZ
PUBLIC	__m2mep@??1?$_com_ptr_t@V?$_com_IIID@UIUlsInfo@SPULS@@$1?_GUID_ed1ed747_b451_3bdc_998c_dc70841fb411@@3U__s_GUID@@B@@@@$$FQEAA@XZ
PUBLIC	__t2m@??1?$_com_ptr_t@V?$_com_IIID@UIUlsInfo@SPULS@@$1?_GUID_ed1ed747_b451_3bdc_998c_dc70841fb411@@3U__s_GUID@@B@@@@QEAA@XZ
;	COMDAT __mep@??1?$_com_ptr_t@V?$_com_IIID@UIUlsInfo@SPULS@@$1?_GUID_ed1ed747_b451_3bdc_998c_dc70841fb411@@3U__s_GUID@@B@@@@$$FQEAA@XZ
data	SEGMENT
__mep@??1?$_com_ptr_t@V?$_com_IIID@UIUlsInfo@SPULS@@$1?_GUID_ed1ed747_b451_3bdc_998c_dc70841fb411@@3U__s_GUID@@B@@@@$$FQEAA@XZ TOKEN 0A000048
data	ENDS
;	COMDAT __m2mep@??1?$_com_ptr_t@V?$_com_IIID@UIUlsInfo@SPULS@@$1?_GUID_ed1ed747_b451_3bdc_998c_dc70841fb411@@3U__s_GUID@@B@@@@$$FQEAA@XZ
data	SEGMENT
__m2mep@??1?$_com_ptr_t@V?$_com_IIID@UIUlsInfo@SPULS@@$1?_GUID_ed1ed747_b451_3bdc_998c_dc70841fb411@@3U__s_GUID@@B@@@@$$FQEAA@XZ DD FLAT:??1?$_com_ptr_t@V?$_com_IIID@UIUlsInfo@SPULS@@$1?_GUID_ed1ed747_b451_3bdc_998c_dc70841fb411@@3U__s_GUID@@B@@@@$$FQEAA@XZ
; Function compile flags: /Odtp
data	ENDS
;	COMDAT nep
_TEXT	SEGMENT
__t2m@??1?$_com_ptr_t@V?$_com_IIID@UIUlsInfo@SPULS@@$1?_GUID_ed1ed747_b451_3bdc_998c_dc70841fb411@@3U__s_GUID@@B@@@@QEAA@XZ PROC ; COMDAT
	jmp	SHORT $LN1@
	ud2
$LN2@:
	jmp	QWORD PTR __m2mep@??1?$_com_ptr_t@V?$_com_IIID@UIUlsInfo@SPULS@@$1?_GUID_ed1ed747_b451_3bdc_998c_dc70841fb411@@3U__s_GUID@@B@@@@$$FQEAA@XZ
$LN1@:
	jmp	QWORD PTR __mep@??1?$_com_ptr_t@V?$_com_IIID@UIUlsInfo@SPULS@@$1?_GUID_ed1ed747_b451_3bdc_998c_dc70841fb411@@3U__s_GUID@@B@@@@$$FQEAA@XZ
__t2m@??1?$_com_ptr_t@V?$_com_IIID@UIUlsInfo@SPULS@@$1?_GUID_ed1ed747_b451_3bdc_998c_dc70841fb411@@3U__s_GUID@@B@@@@QEAA@XZ ENDP
	.bss
.local	$T74172,0
; Function compile flags: /Odtp
	.text
	.comdat	any, ?GetIID@?$_com_ptr_t@V?$_com_IIID@UIUlsInfo@SPULS@@$1?_GUID_ed1ed747_b451_3bdc_998c_dc70841fb411@@3U__s_GUID@@B@@@@$$FSAAEBU_GUID@@XZ
.global	?GetIID@?$_com_ptr_t@V?$_com_IIID@UIUlsInfo@SPULS@@$1?_GUID_ed1ed747_b451_3bdc_998c_dc70841fb411@@3U__s_GUID@@B@@@@$$FSAAEBU_GUID@@XZ ; _com_ptr_t<_com_IIID<SPULS::IUlsInfo,&_GUID_ed1ed747_b451_3bdc_998c_dc70841fb411> >::GetIID
?GetIID@?$_com_ptr_t@V?$_com_IIID@UIUlsInfo@SPULS@@$1?_GUID_ed1ed747_b451_3bdc_998c_dc70841fb411@@3U__s_GUID@@B@@@@$$FSAAEBU_GUID@@XZ: ; _com_ptr_t<_com_IIID<SPULS::IUlsInfo,&_GUID_ed1ed747_b451_3bdc_998c_dc70841fb411> >::GetIID
;	.proc.def	D:J()

; Function Header:
; max stack depth = 1
; function size = 8 bytes
; local varsig tk = 0x11000012 
; Exception Information:
; 0 handlers, each consisting of filtered handlers

;	.local.i8 0,"$T74171" SIG: Optional C Binding Modifier(token:0x3B40C1).ptr.Optional C Binding Modifier(token:0x3B40C4).valueType (token:0x3B40C6)

;	.proc.beg

; 75   :         return ThisIIID::GetIID(); 

	call		?GetIID@?$_com_IIID@UIUlsInfo@SPULS@@$1?_GUID_ed1ed747_b451_3bdc_998c_dc70841fb411@@3U__s_GUID@@B@@$$FSAAEBU_GUID@@XZ
	stloc.0				; $T74171

; 76   :     }

	ldloc.0				; $T74171
	ret		
 .end ?GetIID@?$_com_ptr_t@V?$_com_IIID@UIUlsInfo@SPULS@@$1?_GUID_ed1ed747_b451_3bdc_998c_dc70841fb411@@3U__s_GUID@@B@@@@$$FSAAEBU_GUID@@XZ ; _com_ptr_t<_com_IIID<SPULS::IUlsInfo,&_GUID_ed1ed747_b451_3bdc_998c_dc70841fb411> >::GetIID
;	.proc.end.i8
_TEXT	ENDS
PUBLIC	__mep@?GetIID@?$_com_ptr_t@V?$_com_IIID@UIUlsInfo@SPULS@@$1?_GUID_ed1ed747_b451_3bdc_998c_dc70841fb411@@3U__s_GUID@@B@@@@$$FSAAEBU_GUID@@XZ
PUBLIC	__m2mep@?GetIID@?$_com_ptr_t@V?$_com_IIID@UIUlsInfo@SPULS@@$1?_GUID_ed1ed747_b451_3bdc_998c_dc70841fb411@@3U__s_GUID@@B@@@@$$FSAAEBU_GUID@@XZ
PUBLIC	__t2m@?GetIID@?$_com_ptr_t@V?$_com_IIID@UIUlsInfo@SPULS@@$1?_GUID_ed1ed747_b451_3bdc_998c_dc70841fb411@@3U__s_GUID@@B@@@@SAAEBU_GUID@@XZ
;	COMDAT __mep@?GetIID@?$_com_ptr_t@V?$_com_IIID@UIUlsInfo@SPULS@@$1?_GUID_ed1ed747_b451_3bdc_998c_dc70841fb411@@3U__s_GUID@@B@@@@$$FSAAEBU_GUID@@XZ
data	SEGMENT
__mep@?GetIID@?$_com_ptr_t@V?$_com_IIID@UIUlsInfo@SPULS@@$1?_GUID_ed1ed747_b451_3bdc_998c_dc70841fb411@@3U__s_GUID@@B@@@@$$FSAAEBU_GUID@@XZ TOKEN 0A00004C
data	ENDS
;	COMDAT __m2mep@?GetIID@?$_com_ptr_t@V?$_com_IIID@UIUlsInfo@SPULS@@$1?_GUID_ed1ed747_b451_3bdc_998c_dc70841fb411@@3U__s_GUID@@B@@@@$$FSAAEBU_GUID@@XZ
data	SEGMENT
__m2mep@?GetIID@?$_com_ptr_t@V?$_com_IIID@UIUlsInfo@SPULS@@$1?_GUID_ed1ed747_b451_3bdc_998c_dc70841fb411@@3U__s_GUID@@B@@@@$$FSAAEBU_GUID@@XZ DD FLAT:?GetIID@?$_com_ptr_t@V?$_com_IIID@UIUlsInfo@SPULS@@$1?_GUID_ed1ed747_b451_3bdc_998c_dc70841fb411@@3U__s_GUID@@B@@@@$$FSAAEBU_GUID@@XZ
; Function compile flags: /Odtp
data	ENDS
;	COMDAT nep
_TEXT	SEGMENT
__t2m@?GetIID@?$_com_ptr_t@V?$_com_IIID@UIUlsInfo@SPULS@@$1?_GUID_ed1ed747_b451_3bdc_998c_dc70841fb411@@3U__s_GUID@@B@@@@SAAEBU_GUID@@XZ PROC ; COMDAT
	jmp	SHORT $LN1@
	ud2
$LN2@:
	jmp	QWORD PTR __m2mep@?GetIID@?$_com_ptr_t@V?$_com_IIID@UIUlsInfo@SPULS@@$1?_GUID_ed1ed747_b451_3bdc_998c_dc70841fb411@@3U__s_GUID@@B@@@@$$FSAAEBU_GUID@@XZ
$LN1@:
	jmp	QWORD PTR __mep@?GetIID@?$_com_ptr_t@V?$_com_IIID@UIUlsInfo@SPULS@@$1?_GUID_ed1ed747_b451_3bdc_998c_dc70841fb411@@3U__s_GUID@@B@@@@$$FSAAEBU_GUID@@XZ
__t2m@?GetIID@?$_com_ptr_t@V?$_com_IIID@UIUlsInfo@SPULS@@$1?_GUID_ed1ed747_b451_3bdc_998c_dc70841fb411@@3U__s_GUID@@B@@@@SAAEBU_GUID@@XZ ENDP
.global	
	.bss
.local	,4
; Function compile flags: /Odtp
; File c:\program files (x86)\microsoft visual studio 9.0\vc\include\comutil.h
	.text
	.comdat	any, ??0_bstr_t@@$$FQEAA@AEBV0@@Z
.global	??0_bstr_t@@$$FQEAA@AEBV0@@Z			; _bstr_t::_bstr_t
??0_bstr_t@@$$FQEAA@AEBV0@@Z:				; _bstr_t::_bstr_t
;	.proc.def	D:J(JJ)

; Function Header:
; max stack depth = 2
; function size = 12 bytes
; local varsig tk = 0x0 
; Exception Information:
; 0 handlers, each consisting of filtered handlers

;	.formal.i8 1,"s$" SIG: Optional C Binding Modifier(token:0x3CE23D).ptr.Optional C Binding Modifier(token:0x3CE240).valueType (token:0x3CE242)
;	.formal.i8 0,"this$" SIG: Optional C Binding Modifier(token:0x3D5DD5).Optional C Binding Modifier(token:0x3D5DD7).ptr.valueType (token:0x3D5DDA)

;	.proc.beg

; 304  : {

	ldarg.0				; this$
	ldarg.1				; s$
	ldind.i8	
	stind.i8	

; 305  :     _AddRef();

	ldarg.0				; this$
	call		?_AddRef@_bstr_t@@$$FAEAAXXZ

; 306  : }

	ldarg.0				; this$
	ret		
 .end ??0_bstr_t@@$$FQEAA@AEBV0@@Z			; _bstr_t::_bstr_t
;	.proc.end.i8
_TEXT	ENDS
PUBLIC	__mep@??0_bstr_t@@$$FQEAA@AEBV0@@Z
PUBLIC	__m2mep@??0_bstr_t@@$$FQEAA@AEBV0@@Z
PUBLIC	__t2m@??0_bstr_t@@QEAA@AEBV0@@Z
;	COMDAT __mep@??0_bstr_t@@$$FQEAA@AEBV0@@Z
data	SEGMENT
__mep@??0_bstr_t@@$$FQEAA@AEBV0@@Z TOKEN 0A000017
data	ENDS
;	COMDAT __m2mep@??0_bstr_t@@$$FQEAA@AEBV0@@Z
data	SEGMENT
__m2mep@??0_bstr_t@@$$FQEAA@AEBV0@@Z DD FLAT:??0_bstr_t@@$$FQEAA@AEBV0@@Z
; Function compile flags: /Odtp
data	ENDS
;	COMDAT nep
_TEXT	SEGMENT
__t2m@??0_bstr_t@@QEAA@AEBV0@@Z PROC			; COMDAT
	jmp	SHORT $LN1@
	ud2
$LN2@:
	jmp	QWORD PTR __m2mep@??0_bstr_t@@$$FQEAA@AEBV0@@Z
$LN1@:
	jmp	QWORD PTR __mep@??0_bstr_t@@$$FQEAA@AEBV0@@Z
__t2m@??0_bstr_t@@QEAA@AEBV0@@Z ENDP
.global	_GUID_00000000_0000_0000_c000_000000000046
.global	
.global	
.global	
	.bss
.local	$T74196,0
.local	$SigTok$$$A8IUnknown@@EAAJPEBU_GUID@@PEAPEAX@Z,4
.local	,4
.local	,4
.local	,4
; File c:\program files (x86)\microsoft visual studio 9.0\vc\include\comip.h
	.rdata
	.comdat	any, _GUID_00000000_0000_0000_c000_000000000046

_GUID_00000000_0000_0000_c000_000000000046:
	.word	0x0
	.short	0x0
	.short	0x0
	.byte	0xc0
	.byte	0x0
	.byte	0x0
	.byte	0x0
	.byte	0x0
	.byte	0x0
	.byte	0x0
	.byte	0x46
; Function compile flags: /Odtp
	.text
	.comdat	any, ?CreateInstance@?$_com_ptr_t@V?$_com_IIID@UIUlsInfo@SPULS@@$1?_GUID_ed1ed747_b451_3bdc_998c_dc70841fb411@@3U__s_GUID@@B@@@@$$FQEAAJAEBU_GUID@@PEAUIUnknown@@K@Z
.global	?CreateInstance@?$_com_ptr_t@V?$_com_IIID@UIUlsInfo@SPULS@@$1?_GUID_ed1ed747_b451_3bdc_998c_dc70841fb411@@3U__s_GUID@@B@@@@$$FQEAAJAEBU_GUID@@PEAUIUnknown@@K@Z ; _com_ptr_t<_com_IIID<SPULS::IUlsInfo,&_GUID_ed1ed747_b451_3bdc_998c_dc70841fb411> >::CreateInstance
?CreateInstance@?$_com_ptr_t@V?$_com_IIID@UIUlsInfo@SPULS@@$1?_GUID_ed1ed747_b451_3bdc_998c_dc70841fb411@@3U__s_GUID@@B@@@@$$FQEAAJAEBU_GUID@@PEAUIUnknown@@K@Z: ; _com_ptr_t<_com_IIID<SPULS::IUlsInfo,&_GUID_ed1ed747_b451_3bdc_998c_dc70841fb411> >::CreateInstance
;	.proc.def	D:I(JJJI)

; Function Header:
; max stack depth = 5
; function size = 102 bytes
; local varsig tk = 0x11000018 
; Exception Information:
; 0 handlers, each consisting of filtered handlers

;	.formal.i8 2,"pOuter$" SIG: ptr.valueType (token:0x3BFA26)
;	.formal.i8 1,"rclsid$" SIG: Optional C Binding Modifier(token:0x3BFE59).ptr.Optional C Binding Modifier(token:0x3BFE5C).valueType (token:0x3BFE5E)
;	.formal.u4 3,"dwClsContext$" SIG: Optional C Binding Modifier(token:0x3D810D).u4
;	.formal.i8 0,"this$" SIG: Optional C Binding Modifier(token:0x3C4E9D).Optional C Binding Modifier(token:0x3C4E9F).ptr.valueType (token:0x3C4EA2)
;	.local.i4 2,"$T74192" SIG: Optional C Binding Modifier(token:0x3B2A39).i4
;	.local.i4 0,"hr$" SIG: Optional C Binding Modifier(token:0x3B790D).i4
;	.local.i8 1,"pIUnknown$73022" SIG: ptr.valueType (token:0x3BFA26)

;	.proc.beg

; 622  :         HRESULT hr;
; 623  : 
; 624  :         _Release();

	ldarg.0				; this$
	call		?_Release@?$_com_ptr_t@V?$_com_IIID@UIUlsInfo@SPULS@@$1?_GUID_ed1ed747_b451_3bdc_998c_dc70841fb411@@3U__s_GUID@@B@@@@$$FAEAAXXZ

; 625  : 
; 626  :         if (dwClsContext & (CLSCTX_LOCAL_SERVER | CLSCTX_REMOTE_SERVER)) {

	ldarg.3				; dwClsContext$
	ldc.i4.s	20		; u32 0x14
	and		
	brfalse.s	$LN5@CreateInst

; 627  :             IUnknown* pIUnknown;
; 628  :             hr = CoCreateInstance(rclsid, pOuter, dwClsContext, __uuidof(IUnknown), reinterpret_cast<void**>(&pIUnknown));

	ldarg.1				; rclsid$
	ldarg.2				; pOuter$
	ldarg.3				; dwClsContext$
	ldsflda		_GUID_00000000_0000_0000_c000_000000000046
	ldloca.s	1		; pIUnknown$73022
	call		?CoCreateInstance@@$$J0YAJAEBU_GUID@@PEAUIUnknown@@K0PEAPEAX@Z
	stloc.0				; hr$

; 629  : 
; 630  :             if (SUCCEEDED(hr)) {

	ldloc.0				; hr$
	ldc.i.0		0		; i32 0x0
	blt.s		$LN4@CreateInst

; 631  :                 hr = OleRun(pIUnknown);

	ldloc.1				; pIUnknown$73022
	call		?OleRun@@$$J0YAJPEAUIUnknown@@@Z
	stloc.0				; hr$

; 632  : 
; 633  :                 if (SUCCEEDED(hr)) {

	ldloc.0				; hr$
	ldc.i.0		0		; i32 0x0
	blt.s		$LN3@CreateInst

; 634  :                     hr = pIUnknown->QueryInterface(GetIID(), reinterpret_cast<void**>(&m_pInterface));

	ldloc.1				; pIUnknown$73022
	call		?GetIID@?$_com_ptr_t@V?$_com_IIID@UIUlsInfo@SPULS@@$1?_GUID_ed1ed747_b451_3bdc_998c_dc70841fb411@@3U__s_GUID@@B@@@@$$FSAAEBU_GUID@@XZ
	ldarg.0				; this$
	ldloc.1				; pIUnknown$73022
	ldind.i8	
	ldind.i8	
	calli		D:I(JJJ)
	stloc.0				; hr$
$LN3@CreateInst:

; 635  :                 }
; 636  : 
; 637  :                 pIUnknown->Release();

	ldloc.1				; pIUnknown$73022
	dup		
	ldind.i8	
	ldc.i4.s	16		; i64 0x10
	conv.i8		
	add		
	ldind.i8	
	calli		D:I(J)
	pop		
$LN4@CreateInst:

; 638  :             }
; 639  :         }
; 640  :         else {

	br.s		$LN2@CreateInst
$LN5@CreateInst:

; 641  :             hr = CoCreateInstance(rclsid, pOuter, dwClsContext, GetIID(), reinterpret_cast<void**>(&m_pInterface));

	ldarg.1				; rclsid$
	ldarg.2				; pOuter$
	ldarg.3				; dwClsContext$
	call		?GetIID@?$_com_ptr_t@V?$_com_IIID@UIUlsInfo@SPULS@@$1?_GUID_ed1ed747_b451_3bdc_998c_dc70841fb411@@3U__s_GUID@@B@@@@$$FSAAEBU_GUID@@XZ
	ldarg.0				; this$
	call		?CoCreateInstance@@$$J0YAJAEBU_GUID@@PEAUIUnknown@@K0PEAPEAX@Z
	stloc.0				; hr$
$LN2@CreateInst:

; 642  :         }
; 643  : 
; 644  :         if (FAILED(hr)) {

	ldloc.0				; hr$
	ldc.i.0		0		; i32 0x0
	bge.s		$LN1@CreateInst

; 645  :             // just in case refcount = 0 and dtor gets called
; 646  :             m_pInterface = NULL;

	ldarg.0				; this$
	ldc.i.0		0		; i64 0x0
	conv.i8		
	stind.i8	
$LN1@CreateInst:

; 647  :         }
; 648  : 
; 649  :         return hr;

	ldloc.0				; hr$
	stloc.2				; $T74192

; 650  :     }

	ldloc.2				; $T74192
	ret		
 .end ?CreateInstance@?$_com_ptr_t@V?$_com_IIID@UIUlsInfo@SPULS@@$1?_GUID_ed1ed747_b451_3bdc_998c_dc70841fb411@@3U__s_GUID@@B@@@@$$FQEAAJAEBU_GUID@@PEAUIUnknown@@K@Z ; _com_ptr_t<_com_IIID<SPULS::IUlsInfo,&_GUID_ed1ed747_b451_3bdc_998c_dc70841fb411> >::CreateInstance
;	.proc.end.i4
_TEXT	ENDS
PUBLIC	__mep@?CreateInstance@?$_com_ptr_t@V?$_com_IIID@UIUlsInfo@SPULS@@$1?_GUID_ed1ed747_b451_3bdc_998c_dc70841fb411@@3U__s_GUID@@B@@@@$$FQEAAJAEBU_GUID@@PEAUIUnknown@@K@Z
PUBLIC	__m2mep@?CreateInstance@?$_com_ptr_t@V?$_com_IIID@UIUlsInfo@SPULS@@$1?_GUID_ed1ed747_b451_3bdc_998c_dc70841fb411@@3U__s_GUID@@B@@@@$$FQEAAJAEBU_GUID@@PEAUIUnknown@@K@Z
PUBLIC	__t2m@?CreateInstance@?$_com_ptr_t@V?$_com_IIID@UIUlsInfo@SPULS@@$1?_GUID_ed1ed747_b451_3bdc_998c_dc70841fb411@@3U__s_GUID@@B@@@@QEAAJAEBU_GUID@@PEAUIUnknown@@K@Z
;	COMDAT __mep@?CreateInstance@?$_com_ptr_t@V?$_com_IIID@UIUlsInfo@SPULS@@$1?_GUID_ed1ed747_b451_3bdc_998c_dc70841fb411@@3U__s_GUID@@B@@@@$$FQEAAJAEBU_GUID@@PEAUIUnknown@@K@Z
data	SEGMENT
__mep@?CreateInstance@?$_com_ptr_t@V?$_com_IIID@UIUlsInfo@SPULS@@$1?_GUID_ed1ed747_b451_3bdc_998c_dc70841fb411@@3U__s_GUID@@B@@@@$$FQEAAJAEBU_GUID@@PEAUIUnknown@@K@Z TOKEN 0A00004A
data	ENDS
;	COMDAT __m2mep@?CreateInstance@?$_com_ptr_t@V?$_com_IIID@UIUlsInfo@SPULS@@$1?_GUID_ed1ed747_b451_3bdc_998c_dc70841fb411@@3U__s_GUID@@B@@@@$$FQEAAJAEBU_GUID@@PEAUIUnknown@@K@Z
data	SEGMENT
__m2mep@?CreateInstance@?$_com_ptr_t@V?$_com_IIID@UIUlsInfo@SPULS@@$1?_GUID_ed1ed747_b451_3bdc_998c_dc70841fb411@@3U__s_GUID@@B@@@@$$FQEAAJAEBU_GUID@@PEAUIUnknown@@K@Z DD FLAT:?CreateInstance@?$_com_ptr_t@V?$_com_IIID@UIUlsInfo@SPULS@@$1?_GUID_ed1ed747_b451_3bdc_998c_dc70841fb411@@3U__s_GUID@@B@@@@$$FQEAAJAEBU_GUID@@PEAUIUnknown@@K@Z
; Function compile flags: /Odtp
data	ENDS
;	COMDAT nep
_TEXT	SEGMENT
__t2m@?CreateInstance@?$_com_ptr_t@V?$_com_IIID@UIUlsInfo@SPULS@@$1?_GUID_ed1ed747_b451_3bdc_998c_dc70841fb411@@3U__s_GUID@@B@@@@QEAAJAEBU_GUID@@PEAUIUnknown@@K@Z PROC ; COMDAT
	jmp	SHORT $LN1@
	ud2
$LN2@:
	jmp	QWORD PTR __m2mep@?CreateInstance@?$_com_ptr_t@V?$_com_IIID@UIUlsInfo@SPULS@@$1?_GUID_ed1ed747_b451_3bdc_998c_dc70841fb411@@3U__s_GUID@@B@@@@$$FQEAAJAEBU_GUID@@PEAUIUnknown@@K@Z
$LN1@:
	jmp	QWORD PTR __mep@?CreateInstance@?$_com_ptr_t@V?$_com_IIID@UIUlsInfo@SPULS@@$1?_GUID_ed1ed747_b451_3bdc_998c_dc70841fb411@@3U__s_GUID@@B@@@@$$FQEAAJAEBU_GUID@@PEAUIUnknown@@K@Z
__t2m@?CreateInstance@?$_com_ptr_t@V?$_com_IIID@UIUlsInfo@SPULS@@$1?_GUID_ed1ed747_b451_3bdc_998c_dc70841fb411@@3U__s_GUID@@B@@@@QEAAJAEBU_GUID@@PEAUIUnknown@@K@Z ENDP
	.bss
.local	$T74207,0
; Function compile flags: /Odtp
	.text
	.comdat	any, ??0?$_com_ptr_t@V?$_com_IIID@UIUlsInfo@SPULS@@$1?_GUID_ed1ed747_b451_3bdc_998c_dc70841fb411@@3U__s_GUID@@B@@@@$$FQEAA@AEBU_GUID@@PEAUIUnknown@@K@Z
.global	??0?$_com_ptr_t@V?$_com_IIID@UIUlsInfo@SPULS@@$1?_GUID_ed1ed747_b451_3bdc_998c_dc70841fb411@@3U__s_GUID@@B@@@@$$FQEAA@AEBU_GUID@@PEAUIUnknown@@K@Z ; _com_ptr_t<_com_IIID<SPULS::IUlsInfo,&_GUID_ed1ed747_b451_3bdc_998c_dc70841fb411> >::_com_ptr_t<_com_IIID<SPULS::IUlsInfo,&_GUID_ed1ed747_b451_3bdc_998c_dc70841fb411> >
??0?$_com_ptr_t@V?$_com_IIID@UIUlsInfo@SPULS@@$1?_GUID_ed1ed747_b451_3bdc_998c_dc70841fb411@@3U__s_GUID@@B@@@@$$FQEAA@AEBU_GUID@@PEAUIUnknown@@K@Z: ; _com_ptr_t<_com_IIID<SPULS::IUlsInfo,&_GUID_ed1ed747_b451_3bdc_998c_dc70841fb411> >::_com_ptr_t<_com_IIID<SPULS::IUlsInfo,&_GUID_ed1ed747_b451_3bdc_998c_dc70841fb411> >
;	.proc.def	D:J(JJJI)

; Function Header:
; max stack depth = 4
; function size = 36 bytes
; local varsig tk = 0x11000019 
; Exception Information:
; 0 handlers, each consisting of filtered handlers

;	.formal.u4 3,"dwClsContext$" SIG: Optional C Binding Modifier(token:0x3D810D).u4
;	.formal.i8 2,"pOuter$" SIG: ptr.valueType (token:0x3BFA26)
;	.formal.i8 1,"clsid$" SIG: Optional C Binding Modifier(token:0x3BFE59).ptr.Optional C Binding Modifier(token:0x3BFE5C).valueType (token:0x3BFE5E)
;	.formal.i8 0,"this$" SIG: Optional C Binding Modifier(token:0x3C4E9D).Optional C Binding Modifier(token:0x3C4E9F).ptr.valueType (token:0x3C4EA2)
;	.local.i8 1,"$T74206" SIG: Optional C Binding Modifier(token:0x3B0989).Optional C Binding Modifier(token:0x3B098B).ptr.valueType (token:0x3B098E)
;	.local.i4 0,"hr$" SIG: Optional C Binding Modifier(token:0x3B790D).i4

;	.proc.beg

; 192  :     {

	ldarg.0				; this$
	ldc.i.0		0		; i64 0x0
	conv.i8		
	stind.i8	

; 193  :         HRESULT hr = CreateInstance(clsid, pOuter, dwClsContext);

	ldarg.0				; this$
	ldarg.1				; clsid$
	ldarg.2				; pOuter$
	ldarg.3				; dwClsContext$
	call		?CreateInstance@?$_com_ptr_t@V?$_com_IIID@UIUlsInfo@SPULS@@$1?_GUID_ed1ed747_b451_3bdc_998c_dc70841fb411@@3U__s_GUID@@B@@@@$$FQEAAJAEBU_GUID@@PEAUIUnknown@@K@Z
	stloc.0				; hr$

; 194  : 
; 195  :         if (FAILED(hr) && (hr != E_NOINTERFACE)) {

	ldloc.0				; hr$
	ldc.i.0		0		; i32 0x0
	bge.s		$LN2@com_ptr_t@3
	ldloc.0				; hr$
	ldc.i4		-2147467262	; i32 0x80004002
	beq.s		$LN2@com_ptr_t@3

; 196  :             _com_issue_error(hr);

	ldloc.0				; hr$
	call		?_com_issue_error@@$$FYAXJ@Z
$LN2@com_ptr_t@3:

; 197  :         }
; 198  :     }

	ldarg.0				; this$
	stloc.1				; $T74206
	ldloc.1				; $T74206
	ret		
 .end ??0?$_com_ptr_t@V?$_com_IIID@UIUlsInfo@SPULS@@$1?_GUID_ed1ed747_b451_3bdc_998c_dc70841fb411@@3U__s_GUID@@B@@@@$$FQEAA@AEBU_GUID@@PEAUIUnknown@@K@Z ; _com_ptr_t<_com_IIID<SPULS::IUlsInfo,&_GUID_ed1ed747_b451_3bdc_998c_dc70841fb411> >::_com_ptr_t<_com_IIID<SPULS::IUlsInfo,&_GUID_ed1ed747_b451_3bdc_998c_dc70841fb411> >
;	.proc.end.i8
_TEXT	ENDS
PUBLIC	__mep@??0?$_com_ptr_t@V?$_com_IIID@UIUlsInfo@SPULS@@$1?_GUID_ed1ed747_b451_3bdc_998c_dc70841fb411@@3U__s_GUID@@B@@@@$$FQEAA@AEBU_GUID@@PEAUIUnknown@@K@Z
PUBLIC	__m2mep@??0?$_com_ptr_t@V?$_com_IIID@UIUlsInfo@SPULS@@$1?_GUID_ed1ed747_b451_3bdc_998c_dc70841fb411@@3U__s_GUID@@B@@@@$$FQEAA@AEBU_GUID@@PEAUIUnknown@@K@Z
PUBLIC	__t2m@??0?$_com_ptr_t@V?$_com_IIID@UIUlsInfo@SPULS@@$1?_GUID_ed1ed747_b451_3bdc_998c_dc70841fb411@@3U__s_GUID@@B@@@@QEAA@AEBU_GUID@@PEAUIUnknown@@K@Z
;	COMDAT __mep@??0?$_com_ptr_t@V?$_com_IIID@UIUlsInfo@SPULS@@$1?_GUID_ed1ed747_b451_3bdc_998c_dc70841fb411@@3U__s_GUID@@B@@@@$$FQEAA@AEBU_GUID@@PEAUIUnknown@@K@Z
data	SEGMENT
__mep@??0?$_com_ptr_t@V?$_com_IIID@UIUlsInfo@SPULS@@$1?_GUID_ed1ed747_b451_3bdc_998c_dc70841fb411@@3U__s_GUID@@B@@@@$$FQEAA@AEBU_GUID@@PEAUIUnknown@@K@Z TOKEN 0A000047
data	ENDS
;	COMDAT __m2mep@??0?$_com_ptr_t@V?$_com_IIID@UIUlsInfo@SPULS@@$1?_GUID_ed1ed747_b451_3bdc_998c_dc70841fb411@@3U__s_GUID@@B@@@@$$FQEAA@AEBU_GUID@@PEAUIUnknown@@K@Z
data	SEGMENT
__m2mep@??0?$_com_ptr_t@V?$_com_IIID@UIUlsInfo@SPULS@@$1?_GUID_ed1ed747_b451_3bdc_998c_dc70841fb411@@3U__s_GUID@@B@@@@$$FQEAA@AEBU_GUID@@PEAUIUnknown@@K@Z DD FLAT:??0?$_com_ptr_t@V?$_com_IIID@UIUlsInfo@SPULS@@$1?_GUID_ed1ed747_b451_3bdc_998c_dc70841fb411@@3U__s_GUID@@B@@@@$$FQEAA@AEBU_GUID@@PEAUIUnknown@@K@Z
; Function compile flags: /Odtp
data	ENDS
;	COMDAT nep
_TEXT	SEGMENT
__t2m@??0?$_com_ptr_t@V?$_com_IIID@UIUlsInfo@SPULS@@$1?_GUID_ed1ed747_b451_3bdc_998c_dc70841fb411@@3U__s_GUID@@B@@@@QEAA@AEBU_GUID@@PEAUIUnknown@@K@Z PROC ; COMDAT
	jmp	SHORT $LN1@
	ud2
$LN2@:
	jmp	QWORD PTR __m2mep@??0?$_com_ptr_t@V?$_com_IIID@UIUlsInfo@SPULS@@$1?_GUID_ed1ed747_b451_3bdc_998c_dc70841fb411@@3U__s_GUID@@B@@@@$$FQEAA@AEBU_GUID@@PEAUIUnknown@@K@Z
$LN1@:
	jmp	QWORD PTR __mep@??0?$_com_ptr_t@V?$_com_IIID@UIUlsInfo@SPULS@@$1?_GUID_ed1ed747_b451_3bdc_998c_dc70841fb411@@3U__s_GUID@@B@@@@$$FQEAA@AEBU_GUID@@PEAUIUnknown@@K@Z
__t2m@??0?$_com_ptr_t@V?$_com_IIID@UIUlsInfo@SPULS@@$1?_GUID_ed1ed747_b451_3bdc_998c_dc70841fb411@@3U__s_GUID@@B@@@@QEAA@AEBU_GUID@@PEAUIUnknown@@K@Z ENDP
.global	_GUID_2e3fe898_8a41_344a_8a55_74b4d0215c56
.global	
.global	
	.bss
.local	$T74229,0
.local	$SigTok$$$A8IUlsInfo@SPULS@@EAAJPEAPEA_W@Z,4
.local	,4
.local	,4
; File d:\gre\my stuff\ulslogview\ulslogview\spinterface.cpp
	.rdata
	.comdat	any, _GUID_2e3fe898_8a41_344a_8a55_74b4d0215c56

_GUID_2e3fe898_8a41_344a_8a55_74b4d0215c56:
	.word	0x2e3fe898
	.short	0x8a41
	.short	0x344a
	.byte	0x8a
	.byte	0x55
	.byte	0x74
	.byte	0xb4
	.byte	0xd0
	.byte	0x21
	.byte	0x5c
	.byte	0x56
; Function compile flags: /Odtp
	.text
.global	?GetLogLocation@@$$FYAPEA_WXZ			; GetLogLocation
?GetLogLocation@@$$FYAPEA_WXZ:				; GetLogLocation
;	.proc.def	D:J()

; Function Header:
; max stack depth = 4
; function size = 85 bytes
; local varsig tk = 0x1100001C 
; Exception Information:
; 1 handlers, each consisting of filtered handlers

;	.local.i8 1,"$T74222" SIG: ptr.char
;	.local.i8 2,"$T73002" SIG: ptr.char
;	.local.i8 3,"logLocation$" SIG: ptr.char
;	.local.i8 0,"$T74223" SIG: ptr.valueType (token:0x3B1DFE)
;	.local.mb8   5,"pICalc$" SIG: valueType (token:0x3D07F5)
;	.local.i4 4,"hr$" SIG: Optional C Binding Modifier(token:0x3B790D).i4

;	.proc.beg

; 11   :     // Initialize COM.
; 12   :     HRESULT hr = CoInitialize(NULL);

	ldc.i.0		0		; i64 0x0
	conv.i8		
	call		?CoInitialize@@$$J0YAJPEAX@Z
	stloc.s		4		; hr$

; 13   : 
; 14   :     // Create the interface pointer.
; 15   :     IUlsInfoPtr   pICalc(__uuidof(SPUlsInfo));

	ldloca.s	5		; pICalc$
	ldsflda		_GUID_2e3fe898_8a41_344a_8a55_74b4d0215c56
	ldc.i.0		0		; i64 0x0
	conv.i8		
	ldc.i4.s	23		; u32 0x17
	call		??0?$_com_ptr_t@V?$_com_IIID@UIUlsInfo@SPULS@@$1?_GUID_ed1ed747_b451_3bdc_998c_dc70841fb411@@3U__s_GUID@@B@@@@$$FQEAA@AEBU_GUID@@PEAUIUnknown@@K@Z
	pop		
$LN4@GetLogLoca:

; 16   : 
; 17   :   
; 18   : 	BSTR logLocation;
; 19   :     // Call the Add method.
; 20   :     hr=pICalc->GetLogLocation(&logLocation);

	ldloca.s	5		; pICalc$
	call		??C?$_com_ptr_t@V?$_com_IIID@UIUlsInfo@SPULS@@$1?_GUID_ed1ed747_b451_3bdc_998c_dc70841fb411@@3U__s_GUID@@B@@@@$$FQEBAPEAUIUlsInfo@SPULS@@XZ
	stloc.0				; $T74223
	ldloc.0				; $T74223
	ldloca.s	3		; logLocation$
	ldloc.0				; $T74223
	ldind.i8	
	ldc.i4.s	56		; i64 0x38
	conv.i8		
	add		
	ldind.i8	
	calli		D:I(JJ)
	stloc.s		4		; hr$

; 21   : 
; 22   :    // wprintf(L"The result is %s\n", logLocation);
; 23   : 
; 24   : 
; 25   :     // Uninitialize COM.
; 26   :     CoUninitialize();

	call		?CoUninitialize@@$$J0YAXXZ

; 27   :     return logLocation;

	ldloc.3				; logLocation$
	stloc.2				; $T73002
	leave.s		$LN5@GetLogLoca
$LN6@GetLogLoca:
	ldftn		??1?$_com_ptr_t@V?$_com_IIID@UIUlsInfo@SPULS@@$1?_GUID_ed1ed747_b451_3bdc_998c_dc70841fb411@@3U__s_GUID@@B@@@@$$FQEAA@XZ
	ldloca.s	5		; pICalc$
	call		?___CxxCallUnwindDtor@@$$J0YMXP6MXPEAX@Z0@Z
	endfinally	
$LN5@GetLogLoca:
	ldloca.s	5		; pICalc$
	call		??1?$_com_ptr_t@V?$_com_IIID@UIUlsInfo@SPULS@@$1?_GUID_ed1ed747_b451_3bdc_998c_dc70841fb411@@3U__s_GUID@@B@@@@$$FQEAA@XZ
	ldloc.2				; $T73002
	stloc.1				; $T74222

; 28   : }

	ldloc.1				; $T74222
	ret		
 .end ?GetLogLocation@@$$FYAPEA_WXZ			; GetLogLocation
;	.proc.end.i8
_TEXT	ENDS
PUBLIC	__mep@?GetLogLocation@@$$FYAPEA_WXZ
PUBLIC	__m2mep@?GetLogLocation@@$$FYAPEA_WXZ
PUBLIC	?GetLogLocation@@YAPEA_WXZ			; GetLogLocation
;	COMDAT __mep@?GetLogLocation@@$$FYAPEA_WXZ
data	SEGMENT
__mep@?GetLogLocation@@$$FYAPEA_WXZ TOKEN 0A000046
data	ENDS
;	COMDAT __m2mep@?GetLogLocation@@$$FYAPEA_WXZ
data	SEGMENT
__m2mep@?GetLogLocation@@$$FYAPEA_WXZ DD FLAT:?GetLogLocation@@$$FYAPEA_WXZ
; Function compile flags: /Odtp
data	ENDS
;	COMDAT nep
_TEXT	SEGMENT
?GetLogLocation@@YAPEA_WXZ PROC				; GetLogLocation, COMDAT
	jmp	SHORT $LN1@GetLogLoca@2
	ud2
	jmp	QWORD PTR __m2mep@?GetLogLocation@@$$FYAPEA_WXZ
$LN1@GetLogLoca@2:
	jmp	QWORD PTR __mep@?GetLogLocation@@$$FYAPEA_WXZ
?GetLogLocation@@YAPEA_WXZ ENDP				; GetLogLocation
_TEXT	ENDS
END
