; Listing generated by Microsoft (R) Optimizing Compiler Version 15.00.30729.01 

; Generated by VC++ for Common Language Runtime
.file "d:\mystuff\ULSLogView\ULSLogView\SPLogParser.cpp"
.global	?SECTION_SIZE@SPLogParser@@0HB			; SPLogParser::SECTION_SIZE
	.rdata
	.space	72

$SG52156:
	.ascii	"\\\000\000\000"
	.rdata
	.comdat	any, ?SECTION_SIZE@SPLogParser@@0HB

?SECTION_SIZE@SPLogParser@@0HB:				; SPLogParser::SECTION_SIZE
	.word	0x8
.global	
	.bss
.local	,4
; Function compile flags: /Odtp
	.text
	.comdat	any, ?CheckError@_com_util@@$$FYAXJ@Z
.global	?CheckError@_com_util@@$$FYAXJ@Z		; _com_util::CheckError
?CheckError@_com_util@@$$FYAXJ@Z:			; _com_util::CheckError
;	.proc.def	D:V(I)

; Function Header:
; max stack depth = 2
; function size = 11 bytes
; local varsig tk = 0x0 
; Exception Information:
; 0 handlers, each consisting of filtered handlers

;	.formal.i4 0,"hr$" SIG: Optional C Binding Modifier(token:0x6BF25D).i4

;	.proc.beg
; File c:\program files (x86)\microsoft visual studio 9.0\vc\include\comutil.h
; Line 96
  0000b	02		 ldarg.0 	; hr$
  0000c	16		 ldc.i.0 0	; i32 0x0
  0000d	2f 07		 bge.s $LN3@CheckError
; Line 97
  0000f	02		 ldarg.0 	; hr$
  00010	28 00 00 00 00	 call ?_com_issue_error@@$$FYAXJ@Z
$LN3@CheckError:
; Line 99
  00016	2a		 ret 
 .end ?CheckError@_com_util@@$$FYAXJ@Z			; _com_util::CheckError
;	.proc.end.void
_TEXT	ENDS
PUBLIC	__mep@?CheckError@_com_util@@$$FYAXJ@Z
PUBLIC	__m2mep@?CheckError@_com_util@@$$FYAXJ@Z
PUBLIC	__t2m@?CheckError@_com_util@@YAXJ@Z
;	COMDAT __mep@?CheckError@_com_util@@$$FYAXJ@Z
data	SEGMENT
__mep@?CheckError@_com_util@@$$FYAXJ@Z TOKEN 0A000016
data	ENDS
;	COMDAT __m2mep@?CheckError@_com_util@@$$FYAXJ@Z
data	SEGMENT
__m2mep@?CheckError@_com_util@@$$FYAXJ@Z DD FLAT:?CheckError@_com_util@@$$FYAXJ@Z
; Function compile flags: /Odtp
data	ENDS
;	COMDAT nep
_TEXT	SEGMENT
__t2m@?CheckError@_com_util@@YAXJ@Z PROC		; COMDAT
  00000	eb 08		 jmp	 SHORT $LN1@
  00002	0f 0b		 ud2
$LN2@:
  00004	ff 25 00 00 00
	00		 jmp	 QWORD PTR __m2mep@?CheckError@_com_util@@$$FYAXJ@Z
$LN1@:
  0000a	ff 25 00 00 00
	00		 jmp	 QWORD PTR __mep@?CheckError@_com_util@@$$FYAXJ@Z
__t2m@?CheckError@_com_util@@YAXJ@Z ENDP
.global	
	.bss
.local	$T52822,0
.local	,4
; Function compile flags: /Odtp
	.text
	.comdat	any, ?AddRef@Data_t@_bstr_t@@$$FQEAAKXZ
.global	?AddRef@Data_t@_bstr_t@@$$FQEAAKXZ		; _bstr_t::Data_t::AddRef
?AddRef@Data_t@_bstr_t@@$$FQEAAKXZ:			; _bstr_t::Data_t::AddRef
;	.proc.def	D:I(J)

; Function Header:
; max stack depth = 2
; function size = 20 bytes
; local varsig tk = 0x11000004 
; Exception Information:
; 0 handlers, each consisting of filtered handlers

;	.formal.i8 0,"this$" SIG: Optional C Binding Modifier(token:0x6BF3C1).Optional C Binding Modifier(token:0x6BF3C3).ptr.valueType (token:0x6BF3C6)
;	.local.u4 0,"$T52820" SIG: Optional C Binding Modifier(token:0x689C45).u4

;	.proc.beg
; Line 767
  0000b	02		 ldarg.0 	; this$
  0000c	1f 10		 ldc.i4.s 16	; i64 0x10
  0000e	6a		 conv.i8 
  0000f	58		 add 
  00010	28 00 00 00 00	 call System.Threading.Interlocked.Increment
  00015	26		 pop 
; Line 768
  00016	02		 ldarg.0 	; this$
  00017	1f 10		 ldc.i4.s 16	; i64 0x10
  00019	6a		 conv.i8 
  0001a	58		 add 
  0001b	4a		 ldind.i4 
  0001c	0a		 stloc.0 	; $T52820
; Line 769
  0001d	06		 ldloc.0 	; $T52820
  0001e	2a		 ret 
 .end ?AddRef@Data_t@_bstr_t@@$$FQEAAKXZ		; _bstr_t::Data_t::AddRef
;	.proc.end.u4
_TEXT	ENDS
PUBLIC	__mep@?AddRef@Data_t@_bstr_t@@$$FQEAAKXZ
PUBLIC	__m2mep@?AddRef@Data_t@_bstr_t@@$$FQEAAKXZ
PUBLIC	__t2m@?AddRef@Data_t@_bstr_t@@QEAAKXZ
;	COMDAT __mep@?AddRef@Data_t@_bstr_t@@$$FQEAAKXZ
data	SEGMENT
__mep@?AddRef@Data_t@_bstr_t@@$$FQEAAKXZ TOKEN 0A00002C
data	ENDS
;	COMDAT __m2mep@?AddRef@Data_t@_bstr_t@@$$FQEAAKXZ
data	SEGMENT
__m2mep@?AddRef@Data_t@_bstr_t@@$$FQEAAKXZ DD FLAT:?AddRef@Data_t@_bstr_t@@$$FQEAAKXZ
; Function compile flags: /Odtp
data	ENDS
;	COMDAT nep
_TEXT	SEGMENT
__t2m@?AddRef@Data_t@_bstr_t@@QEAAKXZ PROC		; COMDAT
  00000	eb 08		 jmp	 SHORT $LN1@
  00002	0f 0b		 ud2
$LN2@:
  00004	ff 25 00 00 00
	00		 jmp	 QWORD PTR __m2mep@?AddRef@Data_t@_bstr_t@@$$FQEAAKXZ
$LN1@:
  0000a	ff 25 00 00 00
	00		 jmp	 QWORD PTR __mep@?AddRef@Data_t@_bstr_t@@$$FQEAAKXZ
__t2m@?AddRef@Data_t@_bstr_t@@QEAAKXZ ENDP
.global	
.global	
	.bss
.local	,4
.local	,4
; Function compile flags: /Odtp
	.text
	.comdat	any, ??0_variant_t@@$$FQEAA@AEBV0@@Z
.global	??0_variant_t@@$$FQEAA@AEBV0@@Z			; _variant_t::_variant_t
??0_variant_t@@$$FQEAA@AEBV0@@Z:			; _variant_t::_variant_t
;	.proc.def	D:J(JJ)

; Function Header:
; max stack depth = 2
; function size = 20 bytes
; local varsig tk = 0x0 
; Exception Information:
; 0 handlers, each consisting of filtered handlers

;	.formal.i8 1,"varSrc$" SIG: Optional C Binding Modifier(token:0x6BFB85).ptr.Optional C Binding Modifier(token:0x6BFB88).valueType (token:0x6BFB8A)
;	.formal.i8 0,"this$" SIG: Optional C Binding Modifier(token:0x6D1FE1).Optional C Binding Modifier(token:0x6D1FE3).ptr.valueType (token:0x6D1FE6)

;	.proc.beg
; Line 1156
  0000b	02		 ldarg.0 	; this$
  0000c	28 00 00 00 00	 call ?VariantInit@@$$J0YAXPEAUtagVARIANT@@@Z
; Line 1157
  00011	02		 ldarg.0 	; this$
  00012	03		 ldarg.1 	; varSrc$
  00013	28 00 00 00 00	 call ?VariantCopy@@$$J0YAJPEAUtagVARIANT@@PEBU1@@Z
  00018	28 00 00 00 00	 call ?CheckError@_com_util@@$$FYAXJ@Z
; Line 1158
  0001d	02		 ldarg.0 	; this$
  0001e	2a		 ret 
 .end ??0_variant_t@@$$FQEAA@AEBV0@@Z			; _variant_t::_variant_t
;	.proc.end.i8
_TEXT	ENDS
PUBLIC	__mep@??0_variant_t@@$$FQEAA@AEBV0@@Z
PUBLIC	__m2mep@??0_variant_t@@$$FQEAA@AEBV0@@Z
PUBLIC	__t2m@??0_variant_t@@QEAA@AEBV0@@Z
;	COMDAT __mep@??0_variant_t@@$$FQEAA@AEBV0@@Z
data	SEGMENT
__mep@??0_variant_t@@$$FQEAA@AEBV0@@Z TOKEN 0A000039
data	ENDS
;	COMDAT __m2mep@??0_variant_t@@$$FQEAA@AEBV0@@Z
data	SEGMENT
__m2mep@??0_variant_t@@$$FQEAA@AEBV0@@Z DD FLAT:??0_variant_t@@$$FQEAA@AEBV0@@Z
; Function compile flags: /Odtp
data	ENDS
;	COMDAT nep
_TEXT	SEGMENT
__t2m@??0_variant_t@@QEAA@AEBV0@@Z PROC			; COMDAT
  00000	eb 08		 jmp	 SHORT $LN1@
  00002	0f 0b		 ud2
$LN2@:
  00004	ff 25 00 00 00
	00		 jmp	 QWORD PTR __m2mep@??0_variant_t@@$$FQEAA@AEBV0@@Z
$LN1@:
  0000a	ff 25 00 00 00
	00		 jmp	 QWORD PTR __mep@??0_variant_t@@$$FQEAA@AEBV0@@Z
__t2m@??0_variant_t@@QEAA@AEBV0@@Z ENDP
.global	
	.bss
.local	,4
; Function compile flags: /Odtp
	.text
.global	??0SPLogParser@@$$FQEAA@XZ			; SPLogParser::SPLogParser
??0SPLogParser@@$$FQEAA@XZ:				; SPLogParser::SPLogParser
;	.proc.def	D:J(J)

; Function Header:
; max stack depth = 2
; function size = 9 bytes
; local varsig tk = 0x0 
; Exception Information:
; 0 handlers, each consisting of filtered handlers

;	.formal.i8 0,"this$" SIG: Optional C Binding Modifier(token:0x6C55B1).Optional C Binding Modifier(token:0x6C55B3).ptr.valueType (token:0x6C55B6)

;	.proc.beg
; File d:\mystuff\ulslogview\ulslogview\splogparser.cpp
; Line 12
  0000b	02		 ldarg.0 	; this$
  0000c	1e		 ldc.i.8 8	; i64 0x8
  0000d	6a		 conv.i8 
  0000e	58		 add 
  0000f	16		 ldc.i.0 0	; i64 0x0
  00010	6a		 conv.i8 
  00011	55		 stind.i8 
; Line 13
  00012	02		 ldarg.0 	; this$
  00013	2a		 ret 
 .end ??0SPLogParser@@$$FQEAA@XZ			; SPLogParser::SPLogParser
;	.proc.end.i8
_TEXT	ENDS
PUBLIC	__mep@??0SPLogParser@@$$FQEAA@XZ
PUBLIC	__m2mep@??0SPLogParser@@$$FQEAA@XZ
PUBLIC	??0SPLogParser@@QEAA@XZ				; SPLogParser::SPLogParser
;	COMDAT __mep@??0SPLogParser@@$$FQEAA@XZ
data	SEGMENT
__mep@??0SPLogParser@@$$FQEAA@XZ TOKEN 0A00003F
data	ENDS
;	COMDAT __m2mep@??0SPLogParser@@$$FQEAA@XZ
data	SEGMENT
__m2mep@??0SPLogParser@@$$FQEAA@XZ DD FLAT:??0SPLogParser@@$$FQEAA@XZ
; Function compile flags: /Odtp
data	ENDS
;	COMDAT nep
_TEXT	SEGMENT
??0SPLogParser@@QEAA@XZ PROC				; SPLogParser::SPLogParser, COMDAT
  00000	eb 08		 jmp	 SHORT $LN1@SPLogParse
  00002	0f 0b		 ud2
$LN2@SPLogParse:
  00004	ff 25 00 00 00
	00		 jmp	 QWORD PTR __m2mep@??0SPLogParser@@$$FQEAA@XZ
$LN1@SPLogParse:
  0000a	ff 25 00 00 00
	00		 jmp	 QWORD PTR __mep@??0SPLogParser@@$$FQEAA@XZ
??0SPLogParser@@QEAA@XZ ENDP				; SPLogParser::SPLogParser
.global	
	.bss
.local	$T52854,0
.local	,4
; Function compile flags: /Odtp
	.text
.global	?ReadFile@SPLogParser@@$$FQEAAHPEAX@Z		; SPLogParser::ReadFile
?ReadFile@SPLogParser@@$$FQEAAHPEAX@Z:			; SPLogParser::ReadFile
;	.proc.def	D:I(JJ)

; Function Header:
; max stack depth = 1
; function size = 4 bytes
; local varsig tk = 0x11000009 
; Exception Information:
; 0 handlers, each consisting of filtered handlers

;	.local.i4 0,"$T52852" SIG: i4

;	.proc.beg
; Line 18
  0000b	16		 ldc.i.0 0	; i32 0x0
  0000c	0a		 stloc.0 	; $T52852
; Line 20
  0000d	06		 ldloc.0 	; $T52852
  0000e	2a		 ret 
 .end ?ReadFile@SPLogParser@@$$FQEAAHPEAX@Z		; SPLogParser::ReadFile
;	.proc.end.i4
_TEXT	ENDS
PUBLIC	__mep@?ReadFile@SPLogParser@@$$FQEAAHPEAX@Z
PUBLIC	__m2mep@?ReadFile@SPLogParser@@$$FQEAAHPEAX@Z
PUBLIC	?ReadFile@SPLogParser@@QEAAHPEAX@Z		; SPLogParser::ReadFile
;	COMDAT __mep@?ReadFile@SPLogParser@@$$FQEAAHPEAX@Z
data	SEGMENT
__mep@?ReadFile@SPLogParser@@$$FQEAAHPEAX@Z TOKEN 0A000040
data	ENDS
;	COMDAT __m2mep@?ReadFile@SPLogParser@@$$FQEAAHPEAX@Z
data	SEGMENT
__m2mep@?ReadFile@SPLogParser@@$$FQEAAHPEAX@Z DD FLAT:?ReadFile@SPLogParser@@$$FQEAAHPEAX@Z
; Function compile flags: /Odtp
data	ENDS
;	COMDAT nep
_TEXT	SEGMENT
?ReadFile@SPLogParser@@QEAAHPEAX@Z PROC			; SPLogParser::ReadFile, COMDAT
  00000	eb 08		 jmp	 SHORT $LN1@ReadFile
  00002	0f 0b		 ud2
$LN2@ReadFile:
  00004	ff 25 00 00 00
	00		 jmp	 QWORD PTR __m2mep@?ReadFile@SPLogParser@@$$FQEAAHPEAX@Z
$LN1@ReadFile:
  0000a	ff 25 00 00 00
	00		 jmp	 QWORD PTR __mep@?ReadFile@SPLogParser@@$$FQEAAHPEAX@Z
?ReadFile@SPLogParser@@QEAAHPEAX@Z ENDP			; SPLogParser::ReadFile
	.bss
.local	$T52864,0
; Function compile flags: /Odtp
	.text
.global	?CloseFile@SPLogParser@@$$FQEAAHXZ		; SPLogParser::CloseFile
?CloseFile@SPLogParser@@$$FQEAAHXZ:			; SPLogParser::CloseFile
;	.proc.def	D:I(J)

; Function Header:
; max stack depth = 1
; function size = 4 bytes
; local varsig tk = 0x11000009 
; Exception Information:
; 0 handlers, each consisting of filtered handlers

;	.local.i4 0,"$T52863" SIG: i4

;	.proc.beg
; Line 24
  0000b	16		 ldc.i.0 0	; i32 0x0
  0000c	0a		 stloc.0 	; $T52863
; Line 26
  0000d	06		 ldloc.0 	; $T52863
  0000e	2a		 ret 
 .end ?CloseFile@SPLogParser@@$$FQEAAHXZ		; SPLogParser::CloseFile
;	.proc.end.i4
_TEXT	ENDS
PUBLIC	__mep@?CloseFile@SPLogParser@@$$FQEAAHXZ
PUBLIC	__m2mep@?CloseFile@SPLogParser@@$$FQEAAHXZ
PUBLIC	?CloseFile@SPLogParser@@QEAAHXZ			; SPLogParser::CloseFile
;	COMDAT __mep@?CloseFile@SPLogParser@@$$FQEAAHXZ
data	SEGMENT
__mep@?CloseFile@SPLogParser@@$$FQEAAHXZ TOKEN 0A000041
data	ENDS
;	COMDAT __m2mep@?CloseFile@SPLogParser@@$$FQEAAHXZ
data	SEGMENT
__m2mep@?CloseFile@SPLogParser@@$$FQEAAHXZ DD FLAT:?CloseFile@SPLogParser@@$$FQEAAHXZ
; Function compile flags: /Odtp
data	ENDS
;	COMDAT nep
_TEXT	SEGMENT
?CloseFile@SPLogParser@@QEAAHXZ PROC			; SPLogParser::CloseFile, COMDAT
  00000	eb 08		 jmp	 SHORT $LN1@CloseFile
  00002	0f 0b		 ud2
$LN2@CloseFile:
  00004	ff 25 00 00 00
	00		 jmp	 QWORD PTR __m2mep@?CloseFile@SPLogParser@@$$FQEAAHXZ
$LN1@CloseFile:
  0000a	ff 25 00 00 00
	00		 jmp	 QWORD PTR __mep@?CloseFile@SPLogParser@@$$FQEAAHXZ
?CloseFile@SPLogParser@@QEAAHXZ ENDP			; SPLogParser::CloseFile
.global	
	.bss
.local	$T52875,0
.local	,4
; Function compile flags: /Odtp
	.text
.global	?RecalculateSize@SPLogParser@@$$FAEAAKXZ	; SPLogParser::RecalculateSize
?RecalculateSize@SPLogParser@@$$FAEAAKXZ:		; SPLogParser::RecalculateSize
;	.proc.def	D:I(J)

; Function Header:
; max stack depth = 2
; function size = 42 bytes
; local varsig tk = 0x1100000B 
; Exception Information:
; 0 handlers, each consisting of filtered handlers

;	.formal.i8 0,"this$" SIG: Optional C Binding Modifier(token:0x6C55B1).Optional C Binding Modifier(token:0x6C55B3).ptr.valueType (token:0x6C55B6)
;	.local.u4 1,"$T52873" SIG: Optional C Binding Modifier(token:0x6BCAED).u4
;	.local.u4 0,"retFileSize$52149" SIG: Optional C Binding Modifier(token:0x6CF8A1).u4

;	.proc.beg
; Line 114
  0000b	02		 ldarg.0 	; this$
  0000c	20 38 03 00 00	 ldc.i4 824	; i64 0x338
  00011	6a		 conv.i8 
  00012	58		 add 
  00013	4c		 ldind.i8 
  00014	2c 5e		 brfalse.s $LN2@Recalculat
; Line 117
  00016	02		 ldarg.0 	; this$
  00017	20 38 03 00 00	 ldc.i4 824	; i64 0x338
  0001c	6a		 conv.i8 
  0001d	58		 add 
  0001e	4c		 ldind.i8 
  0001f	16		 ldc.i.0 0	; i64 0x0
  00020	6a		 conv.i8 
  00021	28 00 00 00 00	 call ?GetFileSize@@$$J0YAKPEAXPEAK@Z
  00026	0a		 stloc.0 	; retFileSize$52149
; Line 118
  00027	02		 ldarg.0 	; this$
  00028	20 30 03 00 00	 ldc.i4 816	; i64 0x330
  0002d	6a		 conv.i8 
  0002e	58		 add 
  0002f	06		 ldloc.0 	; retFileSize$52149
  00030	54		 stind.i4 
; Line 119
  00031	06		 ldloc.0 	; retFileSize$52149
  00032	0b		 stloc.1 	; $T52873
$LN2@Recalculat:
; Line 122
  00074	07		 ldloc.1 	; $T52873
  00075	2a		 ret 
 .end ?RecalculateSize@SPLogParser@@$$FAEAAKXZ		; SPLogParser::RecalculateSize
;	.proc.end.u4
_TEXT	ENDS
PUBLIC	__mep@?RecalculateSize@SPLogParser@@$$FAEAAKXZ
PUBLIC	__m2mep@?RecalculateSize@SPLogParser@@$$FAEAAKXZ
PUBLIC	?RecalculateSize@SPLogParser@@AEAAKXZ		; SPLogParser::RecalculateSize
;	COMDAT __mep@?RecalculateSize@SPLogParser@@$$FAEAAKXZ
data	SEGMENT
__mep@?RecalculateSize@SPLogParser@@$$FAEAAKXZ TOKEN 0A000043
data	ENDS
;	COMDAT __m2mep@?RecalculateSize@SPLogParser@@$$FAEAAKXZ
data	SEGMENT
__m2mep@?RecalculateSize@SPLogParser@@$$FAEAAKXZ DD FLAT:?RecalculateSize@SPLogParser@@$$FAEAAKXZ
; Function compile flags: /Odtp
data	ENDS
;	COMDAT nep
_TEXT	SEGMENT
?RecalculateSize@SPLogParser@@AEAAKXZ PROC		; SPLogParser::RecalculateSize, COMDAT
  00000	eb 08		 jmp	 SHORT $LN1@Recalculat@2
  00002	0f 0b		 ud2
$LN2@Recalculat@2:
  00004	ff 25 00 00 00
	00		 jmp	 QWORD PTR __m2mep@?RecalculateSize@SPLogParser@@$$FAEAAKXZ
$LN1@Recalculat@2:
  0000a	ff 25 00 00 00
	00		 jmp	 QWORD PTR __mep@?RecalculateSize@SPLogParser@@$$FAEAAKXZ
?RecalculateSize@SPLogParser@@AEAAKXZ ENDP		; SPLogParser::RecalculateSize
.global	
.global	
	.bss
.local	$T52888,0
.local	,4
.local	,4
; Function compile flags: /Odtp
	.text
.global	?OpenFileReading@SPLogParser@@$$FQEAAPEAXPEA_WQEA_W@Z ; SPLogParser::OpenFileReading
?OpenFileReading@SPLogParser@@$$FQEAAPEAXPEA_WQEA_W@Z:	; SPLogParser::OpenFileReading
;	.proc.def	D:J(JJJ)

; Function Header:
; max stack depth = 7
; function size = 109 bytes
; local varsig tk = 0x1100000E 
; Exception Information:
; 0 handlers, each consisting of filtered handlers

;	.formal.i8 0,"this$" SIG: Optional C Binding Modifier(token:0x6C55B1).Optional C Binding Modifier(token:0x6C55B3).ptr.valueType (token:0x6C55B6)
;	.formal.i8 2,"fileName$" SIG: ptr.char
;	.formal.i8 1,"dirName$" SIG: ptr.char
;	.local.i8 1,"$T52885" SIG: ptr.void
;	.local.i8 2,"memFile$" SIG: ptr.void
;	.local.u4 4,"a$" SIG: Optional C Binding Modifier(token:0x6CF8A1).u4
;	.local.i8 3,"hFileMap$" SIG: ptr.void
;	.local.u4 5,"retFileSize$" SIG: Optional C Binding Modifier(token:0x6CF8A1).u4
;	.local.u4 6,"fileSize$" SIG: Optional C Binding Modifier(token:0x6CF8A1).u4
;	.local.i8 0,"hLogFile$" SIG: ptr.void
;	.local.mb520 7,"fullFileName$" SIG: valueType (token:0x6C9BFD)

;	.proc.beg
; Line 128
  0000b	12 07		 ldloca.s 7	; fullFileName$
  0000d	03		 ldarg.1 	; dirName$
  0000e	28 00 00 00 00	 call ?wcscpy@@$$J0YAPEA_WPEA_WPEB_W@Z
  00013	26		 pop 
; Line 129
  00014	12 07		 ldloca.s 7	; fullFileName$
  00016	7f 00 00 00 00	 ldsflda $SG52156
  0001b	28 00 00 00 00	 call ?wcscat@@$$J0YAPEA_WPEA_WPEB_W@Z
  00020	26		 pop 
; Line 130
  00021	12 07		 ldloca.s 7	; fullFileName$
  00023	04		 ldarg.2 	; fileName$
  00024	28 00 00 00 00	 call ?wcscat@@$$J0YAPEA_WPEA_WPEB_W@Z
  00029	26		 pop 
; Line 132
  0002a	12 07		 ldloca.s 7	; fullFileName$
  0002c	20 00 00 00 80	 ldc.i4 -2147483648 ; u32 0x80000000
  00031	17		 ldc.i.1 1	; u32 0x1
  00032	16		 ldc.i.0 0	; i64 0x0
  00033	6a		 conv.i8 
  00034	19		 ldc.i.3 3	; u32 0x3
  00035	1f 20		 ldc.i4.s 32	; u32 0x20
  00037	16		 ldc.i.0 0	; i64 0x0
  00038	6a		 conv.i8 
  00039	28 00 00 00 00	 call ?CreateFileW@@$$J0YAPEAXPEB_WKKPEAU_SECURITY_ATTRIBUTES@@KKPEAX@Z
  0003e	0a		 stloc.0 	; hLogFile$
; Line 139
  0003f	02		 ldarg.0 	; this$
  00040	20 38 03 00 00	 ldc.i4 824	; i64 0x338
  00045	6a		 conv.i8 
  00046	58		 add 
  00047	06		 ldloc.0 	; hLogFile$
  00048	55		 stind.i8 
; Line 146
  00049	06		 ldloc.0 	; hLogFile$
  0004a	12 06		 ldloca.s 6	; fileSize$
  0004c	28 00 00 00 00	 call ?GetFileSize@@$$J0YAKPEAXPEAK@Z
  00051	13 05		 stloc.s 5	; retFileSize$
; Line 147
  00053	06		 ldloc.0 	; hLogFile$
  00054	16		 ldc.i.0 0	; i64 0x0
  00055	6a		 conv.i8 
  00056	18		 ldc.i.2 2	; u32 0x2
  00057	16		 ldc.i.0 0	; u32 0x0
  00058	16		 ldc.i.0 0	; u32 0x0
  00059	16		 ldc.i.0 0	; i64 0x0
  0005a	6a		 conv.i8 
  0005b	28 00 00 00 00	 call ?CreateFileMappingW@@$$J0YAPEAXPEAXPEAU_SECURITY_ATTRIBUTES@@KKKPEB_W@Z
  00060	0d		 stloc.3 	; hFileMap$
; Line 148
  00061	28 00 00 00 00	 call ?GetLastError@@$$J0YAKXZ
  00066	13 04		 stloc.s 4	; a$
; Line 150
  00068	09		 ldloc.3 	; hFileMap$
  00069	1a		 ldc.i.4 4	; u32 0x4
  0006a	16		 ldc.i.0 0	; u32 0x0
  0006b	16		 ldc.i.0 0	; u32 0x0
  0006c	16		 ldc.i.0 0	; u64 0x0
  0006d	6a		 conv.i8 
  0006e	28 00 00 00 00	 call ?MapViewOfFile@@$$J0YAPEAXPEAXKKK_K@Z
  00073	0c		 stloc.2 	; memFile$
; Line 153
  00074	08		 ldloc.2 	; memFile$
  00075	0b		 stloc.1 	; $T52885
; Line 155
  00076	07		 ldloc.1 	; $T52885
  00077	2a		 ret 
 .end ?OpenFileReading@SPLogParser@@$$FQEAAPEAXPEA_WQEA_W@Z ; SPLogParser::OpenFileReading
;	.proc.end.i8
_TEXT	ENDS
PUBLIC	__mep@?OpenFileReading@SPLogParser@@$$FQEAAPEAXPEA_WQEA_W@Z
PUBLIC	__m2mep@?OpenFileReading@SPLogParser@@$$FQEAAPEAXPEA_WQEA_W@Z
PUBLIC	?OpenFileReading@SPLogParser@@QEAAPEAXPEA_WQEA_W@Z ; SPLogParser::OpenFileReading
;	COMDAT __mep@?OpenFileReading@SPLogParser@@$$FQEAAPEAXPEA_WQEA_W@Z
data	SEGMENT
__mep@?OpenFileReading@SPLogParser@@$$FQEAAPEAXPEA_WQEA_W@Z TOKEN 0A000044
data	ENDS
;	COMDAT __m2mep@?OpenFileReading@SPLogParser@@$$FQEAAPEAXPEA_WQEA_W@Z
data	SEGMENT
__m2mep@?OpenFileReading@SPLogParser@@$$FQEAAPEAXPEA_WQEA_W@Z DD FLAT:?OpenFileReading@SPLogParser@@$$FQEAAPEAXPEA_WQEA_W@Z
; Function compile flags: /Odtp
data	ENDS
;	COMDAT nep
_TEXT	SEGMENT
?OpenFileReading@SPLogParser@@QEAAPEAXPEA_WQEA_W@Z PROC	; SPLogParser::OpenFileReading, COMDAT
  00000	eb 08		 jmp	 SHORT $LN1@OpenFileRe
  00002	0f 0b		 ud2
$LN2@OpenFileRe:
  00004	ff 25 00 00 00
	00		 jmp	 QWORD PTR __m2mep@?OpenFileReading@SPLogParser@@$$FQEAAPEAXPEA_WQEA_W@Z
$LN1@OpenFileRe:
  0000a	ff 25 00 00 00
	00		 jmp	 QWORD PTR __mep@?OpenFileReading@SPLogParser@@$$FQEAAPEAXPEA_WQEA_W@Z
?OpenFileReading@SPLogParser@@QEAAPEAXPEA_WQEA_W@Z ENDP	; SPLogParser::OpenFileReading
.global	
	.bss
.local	,4
; Function compile flags: /Odtp
	.text
	.comdat	any, ?_AddRef@_bstr_t@@$$FAEAAXXZ
.global	?_AddRef@_bstr_t@@$$FAEAAXXZ			; _bstr_t::_AddRef
?_AddRef@_bstr_t@@$$FAEAAXXZ:				; _bstr_t::_AddRef
;	.proc.def	D:V(J)

; Function Header:
; max stack depth = 1
; function size = 13 bytes
; local varsig tk = 0x0 
; Exception Information:
; 0 handlers, each consisting of filtered handlers

;	.formal.i8 0,"this$" SIG: Optional C Binding Modifier(token:0x6CE351).Optional C Binding Modifier(token:0x6CE353).ptr.valueType (token:0x6CE356)

;	.proc.beg
; File c:\program files (x86)\microsoft visual studio 9.0\vc\include\comutil.h
; Line 628
  0000b	02		 ldarg.0 	; this$
  0000c	4c		 ldind.i8 
  0000d	2c 09		 brfalse.s $LN2@AddRef
; Line 629
  0000f	02		 ldarg.0 	; this$
  00010	4c		 ldind.i8 
  00011	28 00 00 00 00	 call ?AddRef@Data_t@_bstr_t@@$$FQEAAKXZ
  00016	26		 pop 
$LN2@AddRef:
; Line 631
  00018	2a		 ret 
 .end ?_AddRef@_bstr_t@@$$FAEAAXXZ			; _bstr_t::_AddRef
;	.proc.end.void
_TEXT	ENDS
PUBLIC	__mep@?_AddRef@_bstr_t@@$$FAEAAXXZ
PUBLIC	__m2mep@?_AddRef@_bstr_t@@$$FAEAAXXZ
PUBLIC	__t2m@?_AddRef@_bstr_t@@AEAAXXZ
;	COMDAT __mep@?_AddRef@_bstr_t@@$$FAEAAXXZ
data	SEGMENT
__mep@?_AddRef@_bstr_t@@$$FAEAAXXZ TOKEN 0A000025
data	ENDS
;	COMDAT __m2mep@?_AddRef@_bstr_t@@$$FAEAAXXZ
data	SEGMENT
__m2mep@?_AddRef@_bstr_t@@$$FAEAAXXZ DD FLAT:?_AddRef@_bstr_t@@$$FAEAAXXZ
; Function compile flags: /Odtp
data	ENDS
;	COMDAT nep
_TEXT	SEGMENT
__t2m@?_AddRef@_bstr_t@@AEAAXXZ PROC			; COMDAT
  00000	eb 08		 jmp	 SHORT $LN1@
  00002	0f 0b		 ud2
$LN2@:
  00004	ff 25 00 00 00
	00		 jmp	 QWORD PTR __m2mep@?_AddRef@_bstr_t@@$$FAEAAXXZ
$LN1@:
  0000a	ff 25 00 00 00
	00		 jmp	 QWORD PTR __mep@?_AddRef@_bstr_t@@$$FAEAAXXZ
__t2m@?_AddRef@_bstr_t@@AEAAXXZ ENDP
.global	
.global	
.global	
	.bss
.local	$T52914,0
.local	,4
.local	,4
.local	,4
; Function compile flags: /Odtp
	.text
.global	?ParseFile@SPLogParser@@$$FQEAAXPEAX0@Z		; SPLogParser::ParseFile
?ParseFile@SPLogParser@@$$FQEAAXPEAX0@Z:		; SPLogParser::ParseFile
;	.proc.def	D:V(JJJ)

; Function Header:
; max stack depth = 4
; function size = 343 bytes
; local varsig tk = 0x11000013 
; Exception Information:
; 0 handlers, each consisting of filtered handlers

;	.formal.i8 1,"fileData$" SIG: ptr.void
;	.formal.i8 0,"this$" SIG: Optional C Binding Modifier(token:0x6C55B1).Optional C Binding Modifier(token:0x6C55B3).ptr.valueType (token:0x6C55B6)
;	.local.i8 2,"fileDataPointer$" SIG: ptr.void
;	.local.i8 7,"data$52131" SIG: ptr.Optional C Binding Modifier(token:0x6CA87A).i1
;	.local.i1 8,"data$52128" SIG: Optional C Binding Modifier(token:0x6C91AD).i1
;	.local.u4 0,"i$52124" SIG: Optional C Binding Modifier(token:0x6CF8A1).u4
;	.local.i8 5,"$T52905" SIG: ptr.valueType (token:0x6F8E72)
;	.local.i8 3,"$T52120" SIG: ptr.valueType (token:0x6C856A)
;	.local.u8 6,"$T52121" SIG: u8
;	.local.i4 1,"lastCount$" SIG: i4
;	.local.i4 4,"sectionCount$" SIG: i4

;	.proc.beg
; File d:\mystuff\ulslogview\ulslogview\splogparser.cpp
; Line 32
  0000b	16		 ldc.i.0 0	; i32 0x0
  0000c	13 04		 stloc.s 4	; sectionCount$
; Line 33
  0000e	16		 ldc.i.0 0	; i32 0x0
  0000f	0b		 stloc.1 	; lastCount$
; Line 36
  00010	02		 ldarg.0 	; this$
  00011	1e		 ldc.i.8 8	; i64 0x8
  00012	6a		 conv.i8 
  00013	58		 add 
  00014	4c		 ldind.i8 
  00015	2d 2d		 brtrue.s $LN15@ParseFile
; Line 38
  00017	20 00 0a 00 00	 ldc.i4 2560	; u64 0xa00
  0001c	6a		 conv.i8 
  0001d	13 06		 stloc.s 6	; $T52121
  0001f	11 06		 ldloc.s 6	; $T52121
  00021	28 00 00 00 00	 call ??2@$$FYAPEAX_K@Z
  00026	0d		 stloc.3 	; $T52120
  00027	09		 ldloc.3 	; $T52120
  00028	2c 0f		 brfalse.s $LN18@ParseFile
  0002a	09		 ldloc.3 	; $T52120
  0002b	16		 ldc.i.0 0	; i32 0x0
  0002c	11 06		 ldloc.s 6	; $T52121
  0002e	fe 12 04	 unaligned 4	; u32 0x4
  00031	fe 18		 initblk 
  00033	09		 ldloc.3 	; $T52120
  00034	13 05		 stloc.s 5	; $T52905
  00036	2b 05		 br.s $LN19@ParseFile
$LN18@ParseFile:
  00139	16		 ldc.i.0 0	; i64 0x0
  0013a	6a		 conv.i8 
  0013b	13 05		 stloc.s 5	; $T52905
$LN19@ParseFile:
  0013d	02		 ldarg.0 	; this$
  0013e	1e		 ldc.i.8 8	; i64 0x8
  0013f	6a		 conv.i8 
  00140	58		 add 
  00141	11 05		 ldloc.s 5	; $T52905
  00143	55		 stind.i8 
$LN15@ParseFile:
; Line 41
  00144	02		 ldarg.0 	; this$
  00145	28 00 00 00 00	 call ?RecalculateSize@SPLogParser@@$$FAEAAKXZ
  0014a	26		 pop 
; Line 42
  0014b	16		 ldc.i.0 0	; u32 0x0
  0014c	0a		 stloc.0 	; i$52124
  0014d	2b 04		 br.s $LN14@ParseFile
$LN13@ParseFile:
  0014f	06		 ldloc.0 	; i$52124
  00150	17		 ldc.i.1 1	; u32 0x1
  00151	58		 add 
  00152	0a		 stloc.0 	; i$52124
$LN14@ParseFile:
  00153	06		 ldloc.0 	; i$52124
  00154	02		 ldarg.0 	; this$
  00155	20 30 03 00 00	 ldc.i4 816	; i64 0x330
  0015a	6a		 conv.i8 
  0015b	58		 add 
  0015c	4a		 ldind.i4 
  0015d	41 00 01 00 00	 bge.un $LN16@ParseFile
; Line 45
  00162	03		 ldarg.1 	; fileData$
  00163	06		 ldloc.0 	; i$52124
  00164	6e		 conv.u8 
  00165	58		 add 
  00166	46		 ldind.i1 
  00167	13 08		 stloc.s 8	; data$52128
; Line 47
  00169	11 08		 ldloc.s 8	; data$52128
  0016b	1f 09		 ldc.i4.s 9	; i32 0x9
  0016d	40 eb 00 00 00	 bne.un $LN11@ParseFile
; Line 54
  00172	03		 ldarg.1 	; fileData$
  00173	13 07		 stloc.s 7	; data$52131
; Line 55
  00175	11 07		 ldloc.s 7	; data$52131
  00177	07		 ldloc.1 	; lastCount$
  00178	6a		 conv.i8 
  00179	58		 add 
  0017a	0c		 stloc.2 	; fileDataPointer$
; Line 56
  0017b	11 04		 ldloc.s 4	; sectionCount$
  0017d	45 08 00 00 00	 switch 8	; i32 0x8
  00182	05 00 00 00	 _case $LN8@ParseFile
  00186	1a 00 00 00	 _case $LN7@ParseFile
  0018a	31 00 00 00	 _case $LN6@ParseFile
  0018e	48 00 00 00	 _case $LN5@ParseFile
  00192	5f 00 00 00	 _case $LN4@ParseFile
  00196	76 00 00 00	 _case $LN3@ParseFile
  0019a	8d 00 00 00	 _case $LN2@ParseFile
  0019e	a2 00 00 00	 _case $LN1@ParseFile
  001a2	38 b0 00 00 00	 br $LN9@ParseFile
$LN8@ParseFile:
; Line 59
  001a7	02		 ldarg.0 	; this$
  001a8	1f 10		 ldc.i4.s 16	; i64 0x10
  001aa	6a		 conv.i8 
  001ab	58		 add 
  001ac	08		 ldloc.2 	; fileDataPointer$
  001ad	06		 ldloc.0 	; i$52124
  001ae	6e		 conv.u8 
  001af	28 00 00 00 00	 call ?memcpy@@$$J0YAPEAXPEAXPEBX_K@Z
  001b4	26		 pop 
; Line 60
  001b5	06		 ldloc.0 	; i$52124
  001b6	0b		 stloc.1 	; lastCount$
; Line 61
  001b7	38 9b 00 00 00	 br $LN9@ParseFile
$LN7@ParseFile:
; Line 64
  001bc	02		 ldarg.0 	; this$
  001bd	1f 74		 ldc.i4.s 116	; i64 0x74
  001bf	6a		 conv.i8 
  001c0	58		 add 
  001c1	08		 ldloc.2 	; fileDataPointer$
  001c2	06		 ldloc.0 	; i$52124
  001c3	07		 ldloc.1 	; lastCount$
  001c4	59		 sub 
  001c5	6e		 conv.u8 
  001c6	28 00 00 00 00	 call ?memcpy@@$$J0YAPEAXPEAXPEBX_K@Z
  001cb	26		 pop 
; Line 65
  001cc	06		 ldloc.0 	; i$52124
  001cd	0b		 stloc.1 	; lastCount$
; Line 66
  001ce	38 84 00 00 00	 br $LN9@ParseFile
$LN6@ParseFile:
; Line 69
  001d3	02		 ldarg.0 	; this$
  001d4	20 d8 00 00 00	 ldc.i4 216	; i64 0xd8
  001d9	6a		 conv.i8 
  001da	58		 add 
  001db	08		 ldloc.2 	; fileDataPointer$
  001dc	06		 ldloc.0 	; i$52124
  001dd	07		 ldloc.1 	; lastCount$
  001de	59		 sub 
  001df	6e		 conv.u8 
  001e0	28 00 00 00 00	 call ?memcpy@@$$J0YAPEAXPEAXPEBX_K@Z
  001e5	26		 pop 
; Line 70
  001e6	06		 ldloc.0 	; i$52124
  001e7	0b		 stloc.1 	; lastCount$
; Line 71
  001e8	2b 6d		 br.s $LN9@ParseFile
$LN5@ParseFile:
; Line 74
  001ea	02		 ldarg.0 	; this$
  001eb	20 3c 01 00 00	 ldc.i4 316	; i64 0x13c
  001f0	6a		 conv.i8 
  001f1	58		 add 
  001f2	08		 ldloc.2 	; fileDataPointer$
  001f3	06		 ldloc.0 	; i$52124
  001f4	07		 ldloc.1 	; lastCount$
  001f5	59		 sub 
  001f6	6e		 conv.u8 
  001f7	28 00 00 00 00	 call ?memcpy@@$$J0YAPEAXPEAXPEBX_K@Z
  001fc	26		 pop 
; Line 75
  001fd	06		 ldloc.0 	; i$52124
  001fe	0b		 stloc.1 	; lastCount$
; Line 76
  001ff	2b 56		 br.s $LN9@ParseFile
$LN4@ParseFile:
; Line 79
  00201	02		 ldarg.0 	; this$
  00202	20 a0 01 00 00	 ldc.i4 416	; i64 0x1a0
  00207	6a		 conv.i8 
  00208	58		 add 
  00209	08		 ldloc.2 	; fileDataPointer$
  0020a	06		 ldloc.0 	; i$52124
  0020b	07		 ldloc.1 	; lastCount$
  0020c	59		 sub 
  0020d	6e		 conv.u8 
  0020e	28 00 00 00 00	 call ?memcpy@@$$J0YAPEAXPEAXPEBX_K@Z
  00213	26		 pop 
; Line 80
  00214	06		 ldloc.0 	; i$52124
  00215	0b		 stloc.1 	; lastCount$
; Line 81
  00216	2b 3f		 br.s $LN9@ParseFile
$LN3@ParseFile:
; Line 84
  00218	02		 ldarg.0 	; this$
  00219	20 04 02 00 00	 ldc.i4 516	; i64 0x204
  0021e	6a		 conv.i8 
  0021f	58		 add 
  00220	08		 ldloc.2 	; fileDataPointer$
  00221	06		 ldloc.0 	; i$52124
  00222	07		 ldloc.1 	; lastCount$
  00223	59		 sub 
  00224	6e		 conv.u8 
  00225	28 00 00 00 00	 call ?memcpy@@$$J0YAPEAXPEAXPEBX_K@Z
  0022a	26		 pop 
; Line 85
  0022b	06		 ldloc.0 	; i$52124
  0022c	0b		 stloc.1 	; lastCount$
; Line 86
  0022d	2b 28		 br.s $LN9@ParseFile
$LN2@ParseFile:
; Line 89
  0022f	02		 ldarg.0 	; this$
  00230	20 68 02 00 00	 ldc.i4 616	; i64 0x268
  00235	6a		 conv.i8 
  00236	58		 add 
  00237	08		 ldloc.2 	; fileDataPointer$
  00238	06		 ldloc.0 	; i$52124
  00239	6e		 conv.u8 
  0023a	28 00 00 00 00	 call ?memcpy@@$$J0YAPEAXPEAXPEBX_K@Z
  0023f	26		 pop 
; Line 90
  00240	06		 ldloc.0 	; i$52124
  00241	0b		 stloc.1 	; lastCount$
; Line 91
  00242	2b 13		 br.s $LN9@ParseFile
$LN1@ParseFile:
; Line 94
  00244	02		 ldarg.0 	; this$
  00245	20 cc 02 00 00	 ldc.i4 716	; i64 0x2cc
  0024a	6a		 conv.i8 
  0024b	58		 add 
  0024c	08		 ldloc.2 	; fileDataPointer$
  0024d	06		 ldloc.0 	; i$52124
  0024e	6e		 conv.u8 
  0024f	28 00 00 00 00	 call ?memcpy@@$$J0YAPEAXPEAXPEBX_K@Z
  00254	26		 pop 
; Line 95
  00255	06		 ldloc.0 	; i$52124
  00256	0b		 stloc.1 	; lastCount$
$LN9@ParseFile:
; Line 101
  00257	11 04		 ldloc.s 4	; sectionCount$
  00259	17		 ldc.i.1 1	; i32 0x1
  0025a	58		 add 
  0025b	13 04		 stloc.s 4	; sectionCount$
$LN11@ParseFile:
; Line 104
  0025d	38 ed fe ff ff	 br $LN13@ParseFile
$LN16@ParseFile:
; Line 110
  00262	2a		 ret 
 .end ?ParseFile@SPLogParser@@$$FQEAAXPEAX0@Z		; SPLogParser::ParseFile
;	.proc.end.void
_TEXT	ENDS
PUBLIC	__mep@?ParseFile@SPLogParser@@$$FQEAAXPEAX0@Z
PUBLIC	__m2mep@?ParseFile@SPLogParser@@$$FQEAAXPEAX0@Z
PUBLIC	?ParseFile@SPLogParser@@QEAAXPEAX0@Z		; SPLogParser::ParseFile
;	COMDAT __mep@?ParseFile@SPLogParser@@$$FQEAAXPEAX0@Z
data	SEGMENT
__mep@?ParseFile@SPLogParser@@$$FQEAAXPEAX0@Z TOKEN 0A000042
data	ENDS
;	COMDAT __m2mep@?ParseFile@SPLogParser@@$$FQEAAXPEAX0@Z
data	SEGMENT
__m2mep@?ParseFile@SPLogParser@@$$FQEAAXPEAX0@Z DD FLAT:?ParseFile@SPLogParser@@$$FQEAAXPEAX0@Z
; Function compile flags: /Odtp
data	ENDS
;	COMDAT nep
_TEXT	SEGMENT
?ParseFile@SPLogParser@@QEAAXPEAX0@Z PROC		; SPLogParser::ParseFile, COMDAT
  00000	eb 08		 jmp	 SHORT $LN1@ParseFile@2
  00002	0f 0b		 ud2
$LN2@ParseFile@2:
  00004	ff 25 00 00 00
	00		 jmp	 QWORD PTR __m2mep@?ParseFile@SPLogParser@@$$FQEAAXPEAX0@Z
$LN1@ParseFile@2:
  0000a	ff 25 00 00 00
	00		 jmp	 QWORD PTR __mep@?ParseFile@SPLogParser@@$$FQEAAXPEAX0@Z
?ParseFile@SPLogParser@@QEAAXPEAX0@Z ENDP		; SPLogParser::ParseFile
.global	
	.bss
.local	,4
; Function compile flags: /Odtp
	.text
	.comdat	any, ??0_bstr_t@@$$FQEAA@AEBV0@@Z
.global	??0_bstr_t@@$$FQEAA@AEBV0@@Z			; _bstr_t::_bstr_t
??0_bstr_t@@$$FQEAA@AEBV0@@Z:				; _bstr_t::_bstr_t
;	.proc.def	D:J(JJ)

; Function Header:
; max stack depth = 2
; function size = 12 bytes
; local varsig tk = 0x0 
; Exception Information:
; 0 handlers, each consisting of filtered handlers

;	.formal.i8 1,"s$" SIG: Optional C Binding Modifier(token:0x6CA655).ptr.Optional C Binding Modifier(token:0x6CA658).valueType (token:0x6CA65A)
;	.formal.i8 0,"this$" SIG: Optional C Binding Modifier(token:0x6CE351).Optional C Binding Modifier(token:0x6CE353).ptr.valueType (token:0x6CE356)

;	.proc.beg
; File c:\program files (x86)\microsoft visual studio 9.0\vc\include\comutil.h
; Line 304
  0000b	02		 ldarg.0 	; this$
  0000c	03		 ldarg.1 	; s$
  0000d	4c		 ldind.i8 
  0000e	55		 stind.i8 
; Line 305
  0000f	02		 ldarg.0 	; this$
  00010	28 00 00 00 00	 call ?_AddRef@_bstr_t@@$$FAEAAXXZ
; Line 306
  00015	02		 ldarg.0 	; this$
  00016	2a		 ret 
 .end ??0_bstr_t@@$$FQEAA@AEBV0@@Z			; _bstr_t::_bstr_t
;	.proc.end.i8
_TEXT	ENDS
PUBLIC	__mep@??0_bstr_t@@$$FQEAA@AEBV0@@Z
PUBLIC	__m2mep@??0_bstr_t@@$$FQEAA@AEBV0@@Z
PUBLIC	__t2m@??0_bstr_t@@QEAA@AEBV0@@Z
;	COMDAT __mep@??0_bstr_t@@$$FQEAA@AEBV0@@Z
data	SEGMENT
__mep@??0_bstr_t@@$$FQEAA@AEBV0@@Z TOKEN 0A000019
data	ENDS
;	COMDAT __m2mep@??0_bstr_t@@$$FQEAA@AEBV0@@Z
data	SEGMENT
__m2mep@??0_bstr_t@@$$FQEAA@AEBV0@@Z DD FLAT:??0_bstr_t@@$$FQEAA@AEBV0@@Z
; Function compile flags: /Odtp
data	ENDS
;	COMDAT nep
_TEXT	SEGMENT
__t2m@??0_bstr_t@@QEAA@AEBV0@@Z PROC			; COMDAT
  00000	eb 08		 jmp	 SHORT $LN1@
  00002	0f 0b		 ud2
$LN2@:
  00004	ff 25 00 00 00
	00		 jmp	 QWORD PTR __m2mep@??0_bstr_t@@$$FQEAA@AEBV0@@Z
$LN1@:
  0000a	ff 25 00 00 00
	00		 jmp	 QWORD PTR __mep@??0_bstr_t@@$$FQEAA@AEBV0@@Z
__t2m@??0_bstr_t@@QEAA@AEBV0@@Z ENDP
_TEXT	ENDS
END
