; Listing generated by Microsoft (R) Optimizing Compiler Version 15.00.30729.01 

; Generated by VC++ for Common Language Runtime
.file "d:\mystuff\ULSLogView\ULSLogView\ULSLogView.cpp"
.global	?listWindow@@3PEAUHWND__@@EA			; listWindow
.global	?szWindowClass@@3PA_WA				; szWindowClass
.global	?hInst@@3PEAUHINSTANCE__@@EA			; hInst
.global	?szTitle@@3PA_WA				; szTitle
.global	?fileChange@@3PEAXEA				; fileChange
.global	?ffd@@3U_WIN32_FIND_DATAW@@A			; ffd
.global	?ThreadId@@3KA					; ThreadId
.global	?SECTION_SIZE@SPLogParser@@0HB			; SPLogParser::SECTION_SIZE
.global	?_Value@?$_Is_swap_move@U_Swap_move_tag@std@@@std@@2_NB ; std::_Is_swap_move<std::_Swap_move_tag>::_Value
.global	?collate@?$_Locbase@H@std@@2HB			; std::_Locbase<int>::collate
.global	?ctype@?$_Locbase@H@std@@2HB			; std::_Locbase<int>::ctype
.global	?monetary@?$_Locbase@H@std@@2HB			; std::_Locbase<int>::monetary
.global	?numeric@?$_Locbase@H@std@@2HB			; std::_Locbase<int>::numeric
.global	?time@?$_Locbase@H@std@@2HB			; std::_Locbase<int>::time
.global	?messages@?$_Locbase@H@std@@2HB			; std::_Locbase<int>::messages
.global	?all@?$_Locbase@H@std@@2HB			; std::_Locbase<int>::all
.global	?none@?$_Locbase@H@std@@2HB			; std::_Locbase<int>::none
.global	?skipws@?$_Iosb@H@std@@2W4_Fmtflags@12@B	; std::_Iosb<int>::skipws
.global	?unitbuf@?$_Iosb@H@std@@2W4_Fmtflags@12@B	; std::_Iosb<int>::unitbuf
.global	?uppercase@?$_Iosb@H@std@@2W4_Fmtflags@12@B	; std::_Iosb<int>::uppercase
.global	?showbase@?$_Iosb@H@std@@2W4_Fmtflags@12@B	; std::_Iosb<int>::showbase
.global	?showpoint@?$_Iosb@H@std@@2W4_Fmtflags@12@B	; std::_Iosb<int>::showpoint
.global	?showpos@?$_Iosb@H@std@@2W4_Fmtflags@12@B	; std::_Iosb<int>::showpos
.global	?left@?$_Iosb@H@std@@2W4_Fmtflags@12@B		; std::_Iosb<int>::left
.global	?right@?$_Iosb@H@std@@2W4_Fmtflags@12@B		; std::_Iosb<int>::right
.global	?internal@?$_Iosb@H@std@@2W4_Fmtflags@12@B	; std::_Iosb<int>::internal
.global	?dec@?$_Iosb@H@std@@2W4_Fmtflags@12@B		; std::_Iosb<int>::dec
.global	?oct@?$_Iosb@H@std@@2W4_Fmtflags@12@B		; std::_Iosb<int>::oct
.global	?hex@?$_Iosb@H@std@@2W4_Fmtflags@12@B		; std::_Iosb<int>::hex
.global	?scientific@?$_Iosb@H@std@@2W4_Fmtflags@12@B	; std::_Iosb<int>::scientific
.global	?fixed@?$_Iosb@H@std@@2W4_Fmtflags@12@B		; std::_Iosb<int>::fixed
.global	?hexfloat@?$_Iosb@H@std@@2W4_Fmtflags@12@B	; std::_Iosb<int>::hexfloat
.global	?boolalpha@?$_Iosb@H@std@@2W4_Fmtflags@12@B	; std::_Iosb<int>::boolalpha
.global	?_Stdio@?$_Iosb@H@std@@2W4_Fmtflags@12@B	; std::_Iosb<int>::_Stdio
.global	?adjustfield@?$_Iosb@H@std@@2W4_Fmtflags@12@B	; std::_Iosb<int>::adjustfield
.global	?basefield@?$_Iosb@H@std@@2W4_Fmtflags@12@B	; std::_Iosb<int>::basefield
.global	?floatfield@?$_Iosb@H@std@@2W4_Fmtflags@12@B	; std::_Iosb<int>::floatfield
.global	?goodbit@?$_Iosb@H@std@@2W4_Iostate@12@B	; std::_Iosb<int>::goodbit
.global	?eofbit@?$_Iosb@H@std@@2W4_Iostate@12@B		; std::_Iosb<int>::eofbit
.global	?failbit@?$_Iosb@H@std@@2W4_Iostate@12@B	; std::_Iosb<int>::failbit
.global	?badbit@?$_Iosb@H@std@@2W4_Iostate@12@B		; std::_Iosb<int>::badbit
.global	?_Hardfail@?$_Iosb@H@std@@2W4_Iostate@12@B	; std::_Iosb<int>::_Hardfail
.global	?in@?$_Iosb@H@std@@2W4_Openmode@12@B		; std::_Iosb<int>::in
.global	?out@?$_Iosb@H@std@@2W4_Openmode@12@B		; std::_Iosb<int>::out
.global	?ate@?$_Iosb@H@std@@2W4_Openmode@12@B		; std::_Iosb<int>::ate
.global	?app@?$_Iosb@H@std@@2W4_Openmode@12@B		; std::_Iosb<int>::app
.global	?trunc@?$_Iosb@H@std@@2W4_Openmode@12@B		; std::_Iosb<int>::trunc
.global	?_Nocreate@?$_Iosb@H@std@@2W4_Openmode@12@B	; std::_Iosb<int>::_Nocreate
.global	?_Noreplace@?$_Iosb@H@std@@2W4_Openmode@12@B	; std::_Iosb<int>::_Noreplace
.global	?binary@?$_Iosb@H@std@@2W4_Openmode@12@B	; std::_Iosb<int>::binary
.global	?beg@?$_Iosb@H@std@@2W4_Seekdir@12@B		; std::_Iosb<int>::beg
.global	?cur@?$_Iosb@H@std@@2W4_Seekdir@12@B		; std::_Iosb<int>::cur
.global	?end@?$_Iosb@H@std@@2W4_Seekdir@12@B		; std::_Iosb<int>::end
	.bss
.local	?listWindow@@3PEAUHWND__@@EA,8			; listWindow
.local	?szWindowClass@@3PA_WA,200			; szWindowClass
.local	?hInst@@3PEAUHINSTANCE__@@EA,8			; hInst
.local	?szTitle@@3PA_WA,200				; szTitle
.local	?fileChange@@3PEAXEA,8				; fileChange
.local	?ffd@@3U_WIN32_FIND_DATAW@@A,592		; ffd
.local	?ThreadId@@3KA,4				; ThreadId
	.rdata
	.comdat	any, ?end@?$_Iosb@H@std@@2W4_Seekdir@12@B

?end@?$_Iosb@H@std@@2W4_Seekdir@12@B:			; std::_Iosb<int>::end
	.word	0x2
	.rdata
	.comdat	any, ?cur@?$_Iosb@H@std@@2W4_Seekdir@12@B

?cur@?$_Iosb@H@std@@2W4_Seekdir@12@B:			; std::_Iosb<int>::cur
	.word	0x1
	.rdata
	.comdat	any, ?beg@?$_Iosb@H@std@@2W4_Seekdir@12@B

?beg@?$_Iosb@H@std@@2W4_Seekdir@12@B:			; std::_Iosb<int>::beg
	.word	0x0
	.rdata
	.comdat	any, ?binary@?$_Iosb@H@std@@2W4_Openmode@12@B

?binary@?$_Iosb@H@std@@2W4_Openmode@12@B:		; std::_Iosb<int>::binary
	.word	0x20
	.rdata
	.comdat	any, ?_Noreplace@?$_Iosb@H@std@@2W4_Openmode@12@B

?_Noreplace@?$_Iosb@H@std@@2W4_Openmode@12@B:		; std::_Iosb<int>::_Noreplace
	.word	0x80
	.rdata
	.comdat	any, ?_Nocreate@?$_Iosb@H@std@@2W4_Openmode@12@B

?_Nocreate@?$_Iosb@H@std@@2W4_Openmode@12@B:		; std::_Iosb<int>::_Nocreate
	.word	0x40
	.rdata
	.comdat	any, ?trunc@?$_Iosb@H@std@@2W4_Openmode@12@B

?trunc@?$_Iosb@H@std@@2W4_Openmode@12@B:		; std::_Iosb<int>::trunc
	.word	0x10
	.rdata
	.comdat	any, ?app@?$_Iosb@H@std@@2W4_Openmode@12@B

?app@?$_Iosb@H@std@@2W4_Openmode@12@B:			; std::_Iosb<int>::app
	.word	0x8
	.rdata
	.comdat	any, ?ate@?$_Iosb@H@std@@2W4_Openmode@12@B

?ate@?$_Iosb@H@std@@2W4_Openmode@12@B:			; std::_Iosb<int>::ate
	.word	0x4
	.rdata
	.comdat	any, ?out@?$_Iosb@H@std@@2W4_Openmode@12@B

?out@?$_Iosb@H@std@@2W4_Openmode@12@B:			; std::_Iosb<int>::out
	.word	0x2
	.rdata
	.comdat	any, ?in@?$_Iosb@H@std@@2W4_Openmode@12@B

?in@?$_Iosb@H@std@@2W4_Openmode@12@B:			; std::_Iosb<int>::in
	.word	0x1
	.rdata
	.comdat	any, ?_Hardfail@?$_Iosb@H@std@@2W4_Iostate@12@B

?_Hardfail@?$_Iosb@H@std@@2W4_Iostate@12@B:		; std::_Iosb<int>::_Hardfail
	.word	0x10
	.rdata
	.comdat	any, ?badbit@?$_Iosb@H@std@@2W4_Iostate@12@B

?badbit@?$_Iosb@H@std@@2W4_Iostate@12@B:		; std::_Iosb<int>::badbit
	.word	0x4
	.rdata
	.comdat	any, ?failbit@?$_Iosb@H@std@@2W4_Iostate@12@B

?failbit@?$_Iosb@H@std@@2W4_Iostate@12@B:		; std::_Iosb<int>::failbit
	.word	0x2
	.rdata
	.comdat	any, ?eofbit@?$_Iosb@H@std@@2W4_Iostate@12@B

?eofbit@?$_Iosb@H@std@@2W4_Iostate@12@B:		; std::_Iosb<int>::eofbit
	.word	0x1
	.rdata
	.comdat	any, ?goodbit@?$_Iosb@H@std@@2W4_Iostate@12@B

?goodbit@?$_Iosb@H@std@@2W4_Iostate@12@B:		; std::_Iosb<int>::goodbit
	.word	0x0
	.rdata
	.comdat	any, ?floatfield@?$_Iosb@H@std@@2W4_Fmtflags@12@B

?floatfield@?$_Iosb@H@std@@2W4_Fmtflags@12@B:		; std::_Iosb<int>::floatfield
	.word	0x3000
	.rdata
	.comdat	any, ?basefield@?$_Iosb@H@std@@2W4_Fmtflags@12@B

?basefield@?$_Iosb@H@std@@2W4_Fmtflags@12@B:		; std::_Iosb<int>::basefield
	.word	0xe00
	.rdata
	.comdat	any, ?adjustfield@?$_Iosb@H@std@@2W4_Fmtflags@12@B

?adjustfield@?$_Iosb@H@std@@2W4_Fmtflags@12@B:		; std::_Iosb<int>::adjustfield
	.word	0x1c0
	.rdata
	.comdat	any, ?_Stdio@?$_Iosb@H@std@@2W4_Fmtflags@12@B

?_Stdio@?$_Iosb@H@std@@2W4_Fmtflags@12@B:		; std::_Iosb<int>::_Stdio
	.word	0x8000
	.rdata
	.comdat	any, ?boolalpha@?$_Iosb@H@std@@2W4_Fmtflags@12@B

?boolalpha@?$_Iosb@H@std@@2W4_Fmtflags@12@B:		; std::_Iosb<int>::boolalpha
	.word	0x4000
	.rdata
	.comdat	any, ?hexfloat@?$_Iosb@H@std@@2W4_Fmtflags@12@B

?hexfloat@?$_Iosb@H@std@@2W4_Fmtflags@12@B:		; std::_Iosb<int>::hexfloat
	.word	0x3000
	.rdata
	.comdat	any, ?fixed@?$_Iosb@H@std@@2W4_Fmtflags@12@B

?fixed@?$_Iosb@H@std@@2W4_Fmtflags@12@B:		; std::_Iosb<int>::fixed
	.word	0x2000
	.rdata
	.comdat	any, ?scientific@?$_Iosb@H@std@@2W4_Fmtflags@12@B

?scientific@?$_Iosb@H@std@@2W4_Fmtflags@12@B:		; std::_Iosb<int>::scientific
	.word	0x1000
	.rdata
	.comdat	any, ?hex@?$_Iosb@H@std@@2W4_Fmtflags@12@B

?hex@?$_Iosb@H@std@@2W4_Fmtflags@12@B:			; std::_Iosb<int>::hex
	.word	0x800
	.rdata
	.comdat	any, ?oct@?$_Iosb@H@std@@2W4_Fmtflags@12@B

?oct@?$_Iosb@H@std@@2W4_Fmtflags@12@B:			; std::_Iosb<int>::oct
	.word	0x400
	.rdata
	.comdat	any, ?dec@?$_Iosb@H@std@@2W4_Fmtflags@12@B

?dec@?$_Iosb@H@std@@2W4_Fmtflags@12@B:			; std::_Iosb<int>::dec
	.word	0x200
	.rdata
	.comdat	any, ?internal@?$_Iosb@H@std@@2W4_Fmtflags@12@B

?internal@?$_Iosb@H@std@@2W4_Fmtflags@12@B:		; std::_Iosb<int>::internal
	.word	0x100
	.rdata
	.comdat	any, ?right@?$_Iosb@H@std@@2W4_Fmtflags@12@B

?right@?$_Iosb@H@std@@2W4_Fmtflags@12@B:		; std::_Iosb<int>::right
	.word	0x80
	.rdata
	.comdat	any, ?left@?$_Iosb@H@std@@2W4_Fmtflags@12@B

?left@?$_Iosb@H@std@@2W4_Fmtflags@12@B:			; std::_Iosb<int>::left
	.word	0x40
	.rdata
	.comdat	any, ?showpos@?$_Iosb@H@std@@2W4_Fmtflags@12@B

?showpos@?$_Iosb@H@std@@2W4_Fmtflags@12@B:		; std::_Iosb<int>::showpos
	.word	0x20
	.rdata
	.comdat	any, ?showpoint@?$_Iosb@H@std@@2W4_Fmtflags@12@B

?showpoint@?$_Iosb@H@std@@2W4_Fmtflags@12@B:		; std::_Iosb<int>::showpoint
	.word	0x10
	.rdata
	.comdat	any, ?showbase@?$_Iosb@H@std@@2W4_Fmtflags@12@B

?showbase@?$_Iosb@H@std@@2W4_Fmtflags@12@B:		; std::_Iosb<int>::showbase
	.word	0x8
	.rdata
	.comdat	any, ?uppercase@?$_Iosb@H@std@@2W4_Fmtflags@12@B

?uppercase@?$_Iosb@H@std@@2W4_Fmtflags@12@B:		; std::_Iosb<int>::uppercase
	.word	0x4
	.rdata
	.comdat	any, ?unitbuf@?$_Iosb@H@std@@2W4_Fmtflags@12@B

?unitbuf@?$_Iosb@H@std@@2W4_Fmtflags@12@B:		; std::_Iosb<int>::unitbuf
	.word	0x2
	.rdata
	.comdat	any, ?skipws@?$_Iosb@H@std@@2W4_Fmtflags@12@B

?skipws@?$_Iosb@H@std@@2W4_Fmtflags@12@B:		; std::_Iosb<int>::skipws
	.word	0x1
	.rdata
	.comdat	any, ?none@?$_Locbase@H@std@@2HB

?none@?$_Locbase@H@std@@2HB:				; std::_Locbase<int>::none
	.word	0x0
	.rdata
	.comdat	any, ?all@?$_Locbase@H@std@@2HB

?all@?$_Locbase@H@std@@2HB:				; std::_Locbase<int>::all
	.word	0x3f
	.rdata
	.comdat	any, ?messages@?$_Locbase@H@std@@2HB

?messages@?$_Locbase@H@std@@2HB:			; std::_Locbase<int>::messages
	.word	0x20
	.rdata
	.comdat	any, ?time@?$_Locbase@H@std@@2HB

?time@?$_Locbase@H@std@@2HB:				; std::_Locbase<int>::time
	.word	0x10
	.rdata
	.comdat	any, ?numeric@?$_Locbase@H@std@@2HB

?numeric@?$_Locbase@H@std@@2HB:				; std::_Locbase<int>::numeric
	.word	0x8
	.rdata
	.comdat	any, ?monetary@?$_Locbase@H@std@@2HB

?monetary@?$_Locbase@H@std@@2HB:			; std::_Locbase<int>::monetary
	.word	0x4
	.rdata
	.comdat	any, ?ctype@?$_Locbase@H@std@@2HB

?ctype@?$_Locbase@H@std@@2HB:				; std::_Locbase<int>::ctype
	.word	0x2
	.rdata
	.comdat	any, ?collate@?$_Locbase@H@std@@2HB

?collate@?$_Locbase@H@std@@2HB:				; std::_Locbase<int>::collate
	.word	0x1
	.rdata
	.comdat	any, ?_Value@?$_Is_swap_move@U_Swap_move_tag@std@@@std@@2_NB

?_Value@?$_Is_swap_move@U_Swap_move_tag@std@@@std@@2_NB: ; std::_Is_swap_move<std::_Swap_move_tag>::_Value
	.byte	0x1
	.data

_bad_alloc_Message:
	DQ	$SG52333
	.rdata
	.space	1536

$SG52333:
	.ascii	"bad allocation\000"
	.space	1

$SG68861:
	.ascii	"S\000y\000s\000L\000i\000s\000t\000V\000i\000e\000w\0003"
	.ascii	"\0002\000\000\000"

$SG68874:
	.ascii	"-1\000"
	.space	1

$SG68876:
	.ascii	"C\000:\000\\\000P\000r\000o\000g\000r\000a\000m\000 \000"
	.ascii	"F\000i\000l\000e\000s\000\\\000C\000o\000m\000m\000o\000n"
	.ascii	"\000 \000F\000i\000l\000e\000s\000\\\000M\000i\000c\000r\000"
	.ascii	"o\000s\000o\000f\000t\000 \000S\000h\000a\000r\000e\000d\000"
	.ascii	"\\\000W\000e\000b\000 \000S\000e\000r\000v\000e\000r\000 "
	.ascii	"\000E\000x\000t\000e\000n\000s\000i\000o\000n\000s\000\\\000"
	.ascii	"1\0002\000\\\000L\000O\000G\000S\000\000\000"
	.space	6

$SG68881:
	.ascii	"\\\000*\000.\000l\000o\000g\000\000\000"
	.rdata
	.comdat	any, ?SECTION_SIZE@SPLogParser@@0HB

?SECTION_SIZE@SPLogParser@@0HB:				; SPLogParser::SECTION_SIZE
	.word	0x8
.global	
.global	
.global	
	.bss
.local	$T77107,0
.local	,4
.local	,4
.local	,4
; Function compile flags: /Odtp
	.text
	.comdat	any, ?GetMessage@@$$J0YAHPEAUtagMSG@@PEAUHWND__@@II@Z
.global	?GetMessage@@$$J0YAHPEAUtagMSG@@PEAUHWND__@@II@Z ; GetMessage
?GetMessage@@$$J0YAHPEAUtagMSG@@PEAUHWND__@@II@Z:	; GetMessage
;	.proc.def	D:I(JJII)

; Function Header:
; max stack depth = 4
; function size = 12 bytes
; local varsig tk = 0x11000038 
; Exception Information:
; 0 handlers, each consisting of filtered handlers

;	.formal.u4 3,"wMsgFilterMax$" SIG: u4
;	.formal.u4 2,"wMsgFilterMin$" SIG: u4
;	.formal.i8 1,"hWnd$" SIG: ptr.valueType (token:0x53BDADA)
;	.formal.i8 0,"lpMsg$" SIG: ptr.valueType (token:0x53A8A8A)
;	.local.i4 0,"$T77103" SIG: i4

;	.proc.beg
; File c:\program files\microsoft sdks\windows\v6.0a\include\winuser.h
; Line 3011
  0000b	02		 ldarg.0 	; lpMsg$
  0000c	03		 ldarg.1 	; hWnd$
  0000d	04		 ldarg.2 	; wMsgFilterMin$
  0000e	05		 ldarg.3 	; wMsgFilterMax$
  0000f	28 00 00 00 00	 call ?GetMessageW@@$$J0YAHPEAUtagMSG@@PEAUHWND__@@II@Z
  00014	0a		 stloc.0 	; $T77103
; Line 3012
  00015	06		 ldloc.0 	; $T77103
  00016	2a		 ret 
 .end ?GetMessage@@$$J0YAHPEAUtagMSG@@PEAUHWND__@@II@Z	; GetMessage
;	.proc.end.i4
_TEXT	ENDS
PUBLIC	__mep@?GetMessage@@$$J0YAHPEAUtagMSG@@PEAUHWND__@@II@Z
PUBLIC	__m2mep@?GetMessage@@$$J0YAHPEAUtagMSG@@PEAUHWND__@@II@Z
PUBLIC	__t2m@GetMessage
;	COMDAT __mep@?GetMessage@@$$J0YAHPEAUtagMSG@@PEAUHWND__@@II@Z
data	SEGMENT
__mep@?GetMessage@@$$J0YAHPEAUtagMSG@@PEAUHWND__@@II@Z TOKEN 0A000013
data	ENDS
;	COMDAT __m2mep@?GetMessage@@$$J0YAHPEAUtagMSG@@PEAUHWND__@@II@Z
data	SEGMENT
__m2mep@?GetMessage@@$$J0YAHPEAUtagMSG@@PEAUHWND__@@II@Z DD FLAT:?GetMessage@@$$J0YAHPEAUtagMSG@@PEAUHWND__@@II@Z
; Function compile flags: /Odtp
data	ENDS
;	COMDAT nep
_TEXT	SEGMENT
__t2m@GetMessage PROC					; COMDAT
  00000	eb 08		 jmp	 SHORT $LN1@t2m
  00002	0f 0b		 ud2
$LN2@t2m:
  00004	ff 25 00 00 00
	00		 jmp	 QWORD PTR __m2mep@?GetMessage@@$$J0YAHPEAUtagMSG@@PEAUHWND__@@II@Z
$LN1@t2m:
  0000a	ff 25 00 00 00
	00		 jmp	 QWORD PTR __mep@?GetMessage@@$$J0YAHPEAUtagMSG@@PEAUHWND__@@II@Z
__t2m@GetMessage ENDP
.global	
	.bss
.local	$T77119,0
.local	,4
; Function compile flags: /Odtp
	.text
	.comdat	any, ?DispatchMessage@@$$J0YA_JPEBUtagMSG@@@Z
.global	?DispatchMessage@@$$J0YA_JPEBUtagMSG@@@Z	; DispatchMessage
?DispatchMessage@@$$J0YA_JPEBUtagMSG@@@Z:		; DispatchMessage
;	.proc.def	D:J(J)

; Function Header:
; max stack depth = 1
; function size = 9 bytes
; local varsig tk = 0x1100003A 
; Exception Information:
; 0 handlers, each consisting of filtered handlers

;	.formal.i8 0,"lpMsg$" SIG: ptr.Optional C Binding Modifier(token:0x53BCD4A).valueType (token:0x53BCD4C)
;	.local.i8 0,"$T77117" SIG: i8

;	.proc.beg
; Line 3052
  0000b	02		 ldarg.0 	; lpMsg$
  0000c	28 00 00 00 00	 call ?DispatchMessageW@@$$J0YA_JPEBUtagMSG@@@Z
  00011	0a		 stloc.0 	; $T77117
; Line 3053
  00012	06		 ldloc.0 	; $T77117
  00013	2a		 ret 
 .end ?DispatchMessage@@$$J0YA_JPEBUtagMSG@@@Z		; DispatchMessage
;	.proc.end.i8
_TEXT	ENDS
PUBLIC	__mep@?DispatchMessage@@$$J0YA_JPEBUtagMSG@@@Z
PUBLIC	__m2mep@?DispatchMessage@@$$J0YA_JPEBUtagMSG@@@Z
PUBLIC	__t2m@DispatchMessage
;	COMDAT __mep@?DispatchMessage@@$$J0YA_JPEBUtagMSG@@@Z
data	SEGMENT
__mep@?DispatchMessage@@$$J0YA_JPEBUtagMSG@@@Z TOKEN 0A000014
data	ENDS
;	COMDAT __m2mep@?DispatchMessage@@$$J0YA_JPEBUtagMSG@@@Z
data	SEGMENT
__m2mep@?DispatchMessage@@$$J0YA_JPEBUtagMSG@@@Z DD FLAT:?DispatchMessage@@$$J0YA_JPEBUtagMSG@@@Z
; Function compile flags: /Odtp
data	ENDS
;	COMDAT nep
_TEXT	SEGMENT
__t2m@DispatchMessage PROC				; COMDAT
  00000	eb 08		 jmp	 SHORT $LN1@t2m@2
  00002	0f 0b		 ud2
$LN2@t2m@2:
  00004	ff 25 00 00 00
	00		 jmp	 QWORD PTR __m2mep@?DispatchMessage@@$$J0YA_JPEBUtagMSG@@@Z
$LN1@t2m@2:
  0000a	ff 25 00 00 00
	00		 jmp	 QWORD PTR __mep@?DispatchMessage@@$$J0YA_JPEBUtagMSG@@@Z
__t2m@DispatchMessage ENDP
.global	
	.bss
.local	$T77131,0
.local	,4
; Function compile flags: /Odtp
	.text
	.comdat	any, ?MessageBox@@$$J0YAHPEAUHWND__@@PEB_W1I@Z
.global	?MessageBox@@$$J0YAHPEAUHWND__@@PEB_W1I@Z	; MessageBox
?MessageBox@@$$J0YAHPEAUHWND__@@PEB_W1I@Z:		; MessageBox
;	.proc.def	D:I(JJJI)

; Function Header:
; max stack depth = 4
; function size = 12 bytes
; local varsig tk = 0x11000038 
; Exception Information:
; 0 handlers, each consisting of filtered handlers

;	.formal.u4 3,"uType$" SIG: u4
;	.formal.i8 2,"lpCaption$" SIG: ptr.Optional C Binding Modifier(token:0x5392842).char
;	.formal.i8 1,"lpText$" SIG: ptr.Optional C Binding Modifier(token:0x5392842).char
;	.formal.i8 0,"hWnd$" SIG: ptr.valueType (token:0x53BDADA)
;	.local.i4 0,"$T77129" SIG: i4

;	.proc.beg
; Line 7390
  0000b	02		 ldarg.0 	; hWnd$
  0000c	03		 ldarg.1 	; lpText$
  0000d	04		 ldarg.2 	; lpCaption$
  0000e	05		 ldarg.3 	; uType$
  0000f	28 00 00 00 00	 call ?MessageBoxW@@$$J0YAHPEAUHWND__@@PEB_W1I@Z
  00014	0a		 stloc.0 	; $T77129
; Line 7391
  00015	06		 ldloc.0 	; $T77129
  00016	2a		 ret 
 .end ?MessageBox@@$$J0YAHPEAUHWND__@@PEB_W1I@Z		; MessageBox
;	.proc.end.i4
_TEXT	ENDS
PUBLIC	__mep@?MessageBox@@$$J0YAHPEAUHWND__@@PEB_W1I@Z
PUBLIC	__m2mep@?MessageBox@@$$J0YAHPEAUHWND__@@PEB_W1I@Z
PUBLIC	__t2m@MessageBox
;	COMDAT __mep@?MessageBox@@$$J0YAHPEAUHWND__@@PEB_W1I@Z
data	SEGMENT
__mep@?MessageBox@@$$J0YAHPEAUHWND__@@PEB_W1I@Z TOKEN 0A000015
data	ENDS
;	COMDAT __m2mep@?MessageBox@@$$J0YAHPEAUHWND__@@PEB_W1I@Z
data	SEGMENT
__m2mep@?MessageBox@@$$J0YAHPEAUHWND__@@PEB_W1I@Z DD FLAT:?MessageBox@@$$J0YAHPEAUHWND__@@PEB_W1I@Z
; Function compile flags: /Odtp
data	ENDS
;	COMDAT nep
_TEXT	SEGMENT
__t2m@MessageBox PROC					; COMDAT
  00000	eb 08		 jmp	 SHORT $LN1@t2m@3
  00002	0f 0b		 ud2
$LN2@t2m@3:
  00004	ff 25 00 00 00
	00		 jmp	 QWORD PTR __m2mep@?MessageBox@@$$J0YAHPEAUHWND__@@PEB_W1I@Z
$LN1@t2m@3:
  0000a	ff 25 00 00 00
	00		 jmp	 QWORD PTR __mep@?MessageBox@@$$J0YAHPEAUHWND__@@PEB_W1I@Z
__t2m@MessageBox ENDP
.global	
	.bss
.local	,4
; Function compile flags: /Odtp
	.text
	.comdat	any, ?CheckError@_com_util@@$$FYAXJ@Z
.global	?CheckError@_com_util@@$$FYAXJ@Z		; _com_util::CheckError
?CheckError@_com_util@@$$FYAXJ@Z:			; _com_util::CheckError
;	.proc.def	D:V(I)

; Function Header:
; max stack depth = 2
; function size = 11 bytes
; local varsig tk = 0x0 
; Exception Information:
; 0 handlers, each consisting of filtered handlers

;	.formal.i4 0,"hr$" SIG: Optional C Binding Modifier(token:0x538AE4D).i4

;	.proc.beg
; File c:\program files (x86)\microsoft visual studio 9.0\vc\include\comutil.h
; Line 96
  0000b	02		 ldarg.0 	; hr$
  0000c	16		 ldc.i.0 0	; i32 0x0
  0000d	2f 07		 bge.s $LN3@CheckError
; Line 97
  0000f	02		 ldarg.0 	; hr$
  00010	28 00 00 00 00	 call ?_com_issue_error@@$$FYAXJ@Z
$LN3@CheckError:
; Line 99
  00016	2a		 ret 
 .end ?CheckError@_com_util@@$$FYAXJ@Z			; _com_util::CheckError
;	.proc.end.void
_TEXT	ENDS
PUBLIC	__mep@?CheckError@_com_util@@$$FYAXJ@Z
PUBLIC	__m2mep@?CheckError@_com_util@@$$FYAXJ@Z
PUBLIC	__t2m@?CheckError@_com_util@@YAXJ@Z
;	COMDAT __mep@?CheckError@_com_util@@$$FYAXJ@Z
data	SEGMENT
__mep@?CheckError@_com_util@@$$FYAXJ@Z TOKEN 0A00001D
data	ENDS
;	COMDAT __m2mep@?CheckError@_com_util@@$$FYAXJ@Z
data	SEGMENT
__m2mep@?CheckError@_com_util@@$$FYAXJ@Z DD FLAT:?CheckError@_com_util@@$$FYAXJ@Z
; Function compile flags: /Odtp
data	ENDS
;	COMDAT nep
_TEXT	SEGMENT
__t2m@?CheckError@_com_util@@YAXJ@Z PROC		; COMDAT
  00000	eb 08		 jmp	 SHORT $LN1@
  00002	0f 0b		 ud2
$LN2@:
  00004	ff 25 00 00 00
	00		 jmp	 QWORD PTR __m2mep@?CheckError@_com_util@@$$FYAXJ@Z
$LN1@:
  0000a	ff 25 00 00 00
	00		 jmp	 QWORD PTR __mep@?CheckError@_com_util@@$$FYAXJ@Z
__t2m@?CheckError@_com_util@@YAXJ@Z ENDP
.global	
	.bss
.local	$T77154,0
.local	,4
; Function compile flags: /Odtp
	.text
	.comdat	any, ?AddRef@Data_t@_bstr_t@@$$FQEAAKXZ
.global	?AddRef@Data_t@_bstr_t@@$$FQEAAKXZ		; _bstr_t::Data_t::AddRef
?AddRef@Data_t@_bstr_t@@$$FQEAAKXZ:			; _bstr_t::Data_t::AddRef
;	.proc.def	D:I(J)

; Function Header:
; max stack depth = 2
; function size = 20 bytes
; local varsig tk = 0x1100003E 
; Exception Information:
; 0 handlers, each consisting of filtered handlers

;	.formal.i8 0,"this$" SIG: Optional C Binding Modifier(token:0x538B23D).Optional C Binding Modifier(token:0x538B23F).ptr.valueType (token:0x538B242)
;	.local.u4 0,"$T77152" SIG: Optional C Binding Modifier(token:0x5305315).u4

;	.proc.beg
; Line 767
  0000b	02		 ldarg.0 	; this$
  0000c	1f 10		 ldc.i4.s 16	; i64 0x10
  0000e	6a		 conv.i8 
  0000f	58		 add 
  00010	28 00 00 00 00	 call System.Threading.Interlocked.Increment
  00015	26		 pop 
; Line 768
  00016	02		 ldarg.0 	; this$
  00017	1f 10		 ldc.i4.s 16	; i64 0x10
  00019	6a		 conv.i8 
  0001a	58		 add 
  0001b	4a		 ldind.i4 
  0001c	0a		 stloc.0 	; $T77152
; Line 769
  0001d	06		 ldloc.0 	; $T77152
  0001e	2a		 ret 
 .end ?AddRef@Data_t@_bstr_t@@$$FQEAAKXZ		; _bstr_t::Data_t::AddRef
;	.proc.end.u4
_TEXT	ENDS
PUBLIC	__mep@?AddRef@Data_t@_bstr_t@@$$FQEAAKXZ
PUBLIC	__m2mep@?AddRef@Data_t@_bstr_t@@$$FQEAAKXZ
PUBLIC	__t2m@?AddRef@Data_t@_bstr_t@@QEAAKXZ
;	COMDAT __mep@?AddRef@Data_t@_bstr_t@@$$FQEAAKXZ
data	SEGMENT
__mep@?AddRef@Data_t@_bstr_t@@$$FQEAAKXZ TOKEN 0A000033
data	ENDS
;	COMDAT __m2mep@?AddRef@Data_t@_bstr_t@@$$FQEAAKXZ
data	SEGMENT
__m2mep@?AddRef@Data_t@_bstr_t@@$$FQEAAKXZ DD FLAT:?AddRef@Data_t@_bstr_t@@$$FQEAAKXZ
; Function compile flags: /Odtp
data	ENDS
;	COMDAT nep
_TEXT	SEGMENT
__t2m@?AddRef@Data_t@_bstr_t@@QEAAKXZ PROC		; COMDAT
  00000	eb 08		 jmp	 SHORT $LN1@
  00002	0f 0b		 ud2
$LN2@:
  00004	ff 25 00 00 00
	00		 jmp	 QWORD PTR __m2mep@?AddRef@Data_t@_bstr_t@@$$FQEAAKXZ
$LN1@:
  0000a	ff 25 00 00 00
	00		 jmp	 QWORD PTR __mep@?AddRef@Data_t@_bstr_t@@$$FQEAAKXZ
__t2m@?AddRef@Data_t@_bstr_t@@QEAAKXZ ENDP
.global	
.global	
	.bss
.local	,4
.local	,4
; Function compile flags: /Odtp
	.text
	.comdat	any, ??0_variant_t@@$$FQEAA@AEBV0@@Z
.global	??0_variant_t@@$$FQEAA@AEBV0@@Z			; _variant_t::_variant_t
??0_variant_t@@$$FQEAA@AEBV0@@Z:			; _variant_t::_variant_t
;	.proc.def	D:J(JJ)

; Function Header:
; max stack depth = 2
; function size = 20 bytes
; local varsig tk = 0x0 
; Exception Information:
; 0 handlers, each consisting of filtered handlers

;	.formal.i8 1,"varSrc$" SIG: Optional C Binding Modifier(token:0x538CE59).ptr.Optional C Binding Modifier(token:0x538CE5C).valueType (token:0x538CE5E)
;	.formal.i8 0,"this$" SIG: Optional C Binding Modifier(token:0x53CF8F5).Optional C Binding Modifier(token:0x53CF8F7).ptr.valueType (token:0x53CF8FA)

;	.proc.beg
; Line 1156
  0000b	02		 ldarg.0 	; this$
  0000c	28 00 00 00 00	 call ?VariantInit@@$$J0YAXPEAUtagVARIANT@@@Z
; Line 1157
  00011	02		 ldarg.0 	; this$
  00012	03		 ldarg.1 	; varSrc$
  00013	28 00 00 00 00	 call ?VariantCopy@@$$J0YAJPEAUtagVARIANT@@PEBU1@@Z
  00018	28 00 00 00 00	 call ?CheckError@_com_util@@$$FYAXJ@Z
; Line 1158
  0001d	02		 ldarg.0 	; this$
  0001e	2a		 ret 
 .end ??0_variant_t@@$$FQEAA@AEBV0@@Z			; _variant_t::_variant_t
;	.proc.end.i8
_TEXT	ENDS
PUBLIC	__mep@??0_variant_t@@$$FQEAA@AEBV0@@Z
PUBLIC	__m2mep@??0_variant_t@@$$FQEAA@AEBV0@@Z
PUBLIC	__t2m@??0_variant_t@@QEAA@AEBV0@@Z
;	COMDAT __mep@??0_variant_t@@$$FQEAA@AEBV0@@Z
data	SEGMENT
__mep@??0_variant_t@@$$FQEAA@AEBV0@@Z TOKEN 0A000040
data	ENDS
;	COMDAT __m2mep@??0_variant_t@@$$FQEAA@AEBV0@@Z
data	SEGMENT
__m2mep@??0_variant_t@@$$FQEAA@AEBV0@@Z DD FLAT:??0_variant_t@@$$FQEAA@AEBV0@@Z
; Function compile flags: /Odtp
data	ENDS
;	COMDAT nep
_TEXT	SEGMENT
__t2m@??0_variant_t@@QEAA@AEBV0@@Z PROC			; COMDAT
  00000	eb 08		 jmp	 SHORT $LN1@
  00002	0f 0b		 ud2
$LN2@:
  00004	ff 25 00 00 00
	00		 jmp	 QWORD PTR __m2mep@??0_variant_t@@$$FQEAA@AEBV0@@Z
$LN1@:
  0000a	ff 25 00 00 00
	00		 jmp	 QWORD PTR __mep@??0_variant_t@@$$FQEAA@AEBV0@@Z
__t2m@??0_variant_t@@QEAA@AEBV0@@Z ENDP
.global	??_C@_1IO@BBMNBHMA@?$AAC?$AA?3?$AA?2?$AAP?$AAr?$AAo?$AAg?$AAr?$AAa?$AAm?$AA?5?$AAF?$AAi?$AAl?$AAe?$AAs?$AA?5?$AA?$CI?$AAx?$AA8?$AA6?$AA?$CJ?$AA?2?$AAM?$AAi?$AAc?$AAr?$AAo?$AAs?$AAo?$AAf?$AAt@ ; `string'
.global	??_C@_1DC@POOIKBAO@?$AAI?$AAT?$AAE?$AAR?$AAA?$AAT?$AAO?$AAR?$AA?5?$AAL?$AAI?$AAS?$AAT?$AA?5?$AAC?$AAO?$AAR?$AAR?$AAU?$AAP?$AAT?$AAE?$AAD?$AA?$CB?$AA?$AA@ ; `string'
.global	
.global	
	.bss
.local	$T77177,0
.local	,4
.local	,4
; File c:\program files (x86)\microsoft visual studio 9.0\vc\include\xutility
	.rdata
	.comdat	any, ??_C@_1IO@BBMNBHMA@?$AAC?$AA?3?$AA?2?$AAP?$AAr?$AAo?$AAg?$AAr?$AAa?$AAm?$AA?5?$AAF?$AAi?$AAl?$AAe?$AAs?$AA?5?$AA?$CI?$AAx?$AA8?$AA6?$AA?$CJ?$AA?2?$AAM?$AAi?$AAc?$AAr?$AAo?$AAs?$AAo?$AAf?$AAt@

??_C@_1IO@BBMNBHMA@?$AAC?$AA?3?$AA?2?$AAP?$AAr?$AAo?$AAg?$AAr?$AAa?$AAm?$AA?5?$AAF?$AAi?$AAl?$AAe?$AAs?$AA?5?$AA?$CI?$AAx?$AA8?$AA6?$AA?$CJ?$AA?2?$AAM?$AAi?$AAc?$AAr?$AAo?$AAs?$AAo?$AAf?$AAt@: ; `string'
	.ascii	"C\000:\000\\\000P\000r\000o\000g\000r\000a\000m\000 \000"
	.ascii	"F\000i\000l\000e\000s\000 \000(\000x\0008\0006\000)\000\\"
	.ascii	"\000M\000i\000c\000r\000o\000s\000o\000f\000t\000 \000V\000"
	.ascii	"i\000s\000u\000a\000l\000 \000S\000t\000u\000d\000i\000o\000"
	.ascii	" \0009\000.\0000\000\\\000V\000C\000\\\000i\000n\000c\000"
	.ascii	"l\000u\000d\000e\000\\\000x\000u\000t\000i\000l\000i\000t"
	.ascii	"\000y\000\000\000"
	.rdata
	.comdat	any, ??_C@_1DC@POOIKBAO@?$AAI?$AAT?$AAE?$AAR?$AAA?$AAT?$AAO?$AAR?$AA?5?$AAL?$AAI?$AAS?$AAT?$AA?5?$AAC?$AAO?$AAR?$AAR?$AAU?$AAP?$AAT?$AAE?$AAD?$AA?$CB?$AA?$AA@

??_C@_1DC@POOIKBAO@?$AAI?$AAT?$AAE?$AAR?$AAA?$AAT?$AAO?$AAR?$AA?5?$AAL?$AAI?$AAS?$AAT?$AA?5?$AAC?$AAO?$AAR?$AAR?$AAU?$AAP?$AAT?$AAE?$AAD?$AA?$CB?$AA?$AA@: ; `string'
	.ascii	"I\000T\000E\000R\000A\000T\000O\000R\000 \000L\000I\000S"
	.ascii	"\000T\000 \000C\000O\000R\000R\000U\000P\000T\000E\000D\000"
	.ascii	"!\000\000\000"
; Function compile flags: /Odtp
	.text
	.comdat	any, ?_Orphan_me@_Iterator_base@std@@$$FQEAAXXZ
.global	?_Orphan_me@_Iterator_base@std@@$$FQEAAXXZ	; std::_Iterator_base::_Orphan_me
?_Orphan_me@_Iterator_base@std@@$$FQEAAXXZ:		; std::_Iterator_base::_Orphan_me
;	.proc.def	D:V(J)

; Function Header:
; max stack depth = 3
; function size = 74 bytes
; local varsig tk = 0x11000043 
; Exception Information:
; 0 handlers, each consisting of filtered handlers

;	.formal.i8 0,"this$" SIG: Optional C Binding Modifier(token:0x53ACF59).Optional C Binding Modifier(token:0x53ACF5B).ptr.valueType (token:0x53ACF5E)
;	.local.i8 0,"_Pnext$53624" SIG: ptr.ptr.valueType (token:0x53B850B)

;	.proc.beg
; Line 181
  0000b	02		 ldarg.0 	; this$
  0000c	4c		 ldind.i8 
  0000d	2c 46		 brfalse.s $LN5@Orphan_me
  0000f	02		 ldarg.0 	; this$
  00010	4c		 ldind.i8 
  00011	4c		 ldind.i8 
  00012	21 fd ff ff ff
	ff ff ff ff	 ldc.i8 18446744073709551613 ; u64 0xfffffffffffffffd
  0001b	2e 38		 beq.s $LN5@Orphan_me
; Line 184
  0001d	02		 ldarg.0 	; this$
  0001e	4c		 ldind.i8 
  0001f	0a		 stloc.0 	; _Pnext$53624
$LN3@Orphan_me:
; Line 185
  00021	06		 ldloc.0 	; _Pnext$53624
  00022	4c		 ldind.i8 
  00023	2c 0d		 brfalse.s $LN2@Orphan_me
  00025	06		 ldloc.0 	; _Pnext$53624
  00026	4c		 ldind.i8 
  00027	02		 ldarg.0 	; this$
  00028	2e 08		 beq.s $LN2@Orphan_me
; Line 186
  0002a	06		 ldloc.0 	; _Pnext$53624
  0002b	4c		 ldind.i8 
  0002c	1e		 ldc.i.8 8	; i64 0x8
  0002d	6a		 conv.i8 
  0002e	58		 add 
  0002f	0a		 stloc.0 	; _Pnext$53624
  00030	2b ef		 br.s $LN3@Orphan_me
$LN2@Orphan_me:
; Line 188
  00032	06		 ldloc.0 	; _Pnext$53624
  00033	4c		 ldind.i8 
  00034	2d 14		 brtrue.s $LN1@Orphan_me
; Line 189
  00036	7f 00 00 00 00	 ldsflda ??_C@_1DC@POOIKBAO@?$AAI?$AAT?$AAE?$AAR?$AAA?$AAT?$AAO?$AAR?$AA?5?$AAL?$AAI?$AAS?$AAT?$AA?5?$AAC?$AAO?$AAR?$AAR?$AAU?$AAP?$AAT?$AAE?$AAD?$AA?$CB?$AA?$AA@
  0003b	7f 00 00 00 00	 ldsflda ??_C@_1IO@BBMNBHMA@?$AAC?$AA?3?$AA?2?$AAP?$AAr?$AAo?$AAg?$AAr?$AAa?$AAm?$AA?5?$AAF?$AAi?$AAl?$AAe?$AAs?$AA?5?$AA?$CI?$AAx?$AA8?$AA6?$AA?$CJ?$AA?2?$AAM?$AAi?$AAc?$AAr?$AAo?$AAs?$AAo?$AAf?$AAt@
  00040	20 bd 00 00 00	 ldc.i4 189	; u32 0xbd
  00045	28 00 00 00 00	 call ?_Debug_message@std@@$$FYAXPEB_W0I@Z
$LN1@Orphan_me:
; Line 190
  0004a	06		 ldloc.0 	; _Pnext$53624
  0004b	02		 ldarg.0 	; this$
  0004c	1e		 ldc.i.8 8	; i64 0x8
  0004d	6a		 conv.i8 
  0004e	58		 add 
  0004f	4c		 ldind.i8 
  00050	55		 stind.i8 
; Line 191
  00051	02		 ldarg.0 	; this$
  00052	16		 ldc.i.0 0	; i64 0x0
  00053	6a		 conv.i8 
  00054	55		 stind.i8 
$LN5@Orphan_me:
; Line 193
  00055	2a		 ret 
 .end ?_Orphan_me@_Iterator_base@std@@$$FQEAAXXZ	; std::_Iterator_base::_Orphan_me
;	.proc.end.void
_TEXT	ENDS
PUBLIC	__mep@?_Orphan_me@_Iterator_base@std@@$$FQEAAXXZ
PUBLIC	__m2mep@?_Orphan_me@_Iterator_base@std@@$$FQEAAXXZ
PUBLIC	__t2m@?_Orphan_me@_Iterator_base@std@@QEAAXXZ
;	COMDAT __mep@?_Orphan_me@_Iterator_base@std@@$$FQEAAXXZ
data	SEGMENT
__mep@?_Orphan_me@_Iterator_base@std@@$$FQEAAXXZ TOKEN 0A000068
data	ENDS
;	COMDAT __m2mep@?_Orphan_me@_Iterator_base@std@@$$FQEAAXXZ
data	SEGMENT
__m2mep@?_Orphan_me@_Iterator_base@std@@$$FQEAAXXZ DD FLAT:?_Orphan_me@_Iterator_base@std@@$$FQEAAXXZ
; Function compile flags: /Odtp
data	ENDS
;	COMDAT nep
_TEXT	SEGMENT
__t2m@?_Orphan_me@_Iterator_base@std@@QEAAXXZ PROC	; COMDAT
  00000	eb 08		 jmp	 SHORT $LN1@
  00002	0f 0b		 ud2
$LN2@:
  00004	ff 25 00 00 00
	00		 jmp	 QWORD PTR __m2mep@?_Orphan_me@_Iterator_base@std@@$$FQEAAXXZ
$LN1@:
  0000a	ff 25 00 00 00
	00		 jmp	 QWORD PTR __mep@?_Orphan_me@_Iterator_base@std@@$$FQEAAXXZ
__t2m@?_Orphan_me@_Iterator_base@std@@QEAAXXZ ENDP
.global	??_7logic_error@std@@6B@			; std::logic_error::`vftable'
.global	
.global	??_R4logic_error@std@@6B@			; std::logic_error::`RTTI Complete Object Locator'
.global	??_R0?AVlogic_error@std@@@8			; std::logic_error `RTTI Type Descriptor'
.global	??_R3logic_error@std@@8				; std::logic_error::`RTTI Class Hierarchy Descriptor'
.global	??_R2logic_error@std@@8				; std::logic_error::`RTTI Base Class Array'
.global	??_R1A@?0A@EA@logic_error@std@@8		; std::logic_error::`RTTI Base Class Descriptor at (0,-1,0,64)'
.global	??_R1A@?0A@EA@exception@std@@8			; std::exception::`RTTI Base Class Descriptor at (0,-1,0,64)'
.global	??_R0?AVexception@std@@@8			; std::exception `RTTI Type Descriptor'
.global	??_R3exception@std@@8				; std::exception::`RTTI Class Hierarchy Descriptor'
.global	??_R2exception@std@@8				; std::exception::`RTTI Base Class Array'
	.bss
.local	,4
; File c:\program files (x86)\microsoft visual studio 9.0\vc\include\stdexcept
	.rdataseg	.rdata$r
	.comdat	any, ??_R2exception@std@@8

??_R2exception@std@@8:					; std::exception::`RTTI Base Class Array' DD imagerel ??_R1A@?0A@EA@exception@std@@8
	.space	3
	.rdataseg	.rdata$r
	.comdat	any, ??_R3exception@std@@8

??_R3exception@std@@8:					; std::exception::`RTTI Class Hierarchy Descriptor'
	.word	0x0
	.word	0x0
	.word	0x1 DD imagerel ??_R2exception@std@@8
	.data
	.comdat	any, ??_R0?AVexception@std@@@8

??_R0?AVexception@std@@@8:				; std::exception `RTTI Type Descriptor'
	DQ	??_7type_info@@6B@
	.double	0x0000000000000000
	.ascii	".?AVexception@std@@\000"
	.rdataseg	.rdata$r
	.comdat	any, ??_R1A@?0A@EA@exception@std@@8

??_R1A@?0A@EA@exception@std@@8:				; std::exception::`RTTI Base Class Descriptor at (0,-1,0,64)' DD imagerel ??_R0?AVexception@std@@@8
	.word	0x0
	.word	0x0
	.word	0xffffffff
	.word	0x0
	.word	0x40 DD imagerel ??_R3exception@std@@8
	.rdataseg	.rdata$r
	.comdat	any, ??_R1A@?0A@EA@logic_error@std@@8

??_R1A@?0A@EA@logic_error@std@@8:			; std::logic_error::`RTTI Base Class Descriptor at (0,-1,0,64)' DD imagerel ??_R0?AVlogic_error@std@@@8
	.word	0x1
	.word	0x0
	.word	0xffffffff
	.word	0x0
	.word	0x40 DD imagerel ??_R3logic_error@std@@8
	.rdataseg	.rdata$r
	.comdat	any, ??_R2logic_error@std@@8

??_R2logic_error@std@@8:				; std::logic_error::`RTTI Base Class Array' DD imagerel ??_R1A@?0A@EA@logic_error@std@@8 DD imagerel ??_R1A@?0A@EA@exception@std@@8
	.space	3
	.rdataseg	.rdata$r
	.comdat	any, ??_R3logic_error@std@@8

??_R3logic_error@std@@8:				; std::logic_error::`RTTI Class Hierarchy Descriptor'
	.word	0x0
	.word	0x0
	.word	0x2 DD imagerel ??_R2logic_error@std@@8
	.data
	.comdat	any, ??_R0?AVlogic_error@std@@@8

??_R0?AVlogic_error@std@@@8:				; std::logic_error `RTTI Type Descriptor'
	DQ	??_7type_info@@6B@
	.double	0x0000000000000000
	.ascii	".?AVlogic_error@std@@\000"
	.rdataseg	.rdata$r
	.comdat	any, ??_R4logic_error@std@@6B@

??_R4logic_error@std@@6B@:				; std::logic_error::`RTTI Complete Object Locator'
	.word	0x1
	.word	0x0
	.word	0x0 DD imagerel ??_R0?AVlogic_error@std@@@8 DD imagerel ??_R3logic_error@std@@8 DD imagerel ??_R4logic_error@std@@6B@
	.data
	.comdat	largest, ??_7logic_error@std@@6B@

??_7logic_error@std@@6B@:				; std::logic_error::`vftable'
	DQ	??_R4logic_error@std@@6B@
	DQ	??_Elogic_error@std@@UEAAPEAXI@Z
	DQ	?what@logic_error@std@@UEBAPEBDXZ
; Function compile flags: /Odtp
	.text
	.comdat	any, ??1logic_error@std@@$$FUEAA@XZ
.global	??1logic_error@std@@$$FUEAA@XZ			; std::logic_error::~logic_error
??1logic_error@std@@$$FUEAA@XZ:				; std::logic_error::~logic_error
;	.proc.def	D:V(J)

; Function Header:
; max stack depth = 2
; function size = 39 bytes
; local varsig tk = 0x0 
; Exception Information:
; 1 handlers, each consisting of filtered handlers

;	.formal.i8 0,"this$" SIG: Optional C Binding Modifier(token:0x53987B1).Optional C Binding Modifier(token:0x53987B3).ptr.valueType (token:0x53987B6)

;	.proc.beg
; Line 30
  0000b	02		 ldarg.0 	; this$
  0000c	7f 00 00 00 00	 ldsflda ??_7logic_error@std@@6B@
  00011	55		 stind.i8 
$LN5@logic_erro:
; Line 31
  00013	02		 ldarg.0 	; this$
  00014	1f 18		 ldc.i4.s 24	; i64 0x18
  00016	6a		 conv.i8 
  00017	58		 add 
  00018	28 00 00 00 00	 call ??1?$basic_string@DU?$char_traits@D@std@@V?$allocator@D@2@@std@@$$FQEAA@XZ
  0001d	de 0d		 leave.s $LN6@logic_erro
$LN7@logic_erro:
  0001f	fe 06 00 00 00
	00		 ldftn ??1exception@std@@$$FUEAA@XZ
  00025	02		 ldarg.0 	; this$
  00026	28 00 00 00 00	 call ?___CxxCallUnwindDtor@@$$J0YMXP6MXPEAX@Z0@Z
  0002b	dc		 endfinally 
$LN6@logic_erro:
  0002c	02		 ldarg.0 	; this$
  0002d	28 00 00 00 00	 call ??1exception@std@@$$FUEAA@XZ
  00032	2a		 ret 
 .end ??1logic_error@std@@$$FUEAA@XZ			; std::logic_error::~logic_error
;	.proc.end.void
_TEXT	ENDS
PUBLIC	__mep@??1logic_error@std@@$$FUEAA@XZ
PUBLIC	__m2mep@??1logic_error@std@@$$FUEAA@XZ
PUBLIC	__t2m@??1logic_error@std@@UEAA@XZ
;	COMDAT __mep@??1logic_error@std@@$$FUEAA@XZ
data	SEGMENT
__mep@??1logic_error@std@@$$FUEAA@XZ TOKEN 0A00006C
data	ENDS
;	COMDAT __m2mep@??1logic_error@std@@$$FUEAA@XZ
data	SEGMENT
__m2mep@??1logic_error@std@@$$FUEAA@XZ DD FLAT:??1logic_error@std@@$$FUEAA@XZ
; Function compile flags: /Odtp
data	ENDS
;	COMDAT nep
_TEXT	SEGMENT
__t2m@??1logic_error@std@@UEAA@XZ PROC			; COMDAT
  00000	eb 08		 jmp	 SHORT $LN1@
  00002	0f 0b		 ud2
  00004	ff 25 00 00 00
	00		 jmp	 QWORD PTR __m2mep@??1logic_error@std@@$$FUEAA@XZ
$LN1@:
  0000a	ff 25 00 00 00
	00		 jmp	 QWORD PTR __mep@??1logic_error@std@@$$FUEAA@XZ
__t2m@??1logic_error@std@@UEAA@XZ ENDP
.global	
	.bss
.local	$T77213,0
.local	,4
; Function compile flags: /Odtp
	.text
	.comdat	any, ?what@logic_error@std@@$$FUEBAPEBDXZ
.global	?what@logic_error@std@@$$FUEBAPEBDXZ		; std::logic_error::what
?what@logic_error@std@@$$FUEBAPEBDXZ:			; std::logic_error::what
;	.proc.def	D:J(J)

; Function Header:
; max stack depth = 2
; function size = 13 bytes
; local varsig tk = 0x11000046 
; Exception Information:
; 0 handlers, each consisting of filtered handlers

;	.formal.i8 0,"this$" SIG: Optional C Binding Modifier(token:0x5391631).Optional C Binding Modifier(token:0x5391633).ptr.Optional C Binding Modifier(token:0x5391636).valueType (token:0x5391638)
;	.local.i8 0,"$T77211" SIG: ptr.Optional C Binding Modifier(token:0x531981E).Optional C Binding Modifier(token:0x5319820).i1

;	.proc.beg
; Line 35
  0000b	02		 ldarg.0 	; this$
  0000c	1f 18		 ldc.i4.s 24	; i64 0x18
  0000e	6a		 conv.i8 
  0000f	58		 add 
  00010	28 00 00 00 00	 call ?c_str@?$basic_string@DU?$char_traits@D@std@@V?$allocator@D@2@@std@@$$FQEBAPEBDXZ
  00015	0a		 stloc.0 	; $T77211
; Line 36
  00016	06		 ldloc.0 	; $T77211
  00017	2a		 ret 
 .end ?what@logic_error@std@@$$FUEBAPEBDXZ		; std::logic_error::what
;	.proc.end.i8
_TEXT	ENDS
PUBLIC	__mep@?what@logic_error@std@@$$FUEBAPEBDXZ
PUBLIC	__m2mep@?what@logic_error@std@@$$FUEBAPEBDXZ
PUBLIC	__t2m@?what@logic_error@std@@UEBAPEBDXZ
;	COMDAT __mep@?what@logic_error@std@@$$FUEBAPEBDXZ
data	SEGMENT
__mep@?what@logic_error@std@@$$FUEBAPEBDXZ TOKEN 0A00006D
data	ENDS
;	COMDAT __m2mep@?what@logic_error@std@@$$FUEBAPEBDXZ
data	SEGMENT
__m2mep@?what@logic_error@std@@$$FUEBAPEBDXZ DD FLAT:?what@logic_error@std@@$$FUEBAPEBDXZ
; Function compile flags: /Odtp
data	ENDS
;	COMDAT nep
_TEXT	SEGMENT
__t2m@?what@logic_error@std@@UEBAPEBDXZ PROC		; COMDAT
  00000	eb 08		 jmp	 SHORT $LN1@
  00002	0f 0b		 ud2
$LN2@:
  00004	ff 25 00 00 00
	00		 jmp	 QWORD PTR __m2mep@?what@logic_error@std@@$$FUEBAPEBDXZ
$LN1@:
  0000a	ff 25 00 00 00
	00		 jmp	 QWORD PTR __mep@?what@logic_error@std@@$$FUEBAPEBDXZ
__t2m@?what@logic_error@std@@UEBAPEBDXZ ENDP
	.bss
.local	$T77222,0
; Function compile flags: /Odtp
	.text
	.comdat	any, ??_Elogic_error@std@@$$FUEAAPEAXI@Z
.global	??_Elogic_error@std@@$$FUEAAPEAXI@Z		; std::logic_error::`vector deleting destructor'
??_Elogic_error@std@@$$FUEAAPEAXI@Z:			; std::logic_error::`vector deleting destructor'
;	.proc.def	D:J(JI)

; Function Header:
; max stack depth = 4
; function size = 67 bytes
; local varsig tk = 0x11000047 
; Exception Information:
; 0 handlers, each consisting of filtered handlers

;	.formal.i8 0,"this$" SIG: Optional C Binding Modifier(token:0x53987B1).Optional C Binding Modifier(token:0x53987B3).ptr.valueType (token:0x53987B6)
;	.formal.u4 1,"__flags$" SIG: u4
;	.local.i8 0,"$T77221" SIG: ptr.void

;	.proc.beg
  0000b	03		 ldarg.1 	; __flags$
  0000c	18		 ldc.i.2 2	; u32 0x2
  0000d	5f		 and 
  0000e	2c 2a		 brfalse.s $LN3@vector
  00010	02		 ldarg.0 	; this$
  00011	1f 48		 ldc.i4.s 72	; u64 0x48
  00013	6a		 conv.i8 
  00014	02		 ldarg.0 	; this$
  00015	1e		 ldc.i.8 8	; i64 0x8
  00016	6a		 conv.i8 
  00017	59		 sub 
  00018	4a		 ldind.i4 
  00019	fe 06 00 00 00
	00		 ldftn ??1logic_error@std@@$$FUEAA@XZ
  0001f	28 00 00 00 00	 call ??_M@$$FYMXPEAX_KHP6MX0@Z@Z
  00024	03		 ldarg.1 	; __flags$
  00025	17		 ldc.i.1 1	; u32 0x1
  00026	5f		 and 
  00027	2c 0a		 brfalse.s $LN2@vector
  00029	02		 ldarg.0 	; this$
  0002a	1e		 ldc.i.8 8	; i64 0x8
  0002b	6a		 conv.i8 
  0002c	59		 sub 
  0002d	28 00 00 00 00	 call ??_V@$$FYAXPEAX@Z
$LN2@vector:
  00033	02		 ldarg.0 	; this$
  00034	1e		 ldc.i.8 8	; i64 0x8
  00035	6a		 conv.i8 
  00036	59		 sub 
  00037	0a		 stloc.0 	; $T77221
  00038	2b 13		 br.s $LN4@vector
$LN3@vector:
  0003a	02		 ldarg.0 	; this$
  0003b	28 00 00 00 00	 call ??1logic_error@std@@$$FUEAA@XZ
  00040	03		 ldarg.1 	; __flags$
  00041	17		 ldc.i.1 1	; u32 0x1
  00042	5f		 and 
  00043	2c 06		 brfalse.s $LN1@vector
  00045	02		 ldarg.0 	; this$
  00046	28 00 00 00 00	 call ??3@$$FYAXPEAX@Z
$LN1@vector:
  0004b	02		 ldarg.0 	; this$
  0004c	0a		 stloc.0 	; $T77221
$LN4@vector:
  0004d	06		 ldloc.0 	; $T77221
  0004e	2a		 ret 
 .end ??_Elogic_error@std@@$$FUEAAPEAXI@Z		; std::logic_error::`vector deleting destructor'
;	.proc.end.i8
_TEXT	ENDS
PUBLIC	__mep@??_Elogic_error@std@@$$FUEAAPEAXI@Z
PUBLIC	__m2mep@??_Elogic_error@std@@$$FUEAAPEAXI@Z
PUBLIC	__t2m@??_Elogic_error@std@@UEAAPEAXI@Z
;	COMDAT __mep@??_Elogic_error@std@@$$FUEAAPEAXI@Z
data	SEGMENT
__mep@??_Elogic_error@std@@$$FUEAAPEAXI@Z TOKEN 0A00006E
data	ENDS
;	COMDAT __m2mep@??_Elogic_error@std@@$$FUEAAPEAXI@Z
data	SEGMENT
__m2mep@??_Elogic_error@std@@$$FUEAAPEAXI@Z DD FLAT:??_Elogic_error@std@@$$FUEAAPEAXI@Z
; Function compile flags: /Odtp
data	ENDS
;	COMDAT nep
_TEXT	SEGMENT
__t2m@??_Elogic_error@std@@UEAAPEAXI@Z PROC		; COMDAT
  00000	eb 08		 jmp	 SHORT $LN1@
  00002	0f 0b		 ud2
$LN2@:
  00004	ff 25 00 00 00
	00		 jmp	 QWORD PTR __m2mep@??_Elogic_error@std@@$$FUEAAPEAXI@Z
$LN1@:
  0000a	ff 25 00 00 00
	00		 jmp	 QWORD PTR __mep@??_Elogic_error@std@@$$FUEAAPEAXI@Z
__t2m@??_Elogic_error@std@@UEAAPEAXI@Z ENDP
.global	??_7runtime_error@std@@6B@			; std::runtime_error::`vftable'
.global	
.global	??_R4runtime_error@std@@6B@			; std::runtime_error::`RTTI Complete Object Locator'
.global	??_R0?AVruntime_error@std@@@8			; std::runtime_error `RTTI Type Descriptor'
.global	??_R3runtime_error@std@@8			; std::runtime_error::`RTTI Class Hierarchy Descriptor'
.global	??_R2runtime_error@std@@8			; std::runtime_error::`RTTI Base Class Array'
.global	??_R1A@?0A@EA@runtime_error@std@@8		; std::runtime_error::`RTTI Base Class Descriptor at (0,-1,0,64)'
	.bss
.local	,4
	.rdataseg	.rdata$r
	.comdat	any, ??_R1A@?0A@EA@runtime_error@std@@8

??_R1A@?0A@EA@runtime_error@std@@8:			; std::runtime_error::`RTTI Base Class Descriptor at (0,-1,0,64)' DD imagerel ??_R0?AVruntime_error@std@@@8
	.word	0x1
	.word	0x0
	.word	0xffffffff
	.word	0x0
	.word	0x40 DD imagerel ??_R3runtime_error@std@@8
	.rdataseg	.rdata$r
	.comdat	any, ??_R2runtime_error@std@@8

??_R2runtime_error@std@@8:				; std::runtime_error::`RTTI Base Class Array' DD imagerel ??_R1A@?0A@EA@runtime_error@std@@8 DD imagerel ??_R1A@?0A@EA@exception@std@@8
	.space	3
	.rdataseg	.rdata$r
	.comdat	any, ??_R3runtime_error@std@@8

??_R3runtime_error@std@@8:				; std::runtime_error::`RTTI Class Hierarchy Descriptor'
	.word	0x0
	.word	0x0
	.word	0x2 DD imagerel ??_R2runtime_error@std@@8
	.data
	.comdat	any, ??_R0?AVruntime_error@std@@@8

??_R0?AVruntime_error@std@@@8:				; std::runtime_error `RTTI Type Descriptor'
	DQ	??_7type_info@@6B@
	.double	0x0000000000000000
	.ascii	".?AVruntime_error@std@@\000"
	.rdataseg	.rdata$r
	.comdat	any, ??_R4runtime_error@std@@6B@

??_R4runtime_error@std@@6B@:				; std::runtime_error::`RTTI Complete Object Locator'
	.word	0x1
	.word	0x0
	.word	0x0 DD imagerel ??_R0?AVruntime_error@std@@@8 DD imagerel ??_R3runtime_error@std@@8 DD imagerel ??_R4runtime_error@std@@6B@
	.data
	.comdat	largest, ??_7runtime_error@std@@6B@

??_7runtime_error@std@@6B@:				; std::runtime_error::`vftable'
	DQ	??_R4runtime_error@std@@6B@
	DQ	??_Eruntime_error@std@@UEAAPEAXI@Z
	DQ	?what@runtime_error@std@@UEBAPEBDXZ
; Function compile flags: /Odtp
	.text
	.comdat	any, ??1runtime_error@std@@$$FUEAA@XZ
.global	??1runtime_error@std@@$$FUEAA@XZ		; std::runtime_error::~runtime_error
??1runtime_error@std@@$$FUEAA@XZ:			; std::runtime_error::~runtime_error
;	.proc.def	D:V(J)

; Function Header:
; max stack depth = 2
; function size = 39 bytes
; local varsig tk = 0x0 
; Exception Information:
; 1 handlers, each consisting of filtered handlers

;	.formal.i8 0,"this$" SIG: Optional C Binding Modifier(token:0x53BD4C9).Optional C Binding Modifier(token:0x53BD4CB).ptr.valueType (token:0x53BD4CE)

;	.proc.beg
; Line 157
  0000b	02		 ldarg.0 	; this$
  0000c	7f 00 00 00 00	 ldsflda ??_7runtime_error@std@@6B@
  00011	55		 stind.i8 
$LN5@runtime_er:
; Line 158
  00013	02		 ldarg.0 	; this$
  00014	1f 18		 ldc.i4.s 24	; i64 0x18
  00016	6a		 conv.i8 
  00017	58		 add 
  00018	28 00 00 00 00	 call ??1?$basic_string@DU?$char_traits@D@std@@V?$allocator@D@2@@std@@$$FQEAA@XZ
  0001d	de 0d		 leave.s $LN6@runtime_er
$LN7@runtime_er:
  0001f	fe 06 00 00 00
	00		 ldftn ??1exception@std@@$$FUEAA@XZ
  00025	02		 ldarg.0 	; this$
  00026	28 00 00 00 00	 call ?___CxxCallUnwindDtor@@$$J0YMXP6MXPEAX@Z0@Z
  0002b	dc		 endfinally 
$LN6@runtime_er:
  0002c	02		 ldarg.0 	; this$
  0002d	28 00 00 00 00	 call ??1exception@std@@$$FUEAA@XZ
  00032	2a		 ret 
 .end ??1runtime_error@std@@$$FUEAA@XZ			; std::runtime_error::~runtime_error
;	.proc.end.void
_TEXT	ENDS
PUBLIC	__mep@??1runtime_error@std@@$$FUEAA@XZ
PUBLIC	__m2mep@??1runtime_error@std@@$$FUEAA@XZ
PUBLIC	__t2m@??1runtime_error@std@@UEAA@XZ
;	COMDAT __mep@??1runtime_error@std@@$$FUEAA@XZ
data	SEGMENT
__mep@??1runtime_error@std@@$$FUEAA@XZ TOKEN 0A000079
data	ENDS
;	COMDAT __m2mep@??1runtime_error@std@@$$FUEAA@XZ
data	SEGMENT
__m2mep@??1runtime_error@std@@$$FUEAA@XZ DD FLAT:??1runtime_error@std@@$$FUEAA@XZ
; Function compile flags: /Odtp
data	ENDS
;	COMDAT nep
_TEXT	SEGMENT
__t2m@??1runtime_error@std@@UEAA@XZ PROC		; COMDAT
  00000	eb 08		 jmp	 SHORT $LN1@
  00002	0f 0b		 ud2
  00004	ff 25 00 00 00
	00		 jmp	 QWORD PTR __m2mep@??1runtime_error@std@@$$FUEAA@XZ
$LN1@:
  0000a	ff 25 00 00 00
	00		 jmp	 QWORD PTR __mep@??1runtime_error@std@@$$FUEAA@XZ
__t2m@??1runtime_error@std@@UEAA@XZ ENDP
.global	
	.bss
.local	$T77256,0
.local	,4
; Function compile flags: /Odtp
	.text
	.comdat	any, ?what@runtime_error@std@@$$FUEBAPEBDXZ
.global	?what@runtime_error@std@@$$FUEBAPEBDXZ		; std::runtime_error::what
?what@runtime_error@std@@$$FUEBAPEBDXZ:			; std::runtime_error::what
;	.proc.def	D:J(J)

; Function Header:
; max stack depth = 2
; function size = 13 bytes
; local varsig tk = 0x11000046 
; Exception Information:
; 0 handlers, each consisting of filtered handlers

;	.formal.i8 0,"this$" SIG: Optional C Binding Modifier(token:0x53AC92D).Optional C Binding Modifier(token:0x53AC92F).ptr.Optional C Binding Modifier(token:0x53AC932).valueType (token:0x53AC934)
;	.local.i8 0,"$T77254" SIG: ptr.Optional C Binding Modifier(token:0x48637E).Optional C Binding Modifier(token:0x486380).i1

;	.proc.beg
; Line 162
  0000b	02		 ldarg.0 	; this$
  0000c	1f 18		 ldc.i4.s 24	; i64 0x18
  0000e	6a		 conv.i8 
  0000f	58		 add 
  00010	28 00 00 00 00	 call ?c_str@?$basic_string@DU?$char_traits@D@std@@V?$allocator@D@2@@std@@$$FQEBAPEBDXZ
  00015	0a		 stloc.0 	; $T77254
; Line 163
  00016	06		 ldloc.0 	; $T77254
  00017	2a		 ret 
 .end ?what@runtime_error@std@@$$FUEBAPEBDXZ		; std::runtime_error::what
;	.proc.end.i8
_TEXT	ENDS
PUBLIC	__mep@?what@runtime_error@std@@$$FUEBAPEBDXZ
PUBLIC	__m2mep@?what@runtime_error@std@@$$FUEBAPEBDXZ
PUBLIC	__t2m@?what@runtime_error@std@@UEBAPEBDXZ
;	COMDAT __mep@?what@runtime_error@std@@$$FUEBAPEBDXZ
data	SEGMENT
__mep@?what@runtime_error@std@@$$FUEBAPEBDXZ TOKEN 0A00007A
data	ENDS
;	COMDAT __m2mep@?what@runtime_error@std@@$$FUEBAPEBDXZ
data	SEGMENT
__m2mep@?what@runtime_error@std@@$$FUEBAPEBDXZ DD FLAT:?what@runtime_error@std@@$$FUEBAPEBDXZ
; Function compile flags: /Odtp
data	ENDS
;	COMDAT nep
_TEXT	SEGMENT
__t2m@?what@runtime_error@std@@UEBAPEBDXZ PROC		; COMDAT
  00000	eb 08		 jmp	 SHORT $LN1@
  00002	0f 0b		 ud2
$LN2@:
  00004	ff 25 00 00 00
	00		 jmp	 QWORD PTR __m2mep@?what@runtime_error@std@@$$FUEBAPEBDXZ
$LN1@:
  0000a	ff 25 00 00 00
	00		 jmp	 QWORD PTR __mep@?what@runtime_error@std@@$$FUEBAPEBDXZ
__t2m@?what@runtime_error@std@@UEBAPEBDXZ ENDP
	.bss
.local	$T77265,0
; Function compile flags: /Odtp
	.text
	.comdat	any, ??_Eruntime_error@std@@$$FUEAAPEAXI@Z
.global	??_Eruntime_error@std@@$$FUEAAPEAXI@Z		; std::runtime_error::`vector deleting destructor'
??_Eruntime_error@std@@$$FUEAAPEAXI@Z:			; std::runtime_error::`vector deleting destructor'
;	.proc.def	D:J(JI)

; Function Header:
; max stack depth = 4
; function size = 67 bytes
; local varsig tk = 0x11000047 
; Exception Information:
; 0 handlers, each consisting of filtered handlers

;	.formal.i8 0,"this$" SIG: Optional C Binding Modifier(token:0x53BD4C9).Optional C Binding Modifier(token:0x53BD4CB).ptr.valueType (token:0x53BD4CE)
;	.formal.u4 1,"__flags$" SIG: u4
;	.local.i8 0,"$T77264" SIG: ptr.void

;	.proc.beg
  0000b	03		 ldarg.1 	; __flags$
  0000c	18		 ldc.i.2 2	; u32 0x2
  0000d	5f		 and 
  0000e	2c 2a		 brfalse.s $LN3@vector@2
  00010	02		 ldarg.0 	; this$
  00011	1f 48		 ldc.i4.s 72	; u64 0x48
  00013	6a		 conv.i8 
  00014	02		 ldarg.0 	; this$
  00015	1e		 ldc.i.8 8	; i64 0x8
  00016	6a		 conv.i8 
  00017	59		 sub 
  00018	4a		 ldind.i4 
  00019	fe 06 00 00 00
	00		 ldftn ??1runtime_error@std@@$$FUEAA@XZ
  0001f	28 00 00 00 00	 call ??_M@$$FYMXPEAX_KHP6MX0@Z@Z
  00024	03		 ldarg.1 	; __flags$
  00025	17		 ldc.i.1 1	; u32 0x1
  00026	5f		 and 
  00027	2c 0a		 brfalse.s $LN2@vector@2
  00029	02		 ldarg.0 	; this$
  0002a	1e		 ldc.i.8 8	; i64 0x8
  0002b	6a		 conv.i8 
  0002c	59		 sub 
  0002d	28 00 00 00 00	 call ??_V@$$FYAXPEAX@Z
$LN2@vector@2:
  00033	02		 ldarg.0 	; this$
  00034	1e		 ldc.i.8 8	; i64 0x8
  00035	6a		 conv.i8 
  00036	59		 sub 
  00037	0a		 stloc.0 	; $T77264
  00038	2b 13		 br.s $LN4@vector@2
$LN3@vector@2:
  0003a	02		 ldarg.0 	; this$
  0003b	28 00 00 00 00	 call ??1runtime_error@std@@$$FUEAA@XZ
  00040	03		 ldarg.1 	; __flags$
  00041	17		 ldc.i.1 1	; u32 0x1
  00042	5f		 and 
  00043	2c 06		 brfalse.s $LN1@vector@2
  00045	02		 ldarg.0 	; this$
  00046	28 00 00 00 00	 call ??3@$$FYAXPEAX@Z
$LN1@vector@2:
  0004b	02		 ldarg.0 	; this$
  0004c	0a		 stloc.0 	; $T77264
$LN4@vector@2:
  0004d	06		 ldloc.0 	; $T77264
  0004e	2a		 ret 
 .end ??_Eruntime_error@std@@$$FUEAAPEAXI@Z		; std::runtime_error::`vector deleting destructor'
;	.proc.end.i8
_TEXT	ENDS
PUBLIC	__mep@??_Eruntime_error@std@@$$FUEAAPEAXI@Z
PUBLIC	__m2mep@??_Eruntime_error@std@@$$FUEAAPEAXI@Z
PUBLIC	__t2m@??_Eruntime_error@std@@UEAAPEAXI@Z
;	COMDAT __mep@??_Eruntime_error@std@@$$FUEAAPEAXI@Z
data	SEGMENT
__mep@??_Eruntime_error@std@@$$FUEAAPEAXI@Z TOKEN 0A00007B
data	ENDS
;	COMDAT __m2mep@??_Eruntime_error@std@@$$FUEAAPEAXI@Z
data	SEGMENT
__m2mep@??_Eruntime_error@std@@$$FUEAAPEAXI@Z DD FLAT:??_Eruntime_error@std@@$$FUEAAPEAXI@Z
; Function compile flags: /Odtp
data	ENDS
;	COMDAT nep
_TEXT	SEGMENT
__t2m@??_Eruntime_error@std@@UEAAPEAXI@Z PROC		; COMDAT
  00000	eb 08		 jmp	 SHORT $LN1@
  00002	0f 0b		 ud2
$LN2@:
  00004	ff 25 00 00 00
	00		 jmp	 QWORD PTR __m2mep@??_Eruntime_error@std@@$$FUEAAPEAXI@Z
$LN1@:
  0000a	ff 25 00 00 00
	00		 jmp	 QWORD PTR __mep@??_Eruntime_error@std@@$$FUEAAPEAXI@Z
__t2m@??_Eruntime_error@std@@UEAAPEAXI@Z ENDP
.global	
	.bss
.local	,4
; Function compile flags: /Odtp
	.text
	.comdat	any, ??0runtime_error@std@@$$FQEAA@AEBV01@@Z
.global	??0runtime_error@std@@$$FQEAA@AEBV01@@Z		; std::runtime_error::runtime_error
??0runtime_error@std@@$$FQEAA@AEBV01@@Z:		; std::runtime_error::runtime_error
;	.proc.def	D:J(JJ)

; Function Header:
; max stack depth = 3
; function size = 48 bytes
; local varsig tk = 0x0 
; Exception Information:
; 1 handlers, each consisting of filtered handlers

;	.formal.i8 1,"__that$" SIG: Optional C Binding Modifier(token:0x53A4069).ptr.Optional C Binding Modifier(token:0x53A406C).valueType (token:0x53A406E)
;	.formal.i8 0,"this$" SIG: Optional C Binding Modifier(token:0x53BD4C9).Optional C Binding Modifier(token:0x53BD4CB).ptr.valueType (token:0x53BD4CE)

;	.proc.beg
  0000b	02		 ldarg.0 	; this$
  0000c	03		 ldarg.1 	; __that$
  0000d	28 00 00 00 00	 call ??0exception@std@@$$FQEAA@AEBV01@@Z
  00012	26		 pop 
$LN5@runtime_er@2:
  00014	02		 ldarg.0 	; this$
  00015	7f 00 00 00 00	 ldsflda ??_7runtime_error@std@@6B@
  0001a	55		 stind.i8 
  0001b	02		 ldarg.0 	; this$
  0001c	1f 18		 ldc.i4.s 24	; i64 0x18
  0001e	6a		 conv.i8 
  0001f	58		 add 
  00020	03		 ldarg.1 	; __that$
  00021	1f 18		 ldc.i4.s 24	; i64 0x18
  00023	6a		 conv.i8 
  00024	58		 add 
  00025	28 00 00 00 00	 call ??0?$basic_string@DU?$char_traits@D@std@@V?$allocator@D@2@@std@@$$FQEAA@AEBV01@@Z
  0002a	26		 pop 
  0002b	de 0d		 leave.s $LN6@runtime_er@2
$LN7@runtime_er@2:
  0002d	fe 06 00 00 00
	00		 ldftn ??1exception@std@@$$FUEAA@XZ
  00033	02		 ldarg.0 	; this$
  00034	28 00 00 00 00	 call ?___CxxCallUnwindDtor@@$$J0YMXP6MXPEAX@Z0@Z
  00039	dc		 endfinally 
$LN6@runtime_er@2:
  0003a	02		 ldarg.0 	; this$
  0003b	2a		 ret 
 .end ??0runtime_error@std@@$$FQEAA@AEBV01@@Z		; std::runtime_error::runtime_error
;	.proc.end.i8
_TEXT	ENDS
PUBLIC	__mep@??0runtime_error@std@@$$FQEAA@AEBV01@@Z
PUBLIC	__m2mep@??0runtime_error@std@@$$FQEAA@AEBV01@@Z
PUBLIC	__t2m@??0runtime_error@std@@QEAA@AEBV01@@Z
;	COMDAT __mep@??0runtime_error@std@@$$FQEAA@AEBV01@@Z
data	SEGMENT
__mep@??0runtime_error@std@@$$FQEAA@AEBV01@@Z TOKEN 0A000094
data	ENDS
;	COMDAT __m2mep@??0runtime_error@std@@$$FQEAA@AEBV01@@Z
data	SEGMENT
__m2mep@??0runtime_error@std@@$$FQEAA@AEBV01@@Z DD FLAT:??0runtime_error@std@@$$FQEAA@AEBV01@@Z
; Function compile flags: /Odtp
data	ENDS
;	COMDAT nep
_TEXT	SEGMENT
__t2m@??0runtime_error@std@@QEAA@AEBV01@@Z PROC		; COMDAT
  00000	eb 08		 jmp	 SHORT $LN1@
  00002	0f 0b		 ud2
  00004	ff 25 00 00 00
	00		 jmp	 QWORD PTR __m2mep@??0runtime_error@std@@$$FQEAA@AEBV01@@Z
$LN1@:
  0000a	ff 25 00 00 00
	00		 jmp	 QWORD PTR __mep@??0runtime_error@std@@$$FQEAA@AEBV01@@Z
__t2m@??0runtime_error@std@@QEAA@AEBV01@@Z ENDP
.global	
	.bss
.local	,4
; Function compile flags: /Odtp
	.text
	.comdat	any, ??0logic_error@std@@$$FQEAA@AEBV01@@Z
.global	??0logic_error@std@@$$FQEAA@AEBV01@@Z		; std::logic_error::logic_error
??0logic_error@std@@$$FQEAA@AEBV01@@Z:			; std::logic_error::logic_error
;	.proc.def	D:J(JJ)

; Function Header:
; max stack depth = 3
; function size = 48 bytes
; local varsig tk = 0x0 
; Exception Information:
; 1 handlers, each consisting of filtered handlers

;	.formal.i8 1,"__that$" SIG: Optional C Binding Modifier(token:0x5399FAD).ptr.Optional C Binding Modifier(token:0x5399FB0).valueType (token:0x5399FB2)
;	.formal.i8 0,"this$" SIG: Optional C Binding Modifier(token:0x53987B1).Optional C Binding Modifier(token:0x53987B3).ptr.valueType (token:0x53987B6)

;	.proc.beg
  0000b	02		 ldarg.0 	; this$
  0000c	03		 ldarg.1 	; __that$
  0000d	28 00 00 00 00	 call ??0exception@std@@$$FQEAA@AEBV01@@Z
  00012	26		 pop 
$LN5@logic_erro@2:
  00014	02		 ldarg.0 	; this$
  00015	7f 00 00 00 00	 ldsflda ??_7logic_error@std@@6B@
  0001a	55		 stind.i8 
  0001b	02		 ldarg.0 	; this$
  0001c	1f 18		 ldc.i4.s 24	; i64 0x18
  0001e	6a		 conv.i8 
  0001f	58		 add 
  00020	03		 ldarg.1 	; __that$
  00021	1f 18		 ldc.i4.s 24	; i64 0x18
  00023	6a		 conv.i8 
  00024	58		 add 
  00025	28 00 00 00 00	 call ??0?$basic_string@DU?$char_traits@D@std@@V?$allocator@D@2@@std@@$$FQEAA@AEBV01@@Z
  0002a	26		 pop 
  0002b	de 0d		 leave.s $LN6@logic_erro@2
$LN7@logic_erro@2:
  0002d	fe 06 00 00 00
	00		 ldftn ??1exception@std@@$$FUEAA@XZ
  00033	02		 ldarg.0 	; this$
  00034	28 00 00 00 00	 call ?___CxxCallUnwindDtor@@$$J0YMXP6MXPEAX@Z0@Z
  00039	dc		 endfinally 
$LN6@logic_erro@2:
  0003a	02		 ldarg.0 	; this$
  0003b	2a		 ret 
 .end ??0logic_error@std@@$$FQEAA@AEBV01@@Z		; std::logic_error::logic_error
;	.proc.end.i8
_TEXT	ENDS
PUBLIC	__mep@??0logic_error@std@@$$FQEAA@AEBV01@@Z
PUBLIC	__m2mep@??0logic_error@std@@$$FQEAA@AEBV01@@Z
PUBLIC	__t2m@??0logic_error@std@@QEAA@AEBV01@@Z
;	COMDAT __mep@??0logic_error@std@@$$FQEAA@AEBV01@@Z
data	SEGMENT
__mep@??0logic_error@std@@$$FQEAA@AEBV01@@Z TOKEN 0A0000CA
data	ENDS
;	COMDAT __m2mep@??0logic_error@std@@$$FQEAA@AEBV01@@Z
data	SEGMENT
__m2mep@??0logic_error@std@@$$FQEAA@AEBV01@@Z DD FLAT:??0logic_error@std@@$$FQEAA@AEBV01@@Z
; Function compile flags: /Odtp
data	ENDS
;	COMDAT nep
_TEXT	SEGMENT
__t2m@??0logic_error@std@@QEAA@AEBV01@@Z PROC		; COMDAT
  00000	eb 08		 jmp	 SHORT $LN1@
  00002	0f 0b		 ud2
  00004	ff 25 00 00 00
	00		 jmp	 QWORD PTR __m2mep@??0logic_error@std@@$$FQEAA@AEBV01@@Z
$LN1@:
  0000a	ff 25 00 00 00
	00		 jmp	 QWORD PTR __mep@??0logic_error@std@@$$FQEAA@AEBV01@@Z
__t2m@??0logic_error@std@@QEAA@AEBV01@@Z ENDP
.global	??_7failure@ios_base@std@@6B@			; std::ios_base::failure::`vftable'
.global	
.global	
.global	??_R4failure@ios_base@std@@6B@			; std::ios_base::failure::`RTTI Complete Object Locator'
.global	??_R0?AVfailure@ios_base@std@@@8		; std::ios_base::failure `RTTI Type Descriptor'
.global	??_R3failure@ios_base@std@@8			; std::ios_base::failure::`RTTI Class Hierarchy Descriptor'
.global	??_R2failure@ios_base@std@@8			; std::ios_base::failure::`RTTI Base Class Array'
.global	??_R1A@?0A@EA@failure@ios_base@std@@8		; std::ios_base::failure::`RTTI Base Class Descriptor at (0,-1,0,64)'
	.bss
.local	,4
.local	,4
	.rdataseg	.rdata$r
	.comdat	any, ??_R1A@?0A@EA@failure@ios_base@std@@8

??_R1A@?0A@EA@failure@ios_base@std@@8:			; std::ios_base::failure::`RTTI Base Class Descriptor at (0,-1,0,64)' DD imagerel ??_R0?AVfailure@ios_base@std@@@8
	.word	0x2
	.word	0x0
	.word	0xffffffff
	.word	0x0
	.word	0x40 DD imagerel ??_R3failure@ios_base@std@@8
	.rdataseg	.rdata$r
	.comdat	any, ??_R2failure@ios_base@std@@8

??_R2failure@ios_base@std@@8:				; std::ios_base::failure::`RTTI Base Class Array' DD imagerel ??_R1A@?0A@EA@failure@ios_base@std@@8 DD imagerel ??_R1A@?0A@EA@runtime_error@std@@8 DD imagerel ??_R1A@?0A@EA@exception@std@@8
	.space	3
	.rdataseg	.rdata$r
	.comdat	any, ??_R3failure@ios_base@std@@8

??_R3failure@ios_base@std@@8:				; std::ios_base::failure::`RTTI Class Hierarchy Descriptor'
	.word	0x0
	.word	0x0
	.word	0x3 DD imagerel ??_R2failure@ios_base@std@@8
	.data
	.comdat	any, ??_R0?AVfailure@ios_base@std@@@8

??_R0?AVfailure@ios_base@std@@@8:			; std::ios_base::failure `RTTI Type Descriptor'
	DQ	??_7type_info@@6B@
	.double	0x0000000000000000
	.ascii	".?AVfailure@ios_base@std@@\000"
	.rdataseg	.rdata$r
	.comdat	any, ??_R4failure@ios_base@std@@6B@

??_R4failure@ios_base@std@@6B@:				; std::ios_base::failure::`RTTI Complete Object Locator'
	.word	0x1
	.word	0x0
	.word	0x0 DD imagerel ??_R0?AVfailure@ios_base@std@@@8 DD imagerel ??_R3failure@ios_base@std@@8 DD imagerel ??_R4failure@ios_base@std@@6B@
	.data
	.comdat	largest, ??_7failure@ios_base@std@@6B@

??_7failure@ios_base@std@@6B@:				; std::ios_base::failure::`vftable'
	DQ	??_R4failure@ios_base@std@@6B@
	DQ	??_Efailure@ios_base@std@@UEAAPEAXI@Z
	DQ	?what@runtime_error@std@@UEBAPEBDXZ
; Function compile flags: /Odtp
	.text
	.comdat	any, ??0failure@ios_base@std@@$$FQEAA@AEBV012@@Z
.global	??0failure@ios_base@std@@$$FQEAA@AEBV012@@Z	; std::ios_base::failure::failure
??0failure@ios_base@std@@$$FQEAA@AEBV012@@Z:		; std::ios_base::failure::failure
;	.proc.def	D:J(JJ)

; Function Header:
; max stack depth = 2
; function size = 32 bytes
; local varsig tk = 0x0 
; Exception Information:
; 1 handlers, each consisting of filtered handlers

;	.formal.i8 1,"__that$" SIG: Optional C Binding Modifier(token:0x539DB31).ptr.Optional C Binding Modifier(token:0x539DB34).valueType (token:0x539DB36)
;	.formal.i8 0,"this$" SIG: Optional C Binding Modifier(token:0x5390F75).Optional C Binding Modifier(token:0x5390F77).ptr.valueType (token:0x5390F7A)

;	.proc.beg
  0000b	02		 ldarg.0 	; this$
  0000c	03		 ldarg.1 	; __that$
  0000d	28 00 00 00 00	 call ??0runtime_error@std@@$$FQEAA@AEBV01@@Z
  00012	26		 pop 
$LN4@failure:
  00014	02		 ldarg.0 	; this$
  00015	7f 00 00 00 00	 ldsflda ??_7failure@ios_base@std@@6B@
  0001a	55		 stind.i8 
  0001b	de 0d		 leave.s $LN5@failure
$LN6@failure:
  0001d	fe 06 00 00 00
	00		 ldftn ??1runtime_error@std@@$$FUEAA@XZ
  00023	02		 ldarg.0 	; this$
  00024	28 00 00 00 00	 call ?___CxxCallUnwindDtor@@$$J0YMXP6MXPEAX@Z0@Z
  00029	dc		 endfinally 
$LN5@failure:
  0002a	02		 ldarg.0 	; this$
  0002b	2a		 ret 
 .end ??0failure@ios_base@std@@$$FQEAA@AEBV012@@Z	; std::ios_base::failure::failure
;	.proc.end.i8
	.bss
.local	$T77325,0
; Function compile flags: /Odtp
	.text
	.comdat	any, ??_Efailure@ios_base@std@@$$FUEAAPEAXI@Z
.global	??_Efailure@ios_base@std@@$$FUEAAPEAXI@Z	; std::ios_base::failure::`vector deleting destructor'
??_Efailure@ios_base@std@@$$FUEAAPEAXI@Z:		; std::ios_base::failure::`vector deleting destructor'
;	.proc.def	D:J(JI)

; Function Header:
; max stack depth = 4
; function size = 67 bytes
; local varsig tk = 0x11000047 
; Exception Information:
; 0 handlers, each consisting of filtered handlers

;	.formal.i8 0,"this$" SIG: Optional C Binding Modifier(token:0x5390F75).Optional C Binding Modifier(token:0x5390F77).ptr.valueType (token:0x5390F7A)
;	.formal.u4 1,"__flags$" SIG: u4
;	.local.i8 0,"$T77324" SIG: ptr.void

;	.proc.beg
  0000b	03		 ldarg.1 	; __flags$
  0000c	18		 ldc.i.2 2	; u32 0x2
  0000d	5f		 and 
  0000e	2c 2a		 brfalse.s $LN3@vector@3
  00010	02		 ldarg.0 	; this$
  00011	1f 48		 ldc.i4.s 72	; u64 0x48
  00013	6a		 conv.i8 
  00014	02		 ldarg.0 	; this$
  00015	1e		 ldc.i.8 8	; i64 0x8
  00016	6a		 conv.i8 
  00017	59		 sub 
  00018	4a		 ldind.i4 
  00019	fe 06 00 00 00
	00		 ldftn ??1failure@ios_base@std@@$$FUEAA@XZ
  0001f	28 00 00 00 00	 call ??_M@$$FYMXPEAX_KHP6MX0@Z@Z
  00024	03		 ldarg.1 	; __flags$
  00025	17		 ldc.i.1 1	; u32 0x1
  00026	5f		 and 
  00027	2c 0a		 brfalse.s $LN2@vector@3
  00029	02		 ldarg.0 	; this$
  0002a	1e		 ldc.i.8 8	; i64 0x8
  0002b	6a		 conv.i8 
  0002c	59		 sub 
  0002d	28 00 00 00 00	 call ??_V@$$FYAXPEAX@Z
$LN2@vector@3:
  00033	02		 ldarg.0 	; this$
  00034	1e		 ldc.i.8 8	; i64 0x8
  00035	6a		 conv.i8 
  00036	59		 sub 
  00037	0a		 stloc.0 	; $T77324
  00038	2b 13		 br.s $LN4@vector@3
$LN3@vector@3:
  0003a	02		 ldarg.0 	; this$
  0003b	28 00 00 00 00	 call ??1failure@ios_base@std@@$$FUEAA@XZ
  00040	03		 ldarg.1 	; __flags$
  00041	17		 ldc.i.1 1	; u32 0x1
  00042	5f		 and 
  00043	2c 06		 brfalse.s $LN1@vector@3
  00045	02		 ldarg.0 	; this$
  00046	28 00 00 00 00	 call ??3@$$FYAXPEAX@Z
$LN1@vector@3:
  0004b	02		 ldarg.0 	; this$
  0004c	0a		 stloc.0 	; $T77324
$LN4@vector@3:
  0004d	06		 ldloc.0 	; $T77324
  0004e	2a		 ret 
 .end ??_Efailure@ios_base@std@@$$FUEAAPEAXI@Z		; std::ios_base::failure::`vector deleting destructor'
;	.proc.end.i8
; Function compile flags: /Odtp
	.text
	.comdat	any, ??1failure@ios_base@std@@$$FUEAA@XZ
.global	??1failure@ios_base@std@@$$FUEAA@XZ		; std::ios_base::failure::~failure
??1failure@ios_base@std@@$$FUEAA@XZ:			; std::ios_base::failure::~failure
;	.proc.def	D:V(J)

; Function Header:
; max stack depth = 2
; function size = 14 bytes
; local varsig tk = 0x0 
; Exception Information:
; 0 handlers, each consisting of filtered handlers

;	.formal.i8 0,"this$" SIG: Optional C Binding Modifier(token:0x5390F75).Optional C Binding Modifier(token:0x5390F77).ptr.valueType (token:0x5390F7A)

;	.proc.beg
; File c:\program files (x86)\microsoft visual studio 9.0\vc\include\xiosbase
; Line 224
  0000b	02		 ldarg.0 	; this$
  0000c	7f 00 00 00 00	 ldsflda ??_7failure@ios_base@std@@6B@
  00011	55		 stind.i8 
; Line 225
  00012	02		 ldarg.0 	; this$
  00013	28 00 00 00 00	 call ??1runtime_error@std@@$$FUEAA@XZ
  00018	2a		 ret 
 .end ??1failure@ios_base@std@@$$FUEAA@XZ		; std::ios_base::failure::~failure
;	.proc.end.void
_TEXT	ENDS
PUBLIC	__mep@??1failure@ios_base@std@@$$FUEAA@XZ
PUBLIC	__m2mep@??1failure@ios_base@std@@$$FUEAA@XZ
PUBLIC	__t2m@??1failure@ios_base@std@@UEAA@XZ
;	COMDAT __mep@??1failure@ios_base@std@@$$FUEAA@XZ
data	SEGMENT
__mep@??1failure@ios_base@std@@$$FUEAA@XZ TOKEN 0A00010C
data	ENDS
;	COMDAT __m2mep@??1failure@ios_base@std@@$$FUEAA@XZ
data	SEGMENT
__m2mep@??1failure@ios_base@std@@$$FUEAA@XZ DD FLAT:??1failure@ios_base@std@@$$FUEAA@XZ
; Function compile flags: /Odtp
data	ENDS
;	COMDAT nep
_TEXT	SEGMENT
__t2m@??1failure@ios_base@std@@UEAA@XZ PROC		; COMDAT
  00000	eb 08		 jmp	 SHORT $LN1@
  00002	0f 0b		 ud2
  00004	ff 25 00 00 00
	00		 jmp	 QWORD PTR __m2mep@??1failure@ios_base@std@@$$FUEAA@XZ
$LN1@:
  0000a	ff 25 00 00 00
	00		 jmp	 QWORD PTR __mep@??1failure@ios_base@std@@$$FUEAA@XZ
__t2m@??1failure@ios_base@std@@UEAA@XZ ENDP
_TEXT	ENDS
PUBLIC	__mep@??_Efailure@ios_base@std@@$$FUEAAPEAXI@Z
PUBLIC	__m2mep@??_Efailure@ios_base@std@@$$FUEAAPEAXI@Z
PUBLIC	__t2m@??_Efailure@ios_base@std@@UEAAPEAXI@Z
;	COMDAT __mep@??_Efailure@ios_base@std@@$$FUEAAPEAXI@Z
data	SEGMENT
__mep@??_Efailure@ios_base@std@@$$FUEAAPEAXI@Z TOKEN 0A000129
data	ENDS
;	COMDAT __m2mep@??_Efailure@ios_base@std@@$$FUEAAPEAXI@Z
data	SEGMENT
__m2mep@??_Efailure@ios_base@std@@$$FUEAAPEAXI@Z DD FLAT:??_Efailure@ios_base@std@@$$FUEAAPEAXI@Z
; Function compile flags: /Odtp
data	ENDS
;	COMDAT nep
_TEXT	SEGMENT
__t2m@??_Efailure@ios_base@std@@UEAAPEAXI@Z PROC	; COMDAT
  00000	eb 08		 jmp	 SHORT $LN1@
  00002	0f 0b		 ud2
$LN2@:
  00004	ff 25 00 00 00
	00		 jmp	 QWORD PTR __m2mep@??_Efailure@ios_base@std@@$$FUEAAPEAXI@Z
$LN1@:
  0000a	ff 25 00 00 00
	00		 jmp	 QWORD PTR __mep@??_Efailure@ios_base@std@@$$FUEAAPEAXI@Z
__t2m@??_Efailure@ios_base@std@@UEAAPEAXI@Z ENDP
_TEXT	ENDS
PUBLIC	__mep@??0failure@ios_base@std@@$$FQEAA@AEBV012@@Z
PUBLIC	__m2mep@??0failure@ios_base@std@@$$FQEAA@AEBV012@@Z
PUBLIC	__t2m@??0failure@ios_base@std@@QEAA@AEBV012@@Z
;	COMDAT __mep@??0failure@ios_base@std@@$$FQEAA@AEBV012@@Z
data	SEGMENT
__mep@??0failure@ios_base@std@@$$FQEAA@AEBV012@@Z TOKEN 0A00012A
data	ENDS
;	COMDAT __m2mep@??0failure@ios_base@std@@$$FQEAA@AEBV012@@Z
data	SEGMENT
__m2mep@??0failure@ios_base@std@@$$FQEAA@AEBV012@@Z DD FLAT:??0failure@ios_base@std@@$$FQEAA@AEBV012@@Z
; Function compile flags: /Odtp
data	ENDS
;	COMDAT nep
_TEXT	SEGMENT
__t2m@??0failure@ios_base@std@@QEAA@AEBV012@@Z PROC	; COMDAT
  00000	eb 08		 jmp	 SHORT $LN1@
  00002	0f 0b		 ud2
  00004	ff 25 00 00 00
	00		 jmp	 QWORD PTR __m2mep@??0failure@ios_base@std@@$$FQEAA@AEBV012@@Z
$LN1@:
  0000a	ff 25 00 00 00
	00		 jmp	 QWORD PTR __mep@??0failure@ios_base@std@@$$FQEAA@AEBV012@@Z
__t2m@??0failure@ios_base@std@@QEAA@AEBV012@@Z ENDP
.global	
.global	
	.bss
.local	$T77355,0
.local	,4
.local	,4
; Function compile flags: /Odtp
	.text
.global	?InitInstance@@$$FYAHPEAUHINSTANCE__@@H@Z	; InitInstance
?InitInstance@@$$FYAHPEAUHINSTANCE__@@H@Z:		; InitInstance
;	.proc.def	D:I(JI)

; Function Header:
; max stack depth = 12
; function size = 73 bytes
; local varsig tk = 0x11000050 
; Exception Information:
; 0 handlers, each consisting of filtered handlers

;	.formal.i4 1,"nCmdShow$" SIG: i4
;	.formal.i8 0,"hInstance$" SIG: ptr.valueType (token:0x53AA842)
;	.local.i4 1,"$T77352" SIG: i4
;	.local.i8 0,"hWnd$" SIG: ptr.valueType (token:0x53BDADA)

;	.proc.beg
; File d:\mystuff\ulslogview\ulslogview\ulslogview.cpp
; Line 128
  0000b	02		 ldarg.0 	; hInstance$
  0000c	80 00 00 00 00	 stsfld ?hInst@@3PEAUHINSTANCE__@@EA
; Line 133
  00011	16		 ldc.i.0 0	; u32 0x0
  00012	7f 00 00 00 00	 ldsflda ?szWindowClass@@3PA_WA
  00017	7f 00 00 00 00	 ldsflda ?szTitle@@3PA_WA
  0001c	20 00 00 cf 00	 ldc.i4 13565952 ; u32 0xcf0000
  00021	20 00 00 00 80	 ldc.i4 -2147483648 ; i32 0x80000000
  00026	16		 ldc.i.0 0	; i32 0x0
  00027	20 00 00 00 80	 ldc.i4 -2147483648 ; i32 0x80000000
  0002c	16		 ldc.i.0 0	; i32 0x0
  0002d	16		 ldc.i.0 0	; i64 0x0
  0002e	6a		 conv.i8 
  0002f	16		 ldc.i.0 0	; i64 0x0
  00030	6a		 conv.i8 
  00031	02		 ldarg.0 	; hInstance$
  00032	16		 ldc.i.0 0	; i64 0x0
  00033	6a		 conv.i8 
  00034	28 00 00 00 00	 call ?CreateWindowExW@@$$J0YAPEAUHWND__@@KPEB_W0KHHHHPEAU1@PEAUHMENU__@@PEAUHINSTANCE__@@PEAX@Z
  00039	0a		 stloc.0 	; hWnd$
; Line 135
  0003a	06		 ldloc.0 	; hWnd$
  0003b	2d 05		 brtrue.s $LN1@InitInstan
; Line 137
  0003d	16		 ldc.i.0 0	; i32 0x0
  0003e	0b		 stloc.1 	; $T77352
  0003f	2b 12		 br.s $LN2@InitInstan
$LN1@InitInstan:
; Line 140
  00042	06		 ldloc.0 	; hWnd$
  00043	03		 ldarg.1 	; nCmdShow$
  00044	28 00 00 00 00	 call ?ShowWindow@@$$J0YAHPEAUHWND__@@H@Z
  00049	26		 pop 
; Line 141
  0004a	06		 ldloc.0 	; hWnd$
  0004b	28 00 00 00 00	 call ?UpdateWindow@@$$J0YAHPEAUHWND__@@@Z
  00050	26		 pop 
; Line 143
  00051	17		 ldc.i.1 1	; i32 0x1
  00052	0b		 stloc.1 	; $T77352
$LN2@InitInstan:
; Line 144
  00053	07		 ldloc.1 	; $T77352
  00054	2a		 ret 
 .end ?InitInstance@@$$FYAHPEAUHINSTANCE__@@H@Z		; InitInstance
;	.proc.end.i4
_TEXT	ENDS
PUBLIC	__mep@?InitInstance@@$$FYAHPEAUHINSTANCE__@@H@Z
PUBLIC	__m2mep@?InitInstance@@$$FYAHPEAUHINSTANCE__@@H@Z
PUBLIC	?InitInstance@@YAHPEAUHINSTANCE__@@H@Z		; InitInstance
;	COMDAT __mep@?InitInstance@@$$FYAHPEAUHINSTANCE__@@H@Z
data	SEGMENT
__mep@?InitInstance@@$$FYAHPEAUHINSTANCE__@@H@Z TOKEN 0A000141
data	ENDS
;	COMDAT __m2mep@?InitInstance@@$$FYAHPEAUHINSTANCE__@@H@Z
data	SEGMENT
__m2mep@?InitInstance@@$$FYAHPEAUHINSTANCE__@@H@Z DD FLAT:?InitInstance@@$$FYAHPEAUHINSTANCE__@@H@Z
; Function compile flags: /Odtp
data	ENDS
;	COMDAT nep
_TEXT	SEGMENT
?InitInstance@@YAHPEAUHINSTANCE__@@H@Z PROC		; InitInstance, COMDAT
  00000	eb 08		 jmp	 SHORT $LN1@InitInstan@2
  00002	0f 0b		 ud2
$LN2@InitInstan@2:
  00004	ff 25 00 00 00
	00		 jmp	 QWORD PTR __m2mep@?InitInstance@@$$FYAHPEAUHINSTANCE__@@H@Z
$LN1@InitInstan@2:
  0000a	ff 25 00 00 00
	00		 jmp	 QWORD PTR __mep@?InitInstance@@$$FYAHPEAUHINSTANCE__@@H@Z
?InitInstance@@YAHPEAUHINSTANCE__@@H@Z ENDP		; InitInstance
.global	
.global	
	.bss
.local	$T77368,0
.local	,4
.local	,4
; Function compile flags: /Odtp
	.text
.global	?About@@$$FYA_JPEAUHWND__@@I_K_J@Z		; About
?About@@$$FYA_JPEAUHWND__@@I_K_J@Z:			; About
;	.proc.def	D:J(JIJJ)

; Function Header:
; max stack depth = 3
; function size = 79 bytes
; local varsig tk = 0x11000053 
; Exception Information:
; 0 handlers, each consisting of filtered handlers

;	.formal.i8 0,"hDlg$" SIG: ptr.valueType (token:0x53BDADA)
;	.formal.u8 2,"wParam$" SIG: u8
;	.formal.u4 1,"message$" SIG: u4
;	.local.i8 0,"$T77364" SIG: i8
;	.local.u4 1,"$T77365" SIG: u4

;	.proc.beg
; Line 288
  0000b	03		 ldarg.1 	; message$
  0000c	0b		 stloc.1 	; $T77365
  0000d	07		 ldloc.1 	; $T77365
  0000e	20 10 01 00 00	 ldc.i4 272	; u32 0x110
  00013	2e 6b		 beq.s $LN4@About
  00015	07		 ldloc.1 	; $T77365
  00016	20 11 01 00 00	 ldc.i4 273	; u32 0x111
  0001b	2e 68		 beq.s $LN3@About
  0001d	2b 97		 br.s $LN5@About
$LN4@About:
; Line 291
  00080	17		 ldc.i.1 1	; i64 0x1
  00081	6a		 conv.i8 
  00082	0a		 stloc.0 	; $T77364
  00083	2b 34		 br.s $LN7@About
$LN3@About:
; Line 294
  00085	04		 ldarg.2 	; wParam$
  00086	20 ff ff 00 00	 ldc.i4 65535	; u64 0xffff
  0008b	6a		 conv.i8 
  0008c	5f		 and 
  0008d	6d		 conv.u4 
  0008e	d1		 conv.u2 
  0008f	17		 ldc.i.1 1	; i32 0x1
  00090	2e 0d		 beq.s $LN1@About
  00092	04		 ldarg.2 	; wParam$
  00093	20 ff ff 00 00	 ldc.i4 65535	; u64 0xffff
  00098	6a		 conv.i8 
  00099	5f		 and 
  0009a	6d		 conv.u4 
  0009b	d1		 conv.u2 
  0009c	18		 ldc.i.2 2	; i32 0x2
  0009d	33 17		 bne.un.s $LN5@About
$LN1@About:
; Line 296
  0009f	02		 ldarg.0 	; hDlg$
  000a0	04		 ldarg.2 	; wParam$
  000a1	20 ff ff 00 00	 ldc.i4 65535	; u64 0xffff
  000a6	6a		 conv.i8 
  000a7	5f		 and 
  000a8	6d		 conv.u4 
  000a9	d1		 conv.u2 
  000aa	6e		 conv.u8 
  000ab	28 00 00 00 00	 call ?EndDialog@@$$J0YAHPEAUHWND__@@_J@Z
  000b0	26		 pop 
; Line 297
  000b1	17		 ldc.i.1 1	; i64 0x1
  000b2	6a		 conv.i8 
  000b3	0a		 stloc.0 	; $T77364
  000b4	2b 03		 br.s $LN7@About
$LN5@About:
; Line 301
  000b6	16		 ldc.i.0 0	; i64 0x0
  000b7	6a		 conv.i8 
  000b8	0a		 stloc.0 	; $T77364
$LN7@About:
; Line 302
  000b9	06		 ldloc.0 	; $T77364
  000ba	2a		 ret 
 .end ?About@@$$FYA_JPEAUHWND__@@I_K_J@Z		; About
;	.proc.end.i8
_TEXT	ENDS
PUBLIC	__mep@?About@@$$FYA_JPEAUHWND__@@I_K_J@Z
PUBLIC	__m2mep@?About@@$$FYA_JPEAUHWND__@@I_K_J@Z
PUBLIC	?About@@YA_JPEAUHWND__@@I_K_J@Z			; About
;	COMDAT __mep@?About@@$$FYA_JPEAUHWND__@@I_K_J@Z
data	SEGMENT
__mep@?About@@$$FYA_JPEAUHWND__@@I_K_J@Z TOKEN 0A000143
data	ENDS
;	COMDAT __m2mep@?About@@$$FYA_JPEAUHWND__@@I_K_J@Z
data	SEGMENT
__m2mep@?About@@$$FYA_JPEAUHWND__@@I_K_J@Z DD FLAT:?About@@$$FYA_JPEAUHWND__@@I_K_J@Z
; Function compile flags: /Odtp
data	ENDS
;	COMDAT nep
_TEXT	SEGMENT
?About@@YA_JPEAUHWND__@@I_K_J@Z PROC			; About, COMDAT
  00000	eb 08		 jmp	 SHORT $LN1@About@2
  00002	0f 0b		 ud2
$LN2@About@2:
  00004	ff 25 00 00 00
	00		 jmp	 QWORD PTR __m2mep@?About@@$$FYA_JPEAUHWND__@@I_K_J@Z
$LN1@About@2:
  0000a	ff 25 00 00 00
	00		 jmp	 QWORD PTR __mep@?About@@$$FYA_JPEAUHWND__@@I_K_J@Z
?About@@YA_JPEAUHWND__@@I_K_J@Z ENDP			; About
.global	
.global	
.global	
	.bss
.local	$T77382,0
.local	,4
.local	,4
.local	,4
; Function compile flags: /Odtp
	.text
.global	?WaitForNewFile@@$$FYAKPEAX@Z			; WaitForNewFile
?WaitForNewFile@@$$FYAKPEAX@Z:				; WaitForNewFile
;	.proc.def	D:I(J)

; Function Header:
; max stack depth = 4
; function size = 78 bytes
; local varsig tk = 0x11000057 
; Exception Information:
; 0 handlers, each consisting of filtered handlers

;	.local.u4 0,"$T77378" SIG: Optional C Binding Modifier(token:0x4B4655).u4
;	.local.mb200 2,"errMsg$" SIG: valueType (token:0x538BB79)
;	.local.u4 1,"waitState$68946" SIG: Optional C Binding Modifier(token:0x53BCAD5).u4

;	.proc.beg
; Line 306
$LN4@WaitForNew:
; Line 308
  000cc	17		 ldc.i.1 1	; i32 0x1
  000cd	2c 47		 brfalse.s $LN3@WaitForNew
; Line 310
  000cf	7e 00 00 00 00	 ldsfld ?fileChange@@3PEAXEA
  000d4	2c 3e		 brfalse.s $LN2@WaitForNew
; Line 312
  000d6	7e 00 00 00 00	 ldsfld ?fileChange@@3PEAXEA
  000db	15		 ldc.i.-1 -1	; u32 0xffffffff
  000dc	28 00 00 00 00	 call ?WaitForSingleObject@@$$J0YAKPEAXK@Z
  000e1	0b		 stloc.1 	; waitState$68946
; Line 313
  000e2	07		 ldloc.1 	; waitState$68946
  000e3	2d 2f		 brtrue.s $LN2@WaitForNew
; Line 315
  000e5	7e 00 00 00 00	 ldsfld ?hInst@@3PEAUHINSTANCE__@@EA
  000ea	1f 69		 ldc.i4.s 105	; u32 0x69
  000ec	12 02		 ldloca.s 2	; errMsg$
  000ee	1f 64		 ldc.i4.s 100	; i32 0x64
  000f0	28 00 00 00 00	 call ?LoadStringW@@$$J0YAHPEAUHINSTANCE__@@IPEA_WH@Z
  000f5	26		 pop 
; Line 316
  000f6	7e 00 00 00 00	 ldsfld ?listWindow@@3PEAUHWND__@@EA
  000fb	12 02		 ldloca.s 2	; errMsg$
  000fd	7f 00 00 00 00	 ldsflda ?szTitle@@3PA_WA
  00102	16		 ldc.i.0 0	; u32 0x0
  00103	28 00 00 00 00	 call ?MessageBox@@$$J0YAHPEAUHWND__@@PEB_W1I@Z
  00108	26		 pop 
; Line 317
  00109	7e 00 00 00 00	 ldsfld ?fileChange@@3PEAXEA
  0010e	28 00 00 00 00	 call ?FindNextChangeNotification@@$$J0YAHPEAX@Z
  00113	26		 pop 
$LN2@WaitForNew:
; Line 322
  00114	2b b6		 br.s $LN4@WaitForNew
$LN3@WaitForNew:
; Line 323
  00116	16		 ldc.i.0 0	; u32 0x0
  00117	0a		 stloc.0 	; $T77378
; Line 324
  00118	06		 ldloc.0 	; $T77378
  00119	2a		 ret 
 .end ?WaitForNewFile@@$$FYAKPEAX@Z			; WaitForNewFile
;	.proc.end.u4
_TEXT	ENDS
PUBLIC	__mep@?WaitForNewFile@@$$FYAKPEAX@Z
PUBLIC	__m2mep@?WaitForNewFile@@$$FYAKPEAX@Z
PUBLIC	?WaitForNewFile@@YAKPEAX@Z			; WaitForNewFile
;	COMDAT __mep@?WaitForNewFile@@$$FYAKPEAX@Z
data	SEGMENT
__mep@?WaitForNewFile@@$$FYAKPEAX@Z TOKEN 0A000144
data	ENDS
;	COMDAT __m2mep@?WaitForNewFile@@$$FYAKPEAX@Z
data	SEGMENT
__m2mep@?WaitForNewFile@@$$FYAKPEAX@Z DD FLAT:?WaitForNewFile@@$$FYAKPEAX@Z
; Function compile flags: /Odtp
data	ENDS
;	COMDAT nep
_TEXT	SEGMENT
?WaitForNewFile@@YAKPEAX@Z PROC				; WaitForNewFile, COMDAT
  00000	eb 08		 jmp	 SHORT $LN1@WaitForNew@2
  00002	0f 0b		 ud2
$LN2@WaitForNew@2:
  00004	ff 25 00 00 00
	00		 jmp	 QWORD PTR __m2mep@?WaitForNewFile@@$$FYAKPEAX@Z
$LN1@WaitForNew@2:
  0000a	ff 25 00 00 00
	00		 jmp	 QWORD PTR __mep@?WaitForNewFile@@$$FYAKPEAX@Z
?WaitForNewFile@@YAKPEAX@Z ENDP				; WaitForNewFile
.global	
	.bss
.local	,4
; Function compile flags: /Odtp
	.text
	.comdat	any, ?<MarshalCopy>@?$allocator@D@std@@$$FSMXPEAV12@0@Z
.global	?<MarshalCopy>@?$allocator@D@std@@$$FSMXPEAV12@0@Z ; std::allocator<char>::<MarshalCopy>
?<MarshalCopy>@?$allocator@D@std@@$$FSMXPEAV12@0@Z:	; std::allocator<char>::<MarshalCopy>
;	.proc.def	D:V(JJ)

; Function Header:
; max stack depth = 2
; function size = 9 bytes
; local varsig tk = 0x0 
; Exception Information:
; 0 handlers, each consisting of filtered handlers

;	.formal.i8 1,"__P1$" SIG: ptr.valueType (token:0x539CCE2)
;	.formal.i8 0,"__P0$" SIG: ptr.valueType (token:0x539CCE2)

;	.proc.beg
  0000b	02		 ldarg.0 	; __P0$
  0000c	03		 ldarg.1 	; __P1$
  0000d	28 00 00 00 00	 call ??0?$allocator@D@std@@$$FQEAA@AEBV01@@Z
  00012	26		 pop 
  00013	2a		 ret 
 .end ?<MarshalCopy>@?$allocator@D@std@@$$FSMXPEAV12@0@Z ; std::allocator<char>::<MarshalCopy>
;	.proc.end.void
_TEXT	ENDS
PUBLIC	__mep@?<MarshalCopy>@?$allocator@D@std@@$$FSMXPEAV12@0@Z
PUBLIC	__m2mep@?<MarshalCopy>@?$allocator@D@std@@$$FSMXPEAV12@0@Z
PUBLIC	__t2m@?<MarshalCopy>@?$allocator@D@std@@SMXPEAV12@0@Z
;	COMDAT __mep@?<MarshalCopy>@?$allocator@D@std@@$$FSMXPEAV12@0@Z
data	SEGMENT
__mep@?<MarshalCopy>@?$allocator@D@std@@$$FSMXPEAV12@0@Z TOKEN 06000087
data	ENDS
;	COMDAT __m2mep@?<MarshalCopy>@?$allocator@D@std@@$$FSMXPEAV12@0@Z
data	SEGMENT
__m2mep@?<MarshalCopy>@?$allocator@D@std@@$$FSMXPEAV12@0@Z DD FLAT:?<MarshalCopy>@?$allocator@D@std@@$$FSMXPEAV12@0@Z
; Function compile flags: /Odtp
data	ENDS
;	COMDAT nep
_TEXT	SEGMENT
__t2m@?<MarshalCopy>@?$allocator@D@std@@SMXPEAV12@0@Z PROC ; COMDAT
  00000	eb 08		 jmp	 SHORT $LN1@
  00002	0f 0b		 ud2
$LN2@:
  00004	ff 25 00 00 00
	00		 jmp	 QWORD PTR __m2mep@?<MarshalCopy>@?$allocator@D@std@@$$FSMXPEAV12@0@Z
$LN1@:
  0000a	ff 25 00 00 00
	00		 jmp	 QWORD PTR __mep@?<MarshalCopy>@?$allocator@D@std@@$$FSMXPEAV12@0@Z
__t2m@?<MarshalCopy>@?$allocator@D@std@@SMXPEAV12@0@Z ENDP
.global	
	.bss
.local	,4
; Function compile flags: /Odtp
	.text
	.comdat	any, ?<MarshalCopy>@?$_DebugHeapAllocator@D@std@@$$FSMXPEAV12@0@Z
.global	?<MarshalCopy>@?$_DebugHeapAllocator@D@std@@$$FSMXPEAV12@0@Z ; std::_DebugHeapAllocator<char>::<MarshalCopy>
?<MarshalCopy>@?$_DebugHeapAllocator@D@std@@$$FSMXPEAV12@0@Z: ; std::_DebugHeapAllocator<char>::<MarshalCopy>
;	.proc.def	D:V(JJ)

; Function Header:
; max stack depth = 2
; function size = 9 bytes
; local varsig tk = 0x0 
; Exception Information:
; 0 handlers, each consisting of filtered handlers

;	.formal.i8 1,"__P1$" SIG: ptr.valueType (token:0x538BAE2)
;	.formal.i8 0,"__P0$" SIG: ptr.valueType (token:0x538BAE2)

;	.proc.beg
  0000b	02		 ldarg.0 	; __P0$
  0000c	03		 ldarg.1 	; __P1$
  0000d	28 00 00 00 00	 call ??0?$_DebugHeapAllocator@D@std@@$$FQEAA@AEBV01@@Z
  00012	26		 pop 
  00013	2a		 ret 
 .end ?<MarshalCopy>@?$_DebugHeapAllocator@D@std@@$$FSMXPEAV12@0@Z ; std::_DebugHeapAllocator<char>::<MarshalCopy>
;	.proc.end.void
_TEXT	ENDS
PUBLIC	__mep@?<MarshalCopy>@?$_DebugHeapAllocator@D@std@@$$FSMXPEAV12@0@Z
PUBLIC	__m2mep@?<MarshalCopy>@?$_DebugHeapAllocator@D@std@@$$FSMXPEAV12@0@Z
PUBLIC	__t2m@?<MarshalCopy>@?$_DebugHeapAllocator@D@std@@SMXPEAV12@0@Z
;	COMDAT __mep@?<MarshalCopy>@?$_DebugHeapAllocator@D@std@@$$FSMXPEAV12@0@Z
data	SEGMENT
__mep@?<MarshalCopy>@?$_DebugHeapAllocator@D@std@@$$FSMXPEAV12@0@Z TOKEN 06000088
data	ENDS
;	COMDAT __m2mep@?<MarshalCopy>@?$_DebugHeapAllocator@D@std@@$$FSMXPEAV12@0@Z
data	SEGMENT
__m2mep@?<MarshalCopy>@?$_DebugHeapAllocator@D@std@@$$FSMXPEAV12@0@Z DD FLAT:?<MarshalCopy>@?$_DebugHeapAllocator@D@std@@$$FSMXPEAV12@0@Z
; Function compile flags: /Odtp
data	ENDS
;	COMDAT nep
_TEXT	SEGMENT
__t2m@?<MarshalCopy>@?$_DebugHeapAllocator@D@std@@SMXPEAV12@0@Z PROC ; COMDAT
  00000	eb 08		 jmp	 SHORT $LN1@
  00002	0f 0b		 ud2
$LN2@:
  00004	ff 25 00 00 00
	00		 jmp	 QWORD PTR __m2mep@?<MarshalCopy>@?$_DebugHeapAllocator@D@std@@$$FSMXPEAV12@0@Z
$LN1@:
  0000a	ff 25 00 00 00
	00		 jmp	 QWORD PTR __mep@?<MarshalCopy>@?$_DebugHeapAllocator@D@std@@$$FSMXPEAV12@0@Z
__t2m@?<MarshalCopy>@?$_DebugHeapAllocator@D@std@@SMXPEAV12@0@Z ENDP
.global	
	.bss
.local	,4
; Function compile flags: /Odtp
	.text
	.comdat	any, ?<MarshalCopy>@?$allocator@_W@std@@$$FSMXPEAV12@0@Z
.global	?<MarshalCopy>@?$allocator@_W@std@@$$FSMXPEAV12@0@Z ; std::allocator<wchar_t>::<MarshalCopy>
?<MarshalCopy>@?$allocator@_W@std@@$$FSMXPEAV12@0@Z:	; std::allocator<wchar_t>::<MarshalCopy>
;	.proc.def	D:V(JJ)

; Function Header:
; max stack depth = 2
; function size = 9 bytes
; local varsig tk = 0x0 
; Exception Information:
; 0 handlers, each consisting of filtered handlers

;	.formal.i8 1,"__P1$" SIG: ptr.valueType (token:0x5389E32)
;	.formal.i8 0,"__P0$" SIG: ptr.valueType (token:0x5389E32)

;	.proc.beg
  0000b	02		 ldarg.0 	; __P0$
  0000c	03		 ldarg.1 	; __P1$
  0000d	28 00 00 00 00	 call ??0?$allocator@_W@std@@$$FQEAA@AEBV01@@Z
  00012	26		 pop 
  00013	2a		 ret 
 .end ?<MarshalCopy>@?$allocator@_W@std@@$$FSMXPEAV12@0@Z ; std::allocator<wchar_t>::<MarshalCopy>
;	.proc.end.void
_TEXT	ENDS
PUBLIC	__mep@?<MarshalCopy>@?$allocator@_W@std@@$$FSMXPEAV12@0@Z
PUBLIC	__m2mep@?<MarshalCopy>@?$allocator@_W@std@@$$FSMXPEAV12@0@Z
PUBLIC	__t2m@?<MarshalCopy>@?$allocator@_W@std@@SMXPEAV12@0@Z
;	COMDAT __mep@?<MarshalCopy>@?$allocator@_W@std@@$$FSMXPEAV12@0@Z
data	SEGMENT
__mep@?<MarshalCopy>@?$allocator@_W@std@@$$FSMXPEAV12@0@Z TOKEN 06000089
data	ENDS
;	COMDAT __m2mep@?<MarshalCopy>@?$allocator@_W@std@@$$FSMXPEAV12@0@Z
data	SEGMENT
__m2mep@?<MarshalCopy>@?$allocator@_W@std@@$$FSMXPEAV12@0@Z DD FLAT:?<MarshalCopy>@?$allocator@_W@std@@$$FSMXPEAV12@0@Z
; Function compile flags: /Odtp
data	ENDS
;	COMDAT nep
_TEXT	SEGMENT
__t2m@?<MarshalCopy>@?$allocator@_W@std@@SMXPEAV12@0@Z PROC ; COMDAT
  00000	eb 08		 jmp	 SHORT $LN1@
  00002	0f 0b		 ud2
$LN2@:
  00004	ff 25 00 00 00
	00		 jmp	 QWORD PTR __m2mep@?<MarshalCopy>@?$allocator@_W@std@@$$FSMXPEAV12@0@Z
$LN1@:
  0000a	ff 25 00 00 00
	00		 jmp	 QWORD PTR __mep@?<MarshalCopy>@?$allocator@_W@std@@$$FSMXPEAV12@0@Z
__t2m@?<MarshalCopy>@?$allocator@_W@std@@SMXPEAV12@0@Z ENDP
.global	??_7bad_alloc@std@@6B@				; std::bad_alloc::`vftable'
.global	
.global	
.global	??_R4bad_alloc@std@@6B@				; std::bad_alloc::`RTTI Complete Object Locator'
.global	??_R0?AVbad_alloc@std@@@8			; std::bad_alloc `RTTI Type Descriptor'
.global	??_R3bad_alloc@std@@8				; std::bad_alloc::`RTTI Class Hierarchy Descriptor'
.global	??_R2bad_alloc@std@@8				; std::bad_alloc::`RTTI Base Class Array'
.global	??_R1A@?0A@EA@bad_alloc@std@@8			; std::bad_alloc::`RTTI Base Class Descriptor at (0,-1,0,64)'
	.bss
.local	,4
.local	,4
	.rdataseg	.rdata$r
	.comdat	any, ??_R1A@?0A@EA@bad_alloc@std@@8

??_R1A@?0A@EA@bad_alloc@std@@8:				; std::bad_alloc::`RTTI Base Class Descriptor at (0,-1,0,64)' DD imagerel ??_R0?AVbad_alloc@std@@@8
	.word	0x1
	.word	0x0
	.word	0xffffffff
	.word	0x0
	.word	0x40 DD imagerel ??_R3bad_alloc@std@@8
	.rdataseg	.rdata$r
	.comdat	any, ??_R2bad_alloc@std@@8

??_R2bad_alloc@std@@8:					; std::bad_alloc::`RTTI Base Class Array' DD imagerel ??_R1A@?0A@EA@bad_alloc@std@@8 DD imagerel ??_R1A@?0A@EA@exception@std@@8
	.space	3
	.rdataseg	.rdata$r
	.comdat	any, ??_R3bad_alloc@std@@8

??_R3bad_alloc@std@@8:					; std::bad_alloc::`RTTI Class Hierarchy Descriptor'
	.word	0x0
	.word	0x0
	.word	0x2 DD imagerel ??_R2bad_alloc@std@@8
	.data
	.comdat	any, ??_R0?AVbad_alloc@std@@@8

??_R0?AVbad_alloc@std@@@8:				; std::bad_alloc `RTTI Type Descriptor'
	DQ	??_7type_info@@6B@
	.double	0x0000000000000000
	.ascii	".?AVbad_alloc@std@@\000"
	.rdataseg	.rdata$r
	.comdat	any, ??_R4bad_alloc@std@@6B@

??_R4bad_alloc@std@@6B@:				; std::bad_alloc::`RTTI Complete Object Locator'
	.word	0x1
	.word	0x0
	.word	0x0 DD imagerel ??_R0?AVbad_alloc@std@@@8 DD imagerel ??_R3bad_alloc@std@@8 DD imagerel ??_R4bad_alloc@std@@6B@
	.data
	.comdat	largest, ??_7bad_alloc@std@@6B@

??_7bad_alloc@std@@6B@:					; std::bad_alloc::`vftable'
	DQ	??_R4bad_alloc@std@@6B@
	DQ	??_Ebad_alloc@std@@UEAAPEAXI@Z
	DQ	?what@exception@std@@UEBAPEBDXZ
; Function compile flags: /Odtp
	.text
	.comdat	any, ??0bad_alloc@std@@$$FQEAA@AEBV01@@Z
.global	??0bad_alloc@std@@$$FQEAA@AEBV01@@Z		; std::bad_alloc::bad_alloc
??0bad_alloc@std@@$$FQEAA@AEBV01@@Z:			; std::bad_alloc::bad_alloc
;	.proc.def	D:J(JJ)

; Function Header:
; max stack depth = 2
; function size = 32 bytes
; local varsig tk = 0x0 
; Exception Information:
; 1 handlers, each consisting of filtered handlers

;	.formal.i8 1,"__that$" SIG: Optional C Binding Modifier(token:0x5394179).ptr.Optional C Binding Modifier(token:0x539417C).valueType (token:0x539417E)
;	.formal.i8 0,"this$" SIG: Optional C Binding Modifier(token:0x53ACBE5).Optional C Binding Modifier(token:0x53ACBE7).ptr.valueType (token:0x53ACBEA)

;	.proc.beg
  0000b	02		 ldarg.0 	; this$
  0000c	03		 ldarg.1 	; __that$
  0000d	28 00 00 00 00	 call ??0exception@std@@$$FQEAA@AEBV01@@Z
  00012	26		 pop 
$LN4@bad_alloc:
  00014	02		 ldarg.0 	; this$
  00015	7f 00 00 00 00	 ldsflda ??_7bad_alloc@std@@6B@
  0001a	55		 stind.i8 
  0001b	de 0d		 leave.s $LN5@bad_alloc
$LN6@bad_alloc:
  0001d	fe 06 00 00 00
	00		 ldftn ??1exception@std@@$$FUEAA@XZ
  00023	02		 ldarg.0 	; this$
  00024	28 00 00 00 00	 call ?___CxxCallUnwindDtor@@$$J0YMXP6MXPEAX@Z0@Z
  00029	dc		 endfinally 
$LN5@bad_alloc:
  0002a	02		 ldarg.0 	; this$
  0002b	2a		 ret 
 .end ??0bad_alloc@std@@$$FQEAA@AEBV01@@Z		; std::bad_alloc::bad_alloc
;	.proc.end.i8
	.bss
.local	$T77438,0
; Function compile flags: /Odtp
	.text
	.comdat	any, ??_Ebad_alloc@std@@$$FUEAAPEAXI@Z
.global	??_Ebad_alloc@std@@$$FUEAAPEAXI@Z		; std::bad_alloc::`vector deleting destructor'
??_Ebad_alloc@std@@$$FUEAAPEAXI@Z:			; std::bad_alloc::`vector deleting destructor'
;	.proc.def	D:J(JI)

; Function Header:
; max stack depth = 4
; function size = 67 bytes
; local varsig tk = 0x11000047 
; Exception Information:
; 0 handlers, each consisting of filtered handlers

;	.formal.i8 0,"this$" SIG: Optional C Binding Modifier(token:0x53ACBE5).Optional C Binding Modifier(token:0x53ACBE7).ptr.valueType (token:0x53ACBEA)
;	.formal.u4 1,"__flags$" SIG: u4
;	.local.i8 0,"$T77437" SIG: ptr.void

;	.proc.beg
  0000b	03		 ldarg.1 	; __flags$
  0000c	18		 ldc.i.2 2	; u32 0x2
  0000d	5f		 and 
  0000e	2c 2a		 brfalse.s $LN3@vector@4
  00010	02		 ldarg.0 	; this$
  00011	1f 18		 ldc.i4.s 24	; u64 0x18
  00013	6a		 conv.i8 
  00014	02		 ldarg.0 	; this$
  00015	1e		 ldc.i.8 8	; i64 0x8
  00016	6a		 conv.i8 
  00017	59		 sub 
  00018	4a		 ldind.i4 
  00019	fe 06 00 00 00
	00		 ldftn ??1bad_alloc@std@@$$FUEAA@XZ
  0001f	28 00 00 00 00	 call ??_M@$$FYMXPEAX_KHP6MX0@Z@Z
  00024	03		 ldarg.1 	; __flags$
  00025	17		 ldc.i.1 1	; u32 0x1
  00026	5f		 and 
  00027	2c 0a		 brfalse.s $LN2@vector@4
  00029	02		 ldarg.0 	; this$
  0002a	1e		 ldc.i.8 8	; i64 0x8
  0002b	6a		 conv.i8 
  0002c	59		 sub 
  0002d	28 00 00 00 00	 call ??3@$$FYAXPEAX@Z
$LN2@vector@4:
  00033	02		 ldarg.0 	; this$
  00034	1e		 ldc.i.8 8	; i64 0x8
  00035	6a		 conv.i8 
  00036	59		 sub 
  00037	0a		 stloc.0 	; $T77437
  00038	2b 13		 br.s $LN4@vector@4
$LN3@vector@4:
  0003a	02		 ldarg.0 	; this$
  0003b	28 00 00 00 00	 call ??1bad_alloc@std@@$$FUEAA@XZ
  00040	03		 ldarg.1 	; __flags$
  00041	17		 ldc.i.1 1	; u32 0x1
  00042	5f		 and 
  00043	2c 06		 brfalse.s $LN1@vector@4
  00045	02		 ldarg.0 	; this$
  00046	28 00 00 00 00	 call ??3@$$FYAXPEAX@Z
$LN1@vector@4:
  0004b	02		 ldarg.0 	; this$
  0004c	0a		 stloc.0 	; $T77437
$LN4@vector@4:
  0004d	06		 ldloc.0 	; $T77437
  0004e	2a		 ret 
 .end ??_Ebad_alloc@std@@$$FUEAAPEAXI@Z			; std::bad_alloc::`vector deleting destructor'
;	.proc.end.i8
; Function compile flags: /Odtp
	.text
	.comdat	any, ??1bad_alloc@std@@$$FUEAA@XZ
.global	??1bad_alloc@std@@$$FUEAA@XZ			; std::bad_alloc::~bad_alloc
??1bad_alloc@std@@$$FUEAA@XZ:				; std::bad_alloc::~bad_alloc
;	.proc.def	D:V(J)

; Function Header:
; max stack depth = 2
; function size = 14 bytes
; local varsig tk = 0x0 
; Exception Information:
; 0 handlers, each consisting of filtered handlers

;	.formal.i8 0,"this$" SIG: Optional C Binding Modifier(token:0x53ACBE5).Optional C Binding Modifier(token:0x53ACBE7).ptr.valueType (token:0x53ACBEA)

;	.proc.beg
; File c:\program files (x86)\microsoft visual studio 9.0\vc\include\exception
; Line 380
  0000b	02		 ldarg.0 	; this$
  0000c	7f 00 00 00 00	 ldsflda ??_7bad_alloc@std@@6B@
  00011	55		 stind.i8 
; Line 381
  00012	02		 ldarg.0 	; this$
  00013	28 00 00 00 00	 call ??1exception@std@@$$FUEAA@XZ
  00018	2a		 ret 
 .end ??1bad_alloc@std@@$$FUEAA@XZ			; std::bad_alloc::~bad_alloc
;	.proc.end.void
_TEXT	ENDS
PUBLIC	__mep@??1bad_alloc@std@@$$FUEAA@XZ
PUBLIC	__m2mep@??1bad_alloc@std@@$$FUEAA@XZ
PUBLIC	__t2m@??1bad_alloc@std@@UEAA@XZ
;	COMDAT __mep@??1bad_alloc@std@@$$FUEAA@XZ
data	SEGMENT
__mep@??1bad_alloc@std@@$$FUEAA@XZ TOKEN 0A000049
data	ENDS
;	COMDAT __m2mep@??1bad_alloc@std@@$$FUEAA@XZ
data	SEGMENT
__m2mep@??1bad_alloc@std@@$$FUEAA@XZ DD FLAT:??1bad_alloc@std@@$$FUEAA@XZ
; Function compile flags: /Odtp
data	ENDS
;	COMDAT nep
_TEXT	SEGMENT
__t2m@??1bad_alloc@std@@UEAA@XZ PROC			; COMDAT
  00000	eb 08		 jmp	 SHORT $LN1@
  00002	0f 0b		 ud2
  00004	ff 25 00 00 00
	00		 jmp	 QWORD PTR __m2mep@??1bad_alloc@std@@$$FUEAA@XZ
$LN1@:
  0000a	ff 25 00 00 00
	00		 jmp	 QWORD PTR __mep@??1bad_alloc@std@@$$FUEAA@XZ
__t2m@??1bad_alloc@std@@UEAA@XZ ENDP
_TEXT	ENDS
PUBLIC	__mep@??_Ebad_alloc@std@@$$FUEAAPEAXI@Z
PUBLIC	__m2mep@??_Ebad_alloc@std@@$$FUEAAPEAXI@Z
PUBLIC	__t2m@??_Ebad_alloc@std@@UEAAPEAXI@Z
;	COMDAT __mep@??_Ebad_alloc@std@@$$FUEAAPEAXI@Z
data	SEGMENT
__mep@??_Ebad_alloc@std@@$$FUEAAPEAXI@Z TOKEN 0A00004A
data	ENDS
;	COMDAT __m2mep@??_Ebad_alloc@std@@$$FUEAAPEAXI@Z
data	SEGMENT
__m2mep@??_Ebad_alloc@std@@$$FUEAAPEAXI@Z DD FLAT:??_Ebad_alloc@std@@$$FUEAAPEAXI@Z
; Function compile flags: /Odtp
data	ENDS
;	COMDAT nep
_TEXT	SEGMENT
__t2m@??_Ebad_alloc@std@@UEAAPEAXI@Z PROC		; COMDAT
  00000	eb 08		 jmp	 SHORT $LN1@
  00002	0f 0b		 ud2
$LN2@:
  00004	ff 25 00 00 00
	00		 jmp	 QWORD PTR __m2mep@??_Ebad_alloc@std@@$$FUEAAPEAXI@Z
$LN1@:
  0000a	ff 25 00 00 00
	00		 jmp	 QWORD PTR __mep@??_Ebad_alloc@std@@$$FUEAAPEAXI@Z
__t2m@??_Ebad_alloc@std@@UEAAPEAXI@Z ENDP
_TEXT	ENDS
PUBLIC	__mep@??0bad_alloc@std@@$$FQEAA@AEBV01@@Z
PUBLIC	__m2mep@??0bad_alloc@std@@$$FQEAA@AEBV01@@Z
PUBLIC	__t2m@??0bad_alloc@std@@QEAA@AEBV01@@Z
;	COMDAT __mep@??0bad_alloc@std@@$$FQEAA@AEBV01@@Z
data	SEGMENT
__mep@??0bad_alloc@std@@$$FQEAA@AEBV01@@Z TOKEN 0A00027A
data	ENDS
;	COMDAT __m2mep@??0bad_alloc@std@@$$FQEAA@AEBV01@@Z
data	SEGMENT
__m2mep@??0bad_alloc@std@@$$FQEAA@AEBV01@@Z DD FLAT:??0bad_alloc@std@@$$FQEAA@AEBV01@@Z
; Function compile flags: /Odtp
data	ENDS
;	COMDAT nep
_TEXT	SEGMENT
__t2m@??0bad_alloc@std@@QEAA@AEBV01@@Z PROC		; COMDAT
  00000	eb 08		 jmp	 SHORT $LN1@
  00002	0f 0b		 ud2
  00004	ff 25 00 00 00
	00		 jmp	 QWORD PTR __m2mep@??0bad_alloc@std@@$$FQEAA@AEBV01@@Z
$LN1@:
  0000a	ff 25 00 00 00
	00		 jmp	 QWORD PTR __mep@??0bad_alloc@std@@$$FQEAA@AEBV01@@Z
__t2m@??0bad_alloc@std@@QEAA@AEBV01@@Z ENDP
.global	
	.bss
.local	,4
; Function compile flags: /Odtp
	.text
	.comdat	any, ?_AddRef@_bstr_t@@$$FAEAAXXZ
.global	?_AddRef@_bstr_t@@$$FAEAAXXZ			; _bstr_t::_AddRef
?_AddRef@_bstr_t@@$$FAEAAXXZ:				; _bstr_t::_AddRef
;	.proc.def	D:V(J)

; Function Header:
; max stack depth = 1
; function size = 13 bytes
; local varsig tk = 0x0 
; Exception Information:
; 0 handlers, each consisting of filtered handlers

;	.formal.i8 0,"this$" SIG: Optional C Binding Modifier(token:0x53B9CCD).Optional C Binding Modifier(token:0x53B9CCF).ptr.valueType (token:0x53B9CD2)

;	.proc.beg
; File c:\program files (x86)\microsoft visual studio 9.0\vc\include\comutil.h
; Line 628
  0000b	02		 ldarg.0 	; this$
  0000c	4c		 ldind.i8 
  0000d	2c 09		 brfalse.s $LN2@AddRef
; Line 629
  0000f	02		 ldarg.0 	; this$
  00010	4c		 ldind.i8 
  00011	28 00 00 00 00	 call ?AddRef@Data_t@_bstr_t@@$$FQEAAKXZ
  00016	26		 pop 
$LN2@AddRef:
; Line 631
  00018	2a		 ret 
 .end ?_AddRef@_bstr_t@@$$FAEAAXXZ			; _bstr_t::_AddRef
;	.proc.end.void
_TEXT	ENDS
PUBLIC	__mep@?_AddRef@_bstr_t@@$$FAEAAXXZ
PUBLIC	__m2mep@?_AddRef@_bstr_t@@$$FAEAAXXZ
PUBLIC	__t2m@?_AddRef@_bstr_t@@AEAAXXZ
;	COMDAT __mep@?_AddRef@_bstr_t@@$$FAEAAXXZ
data	SEGMENT
__mep@?_AddRef@_bstr_t@@$$FAEAAXXZ TOKEN 0A00002C
data	ENDS
;	COMDAT __m2mep@?_AddRef@_bstr_t@@$$FAEAAXXZ
data	SEGMENT
__m2mep@?_AddRef@_bstr_t@@$$FAEAAXXZ DD FLAT:?_AddRef@_bstr_t@@$$FAEAAXXZ
; Function compile flags: /Odtp
data	ENDS
;	COMDAT nep
_TEXT	SEGMENT
__t2m@?_AddRef@_bstr_t@@AEAAXXZ PROC			; COMDAT
  00000	eb 08		 jmp	 SHORT $LN1@
  00002	0f 0b		 ud2
$LN2@:
  00004	ff 25 00 00 00
	00		 jmp	 QWORD PTR __m2mep@?_AddRef@_bstr_t@@$$FAEAAXXZ
$LN1@:
  0000a	ff 25 00 00 00
	00		 jmp	 QWORD PTR __mep@?_AddRef@_bstr_t@@$$FAEAAXXZ
__t2m@?_AddRef@_bstr_t@@AEAAXXZ ENDP
.global	
.global	
	.bss
.local	$T77483,0
.local	,4
.local	,4
; Function compile flags: /Odtp
	.text
	.comdat	any, ?_Adopt@_Iterator_base@std@@$$FQEAAXPEBV_Container_base_secure@2@@Z
.global	?_Adopt@_Iterator_base@std@@$$FQEAAXPEBV_Container_base_secure@2@@Z ; std::_Iterator_base::_Adopt
?_Adopt@_Iterator_base@std@@$$FQEAAXPEBV_Container_base_secure@2@@Z: ; std::_Iterator_base::_Adopt
;	.proc.def	D:V(JJ)

; Function Header:
; max stack depth = 2
; function size = 73 bytes
; local varsig tk = 0x11000060 
; Exception Information:
; 1 handlers, each consisting of filtered handlers

;	.formal.i8 1,"_Parent$" SIG: ptr.Optional C Binding Modifier(token:0x53CB85E).valueType (token:0x53CB860)
;	.formal.i8 0,"this$" SIG: Optional C Binding Modifier(token:0x53ACF59).Optional C Binding Modifier(token:0x53ACF5B).ptr.valueType (token:0x53ACF5E)
;	.local.mb4   0,"_Lock$53615" SIG: valueType (token:0x5393F95)

;	.proc.beg
; File c:\program files (x86)\microsoft visual studio 9.0\vc\include\xutility
; Line 166
  0000b	02		 ldarg.0 	; this$
  0000c	4c		 ldind.i8 
  0000d	03		 ldarg.1 	; _Parent$
  0000e	2e 44		 beq.s $LN3@Adopt
; Line 168
  00010	12 00		 ldloca.s 0	; _Lock$53615
  00012	19		 ldc.i.3 3	; i32 0x3
  00013	28 00 00 00 00	 call ??0_Lockit@std@@$$FQEAA@H@Z
  00018	26		 pop 
$LN6@Adopt:
; Line 169
  0001a	02		 ldarg.0 	; this$
  0001b	28 00 00 00 00	 call ?_Orphan_me@_Iterator_base@std@@$$FQEAAXXZ
; Line 170
  00020	03		 ldarg.1 	; _Parent$
  00021	2c 17		 brfalse.s $LN1@Adopt
  00023	03		 ldarg.1 	; _Parent$
  00024	4c		 ldind.i8 
  00025	21 fd ff ff ff
	ff ff ff ff	 ldc.i8 18446744073709551613 ; u64 0xfffffffffffffffd
  0002e	2e 0a		 beq.s $LN1@Adopt
; Line 172
  00030	02		 ldarg.0 	; this$
  00031	1e		 ldc.i.8 8	; i64 0x8
  00032	6a		 conv.i8 
  00033	58		 add 
  00034	03		 ldarg.1 	; _Parent$
  00035	4c		 ldind.i8 
  00036	55		 stind.i8 
; Line 173
  00037	03		 ldarg.1 	; _Parent$
  00038	02		 ldarg.0 	; this$
  00039	55		 stind.i8 
$LN1@Adopt:
; Line 175
  0003a	02		 ldarg.0 	; this$
  0003b	03		 ldarg.1 	; _Parent$
  0003c	55		 stind.i8 
  0003d	de 0e		 leave.s $LN7@Adopt
$LN8@Adopt:
  0003f	fe 06 00 00 00
	00		 ldftn ??1_Lockit@std@@$$FQEAA@XZ
  00045	12 00		 ldloca.s 0	; _Lock$53615
  00047	28 00 00 00 00	 call ?___CxxCallUnwindDtor@@$$J0YMXP6MXPEAX@Z0@Z
  0004c	dc		 endfinally 
$LN7@Adopt:
; Line 176
  0004d	12 00		 ldloca.s 0	; _Lock$53615
  0004f	28 00 00 00 00	 call ??1_Lockit@std@@$$FQEAA@XZ
$LN3@Adopt:
; Line 177
  00054	2a		 ret 
 .end ?_Adopt@_Iterator_base@std@@$$FQEAAXPEBV_Container_base_secure@2@@Z ; std::_Iterator_base::_Adopt
;	.proc.end.void
_TEXT	ENDS
PUBLIC	__mep@?_Adopt@_Iterator_base@std@@$$FQEAAXPEBV_Container_base_secure@2@@Z
PUBLIC	__m2mep@?_Adopt@_Iterator_base@std@@$$FQEAAXPEBV_Container_base_secure@2@@Z
PUBLIC	__t2m@?_Adopt@_Iterator_base@std@@QEAAXPEBV_Container_base_secure@2@@Z
;	COMDAT __mep@?_Adopt@_Iterator_base@std@@$$FQEAAXPEBV_Container_base_secure@2@@Z
data	SEGMENT
__mep@?_Adopt@_Iterator_base@std@@$$FQEAAXPEBV_Container_base_secure@2@@Z TOKEN 0A000067
data	ENDS
;	COMDAT __m2mep@?_Adopt@_Iterator_base@std@@$$FQEAAXPEBV_Container_base_secure@2@@Z
data	SEGMENT
__m2mep@?_Adopt@_Iterator_base@std@@$$FQEAAXPEBV_Container_base_secure@2@@Z DD FLAT:?_Adopt@_Iterator_base@std@@$$FQEAAXPEBV_Container_base_secure@2@@Z
; Function compile flags: /Odtp
data	ENDS
;	COMDAT nep
_TEXT	SEGMENT
__t2m@?_Adopt@_Iterator_base@std@@QEAAXPEBV_Container_base_secure@2@@Z PROC ; COMDAT
  00000	eb 08		 jmp	 SHORT $LN1@
  00002	0f 0b		 ud2
  00004	ff 25 00 00 00
	00		 jmp	 QWORD PTR __m2mep@?_Adopt@_Iterator_base@std@@$$FQEAAXPEBV_Container_base_secure@2@@Z
$LN1@:
  0000a	ff 25 00 00 00
	00		 jmp	 QWORD PTR __mep@?_Adopt@_Iterator_base@std@@$$FQEAAXPEBV_Container_base_secure@2@@Z
__t2m@?_Adopt@_Iterator_base@std@@QEAAXPEBV_Container_base_secure@2@@Z ENDP
.global	??_7out_of_range@std@@6B@			; std::out_of_range::`vftable'
.global	
.global	
.global	??_R4out_of_range@std@@6B@			; std::out_of_range::`RTTI Complete Object Locator'
.global	??_R0?AVout_of_range@std@@@8			; std::out_of_range `RTTI Type Descriptor'
.global	??_R3out_of_range@std@@8			; std::out_of_range::`RTTI Class Hierarchy Descriptor'
.global	??_R2out_of_range@std@@8			; std::out_of_range::`RTTI Base Class Array'
.global	??_R1A@?0A@EA@out_of_range@std@@8		; std::out_of_range::`RTTI Base Class Descriptor at (0,-1,0,64)'
	.bss
.local	,4
.local	,4
	.rdataseg	.rdata$r
	.comdat	any, ??_R1A@?0A@EA@out_of_range@std@@8

??_R1A@?0A@EA@out_of_range@std@@8:			; std::out_of_range::`RTTI Base Class Descriptor at (0,-1,0,64)' DD imagerel ??_R0?AVout_of_range@std@@@8
	.word	0x2
	.word	0x0
	.word	0xffffffff
	.word	0x0
	.word	0x40 DD imagerel ??_R3out_of_range@std@@8
	.rdataseg	.rdata$r
	.comdat	any, ??_R2out_of_range@std@@8

??_R2out_of_range@std@@8:				; std::out_of_range::`RTTI Base Class Array' DD imagerel ??_R1A@?0A@EA@out_of_range@std@@8 DD imagerel ??_R1A@?0A@EA@logic_error@std@@8 DD imagerel ??_R1A@?0A@EA@exception@std@@8
	.space	3
	.rdataseg	.rdata$r
	.comdat	any, ??_R3out_of_range@std@@8

??_R3out_of_range@std@@8:				; std::out_of_range::`RTTI Class Hierarchy Descriptor'
	.word	0x0
	.word	0x0
	.word	0x3 DD imagerel ??_R2out_of_range@std@@8
	.data
	.comdat	any, ??_R0?AVout_of_range@std@@@8

??_R0?AVout_of_range@std@@@8:				; std::out_of_range `RTTI Type Descriptor'
	DQ	??_7type_info@@6B@
	.double	0x0000000000000000
	.ascii	".?AVout_of_range@std@@\000"
	.rdataseg	.rdata$r
	.comdat	any, ??_R4out_of_range@std@@6B@

??_R4out_of_range@std@@6B@:				; std::out_of_range::`RTTI Complete Object Locator'
	.word	0x1
	.word	0x0
	.word	0x0 DD imagerel ??_R0?AVout_of_range@std@@@8 DD imagerel ??_R3out_of_range@std@@8 DD imagerel ??_R4out_of_range@std@@6B@
	.data
	.comdat	largest, ??_7out_of_range@std@@6B@

??_7out_of_range@std@@6B@:				; std::out_of_range::`vftable'
	DQ	??_R4out_of_range@std@@6B@
	DQ	??_Eout_of_range@std@@UEAAPEAXI@Z
	DQ	?what@logic_error@std@@UEBAPEBDXZ
; Function compile flags: /Odtp
	.text
	.comdat	any, ??0out_of_range@std@@$$FQEAA@AEBV01@@Z
.global	??0out_of_range@std@@$$FQEAA@AEBV01@@Z		; std::out_of_range::out_of_range
??0out_of_range@std@@$$FQEAA@AEBV01@@Z:			; std::out_of_range::out_of_range
;	.proc.def	D:J(JJ)

; Function Header:
; max stack depth = 2
; function size = 32 bytes
; local varsig tk = 0x0 
; Exception Information:
; 1 handlers, each consisting of filtered handlers

;	.formal.i8 1,"__that$" SIG: Optional C Binding Modifier(token:0x53AAB5D).ptr.Optional C Binding Modifier(token:0x53AAB60).valueType (token:0x53AAB62)
;	.formal.i8 0,"this$" SIG: Optional C Binding Modifier(token:0x53B859D).Optional C Binding Modifier(token:0x53B859F).ptr.valueType (token:0x53B85A2)

;	.proc.beg
  0000b	02		 ldarg.0 	; this$
  0000c	03		 ldarg.1 	; __that$
  0000d	28 00 00 00 00	 call ??0logic_error@std@@$$FQEAA@AEBV01@@Z
  00012	26		 pop 
$LN4@out_of_ran:
  00014	02		 ldarg.0 	; this$
  00015	7f 00 00 00 00	 ldsflda ??_7out_of_range@std@@6B@
  0001a	55		 stind.i8 
  0001b	de 0d		 leave.s $LN5@out_of_ran
$LN6@out_of_ran:
  0001d	fe 06 00 00 00
	00		 ldftn ??1logic_error@std@@$$FUEAA@XZ
  00023	02		 ldarg.0 	; this$
  00024	28 00 00 00 00	 call ?___CxxCallUnwindDtor@@$$J0YMXP6MXPEAX@Z0@Z
  00029	dc		 endfinally 
$LN5@out_of_ran:
  0002a	02		 ldarg.0 	; this$
  0002b	2a		 ret 
 .end ??0out_of_range@std@@$$FQEAA@AEBV01@@Z		; std::out_of_range::out_of_range
;	.proc.end.i8
	.bss
.local	$T77507,0
; Function compile flags: /Odtp
	.text
	.comdat	any, ??_Eout_of_range@std@@$$FUEAAPEAXI@Z
.global	??_Eout_of_range@std@@$$FUEAAPEAXI@Z		; std::out_of_range::`vector deleting destructor'
??_Eout_of_range@std@@$$FUEAAPEAXI@Z:			; std::out_of_range::`vector deleting destructor'
;	.proc.def	D:J(JI)

; Function Header:
; max stack depth = 4
; function size = 67 bytes
; local varsig tk = 0x11000047 
; Exception Information:
; 0 handlers, each consisting of filtered handlers

;	.formal.i8 0,"this$" SIG: Optional C Binding Modifier(token:0x53B859D).Optional C Binding Modifier(token:0x53B859F).ptr.valueType (token:0x53B85A2)
;	.formal.u4 1,"__flags$" SIG: u4
;	.local.i8 0,"$T77506" SIG: ptr.void

;	.proc.beg
  0000b	03		 ldarg.1 	; __flags$
  0000c	18		 ldc.i.2 2	; u32 0x2
  0000d	5f		 and 
  0000e	2c 2a		 brfalse.s $LN3@vector@5
  00010	02		 ldarg.0 	; this$
  00011	1f 48		 ldc.i4.s 72	; u64 0x48
  00013	6a		 conv.i8 
  00014	02		 ldarg.0 	; this$
  00015	1e		 ldc.i.8 8	; i64 0x8
  00016	6a		 conv.i8 
  00017	59		 sub 
  00018	4a		 ldind.i4 
  00019	fe 06 00 00 00
	00		 ldftn ??1out_of_range@std@@$$FUEAA@XZ
  0001f	28 00 00 00 00	 call ??_M@$$FYMXPEAX_KHP6MX0@Z@Z
  00024	03		 ldarg.1 	; __flags$
  00025	17		 ldc.i.1 1	; u32 0x1
  00026	5f		 and 
  00027	2c 0a		 brfalse.s $LN2@vector@5
  00029	02		 ldarg.0 	; this$
  0002a	1e		 ldc.i.8 8	; i64 0x8
  0002b	6a		 conv.i8 
  0002c	59		 sub 
  0002d	28 00 00 00 00	 call ??_V@$$FYAXPEAX@Z
$LN2@vector@5:
  00033	02		 ldarg.0 	; this$
  00034	1e		 ldc.i.8 8	; i64 0x8
  00035	6a		 conv.i8 
  00036	59		 sub 
  00037	0a		 stloc.0 	; $T77506
  00038	2b 13		 br.s $LN4@vector@5
$LN3@vector@5:
  0003a	02		 ldarg.0 	; this$
  0003b	28 00 00 00 00	 call ??1out_of_range@std@@$$FUEAA@XZ
  00040	03		 ldarg.1 	; __flags$
  00041	17		 ldc.i.1 1	; u32 0x1
  00042	5f		 and 
  00043	2c 06		 brfalse.s $LN1@vector@5
  00045	02		 ldarg.0 	; this$
  00046	28 00 00 00 00	 call ??3@$$FYAXPEAX@Z
$LN1@vector@5:
  0004b	02		 ldarg.0 	; this$
  0004c	0a		 stloc.0 	; $T77506
$LN4@vector@5:
  0004d	06		 ldloc.0 	; $T77506
  0004e	2a		 ret 
 .end ??_Eout_of_range@std@@$$FUEAAPEAXI@Z		; std::out_of_range::`vector deleting destructor'
;	.proc.end.i8
; Function compile flags: /Odtp
	.text
	.comdat	any, ??1out_of_range@std@@$$FUEAA@XZ
.global	??1out_of_range@std@@$$FUEAA@XZ			; std::out_of_range::~out_of_range
??1out_of_range@std@@$$FUEAA@XZ:			; std::out_of_range::~out_of_range
;	.proc.def	D:V(J)

; Function Header:
; max stack depth = 2
; function size = 14 bytes
; local varsig tk = 0x0 
; Exception Information:
; 0 handlers, each consisting of filtered handlers

;	.formal.i8 0,"this$" SIG: Optional C Binding Modifier(token:0x53B859D).Optional C Binding Modifier(token:0x53B859F).ptr.valueType (token:0x53B85A2)

;	.proc.beg
; File c:\program files (x86)\microsoft visual studio 9.0\vc\include\stdexcept
; Line 133
  0000b	02		 ldarg.0 	; this$
  0000c	7f 00 00 00 00	 ldsflda ??_7out_of_range@std@@6B@
  00011	55		 stind.i8 
; Line 134
  00012	02		 ldarg.0 	; this$
  00013	28 00 00 00 00	 call ??1logic_error@std@@$$FUEAA@XZ
  00018	2a		 ret 
 .end ??1out_of_range@std@@$$FUEAA@XZ			; std::out_of_range::~out_of_range
;	.proc.end.void
_TEXT	ENDS
PUBLIC	__mep@??1out_of_range@std@@$$FUEAA@XZ
PUBLIC	__m2mep@??1out_of_range@std@@$$FUEAA@XZ
PUBLIC	__t2m@??1out_of_range@std@@UEAA@XZ
;	COMDAT __mep@??1out_of_range@std@@$$FUEAA@XZ
data	SEGMENT
__mep@??1out_of_range@std@@$$FUEAA@XZ TOKEN 0A000076
data	ENDS
;	COMDAT __m2mep@??1out_of_range@std@@$$FUEAA@XZ
data	SEGMENT
__m2mep@??1out_of_range@std@@$$FUEAA@XZ DD FLAT:??1out_of_range@std@@$$FUEAA@XZ
; Function compile flags: /Odtp
data	ENDS
;	COMDAT nep
_TEXT	SEGMENT
__t2m@??1out_of_range@std@@UEAA@XZ PROC			; COMDAT
  00000	eb 08		 jmp	 SHORT $LN1@
  00002	0f 0b		 ud2
  00004	ff 25 00 00 00
	00		 jmp	 QWORD PTR __m2mep@??1out_of_range@std@@$$FUEAA@XZ
$LN1@:
  0000a	ff 25 00 00 00
	00		 jmp	 QWORD PTR __mep@??1out_of_range@std@@$$FUEAA@XZ
__t2m@??1out_of_range@std@@UEAA@XZ ENDP
_TEXT	ENDS
PUBLIC	__mep@??_Eout_of_range@std@@$$FUEAAPEAXI@Z
PUBLIC	__m2mep@??_Eout_of_range@std@@$$FUEAAPEAXI@Z
PUBLIC	__t2m@??_Eout_of_range@std@@UEAAPEAXI@Z
;	COMDAT __mep@??_Eout_of_range@std@@$$FUEAAPEAXI@Z
data	SEGMENT
__mep@??_Eout_of_range@std@@$$FUEAAPEAXI@Z TOKEN 0A000077
data	ENDS
;	COMDAT __m2mep@??_Eout_of_range@std@@$$FUEAAPEAXI@Z
data	SEGMENT
__m2mep@??_Eout_of_range@std@@$$FUEAAPEAXI@Z DD FLAT:??_Eout_of_range@std@@$$FUEAAPEAXI@Z
; Function compile flags: /Odtp
data	ENDS
;	COMDAT nep
_TEXT	SEGMENT
__t2m@??_Eout_of_range@std@@UEAAPEAXI@Z PROC		; COMDAT
  00000	eb 08		 jmp	 SHORT $LN1@
  00002	0f 0b		 ud2
$LN2@:
  00004	ff 25 00 00 00
	00		 jmp	 QWORD PTR __m2mep@??_Eout_of_range@std@@$$FUEAAPEAXI@Z
$LN1@:
  0000a	ff 25 00 00 00
	00		 jmp	 QWORD PTR __mep@??_Eout_of_range@std@@$$FUEAAPEAXI@Z
__t2m@??_Eout_of_range@std@@UEAAPEAXI@Z ENDP
_TEXT	ENDS
PUBLIC	__mep@??0out_of_range@std@@$$FQEAA@AEBV01@@Z
PUBLIC	__m2mep@??0out_of_range@std@@$$FQEAA@AEBV01@@Z
PUBLIC	__t2m@??0out_of_range@std@@QEAA@AEBV01@@Z
;	COMDAT __mep@??0out_of_range@std@@$$FQEAA@AEBV01@@Z
data	SEGMENT
__mep@??0out_of_range@std@@$$FQEAA@AEBV01@@Z TOKEN 0A0000C9
data	ENDS
;	COMDAT __m2mep@??0out_of_range@std@@$$FQEAA@AEBV01@@Z
data	SEGMENT
__m2mep@??0out_of_range@std@@$$FQEAA@AEBV01@@Z DD FLAT:??0out_of_range@std@@$$FQEAA@AEBV01@@Z
; Function compile flags: /Odtp
data	ENDS
;	COMDAT nep
_TEXT	SEGMENT
__t2m@??0out_of_range@std@@QEAA@AEBV01@@Z PROC		; COMDAT
  00000	eb 08		 jmp	 SHORT $LN1@
  00002	0f 0b		 ud2
  00004	ff 25 00 00 00
	00		 jmp	 QWORD PTR __m2mep@??0out_of_range@std@@$$FQEAA@AEBV01@@Z
$LN1@:
  0000a	ff 25 00 00 00
	00		 jmp	 QWORD PTR __mep@??0out_of_range@std@@$$FQEAA@AEBV01@@Z
__t2m@??0out_of_range@std@@QEAA@AEBV01@@Z ENDP
.global	__unep@?WaitForNewFile@@$$FYAKPEAX@Z
.global	
.global	
.global	
.global	
.global	
.global	
	.bss
.local	$T77553,0
.local	,4
.local	,4
.local	,4
.local	,4
.local	,4
.local	,4
; File d:\mystuff\ulslogview\ulslogview\ulslogview.cpp
	.rdata
	.comdat	any, __unep@?WaitForNewFile@@$$FYAKPEAX@Z

__unep@?WaitForNewFile@@$$FYAKPEAX@Z:
	DQ	?WaitForNewFile@@YAKPEAX@Z
; Function compile flags: /Odtp
	.text
.global	?WndProc@@$$FYA_JPEAUHWND__@@I_K_J@Z		; WndProc
?WndProc@@$$FYA_JPEAUHWND__@@I_K_J@Z:			; WndProc
;	.proc.def	D:J(JIJJ)

; Function Header:
; max stack depth = 12
; function size = 591 bytes
; local varsig tk = 0x11000069 
; Exception Information:
; 1 handlers, each consisting of filtered handlers

;	.formal.i8 3,"lParam$" SIG: i8
;	.formal.u8 2,"wParam$" SIG: u8
;	.formal.i8 0,"hWnd$" SIG: ptr.valueType (token:0x53BDADA)
;	.formal.u4 1,"message$" SIG: u4
;	.local.i8 12,"hdc$" SIG: ptr.valueType (token:0x539D27A)
;	.local.mb72  13,"ps$" SIG: valueType (token:0x53B8481)
;	.local.i8 2,"$T77541" SIG: i8
;	.local.i8 5,"memFile$68906" SIG: ptr.void
;	.local.i8 6,"parser$68899" SIG: ptr.valueType (token:0x539872A)
;	.local.i8 8,"$T68903" SIG: ptr.valueType (token:0x539872A)
;	.local.i8 3,"$T68901" SIG: ptr.valueType (token:0x539872A)
;	.local.i4 9,"writeTime$68893" SIG: i4
;	.local.i8 0,"logFile$" SIG: ptr.valueType (token:0x538EF56)
;	.local.mb8   14,"fileTime$68891" SIG: valueType (token:0x539631D)
;	.local.i8 7,"fileHandle$68882" SIG: ptr.void
;	.local.mb200 15,"Location1$68877" SIG: valueType (token:0x538BB79)
;	.local.i8 4,"Location$" SIG: ptr.char
;	.local.mb200 16,"errMsg$" SIG: valueType (token:0x538BB79)
;	.local.i8 10,"logLocation$" SIG: ptr.char
;	.local.i4 17,"wmEvent$" SIG: i4
;	.local.i4 11,"wmId$" SIG: i4
;	.local.u4 1,"$T77542" SIG: u4

;	.proc.beg
; Line 166
  0000b	03		 ldarg.1 	; message$
  0000c	0b		 stloc.1 	; $T77542
  0000d	07		 ldloc.1 	; $T77542
  0000e	17		 ldc.i.1 1	; u32 0x1
  0000f	2e 41		 beq.s $LN23@WndProc
  00011	07		 ldloc.1 	; $T77542
  00012	18		 ldc.i.2 2	; u32 0x2
  00013	3b 4a 03 00 00	 beq $LN2@WndProc
  00018	07		 ldloc.1 	; $T77542
  00019	1b		 ldc.i.5 5	; u32 0x5
  0001a	2e 60		 beq.s $LN22@WndProc
  0001c	07		 ldloc.1 	; $T77542
  0001d	1f 0f		 ldc.i4.s 15	; u32 0xf
  0001f	3b 29 03 00 00	 beq $LN3@WndProc
  00024	07		 ldloc.1 	; $T77542
  00025	20 11 01 00 00	 ldc.i4 273	; u32 0x111
  0002a	2e 67		 beq.s $LN21@WndProc
  0002c	38 39 03 00 00	 br $LN1@WndProc
$LN23@WndProc:
; Line 169
  00152	16		 ldc.i.0 0	; u32 0x0
  00153	7f 00 00 00 00	 ldsflda $SG68861
  00158	16		 ldc.i.0 0	; i64 0x0
  00159	6a		 conv.i8 
  0015a	20 00 00 00 50	 ldc.i4 1342177280 ; u32 0x50000000
  0015f	16		 ldc.i.0 0	; i32 0x0
  00160	16		 ldc.i.0 0	; i32 0x0
  00161	16		 ldc.i.0 0	; i32 0x0
  00162	16		 ldc.i.0 0	; i32 0x0
  00163	02		 ldarg.0 	; hWnd$
  00164	16		 ldc.i.0 0	; i64 0x0
  00165	6a		 conv.i8 
  00166	7e 00 00 00 00	 ldsfld ?hInst@@3PEAUHINSTANCE__@@EA
  0016b	16		 ldc.i.0 0	; i64 0x0
  0016c	6a		 conv.i8 
  0016d	28 00 00 00 00	 call ?CreateWindowExW@@$$J0YAPEAUHWND__@@KPEB_W0KHHHHPEAU1@PEAUHMENU__@@PEAUHINSTANCE__@@PEAX@Z
  00172	80 00 00 00 00	 stsfld ?listWindow@@3PEAUHWND__@@EA
; Line 171
  00177	38 fa 01 00 00	 br $LN24@WndProc
$LN22@WndProc:
; Line 173
  0017c	7e 00 00 00 00	 ldsfld ?listWindow@@3PEAUHWND__@@EA
  00181	16		 ldc.i.0 0	; i32 0x0
  00182	16		 ldc.i.0 0	; i32 0x0
  00183	1f 64		 ldc.i4.s 100	; i32 0x64
  00185	1f 64		 ldc.i4.s 100	; i32 0x64
  00187	17		 ldc.i.1 1	; i32 0x1
  00188	28 00 00 00 00	 call ?MoveWindow@@$$J0YAHPEAUHWND__@@HHHHH@Z
  0018d	26		 pop 
; Line 175
  0018e	38 e3 01 00 00	 br $LN24@WndProc
$LN21@WndProc:
; Line 178
  00193	04		 ldarg.2 	; wParam$
  00194	20 ff ff 00 00	 ldc.i4 65535	; u64 0xffff
  00199	6a		 conv.i8 
  0019a	5f		 and 
  0019b	6d		 conv.u4 
  0019c	d1		 conv.u2 
  0019d	13 0b		 stloc.s 11	; wmId$
; Line 179
  0019f	04		 ldarg.2 	; wParam$
  001a0	1f 10		 ldc.i4.s 16	; i32 0x10
  001a2	64		 shr.un 
  001a3	20 ff ff 00 00	 ldc.i4 65535	; u64 0xffff
  001a8	6a		 conv.i8 
  001a9	5f		 and 
  001aa	6d		 conv.u4 
  001ab	d1		 conv.u2 
  001ac	13 11		 stloc.s 17	; wmEvent$
; Line 181
  001ae	11 0b		 ldloc.s 11	; wmId$
  001b0	20 42 9c 00 00	 ldc.i4 40002	; i32 0x9c42
  001b5	2e 05		 beq.s $LN18@WndProc
  001b7	38 83 01 00 00	 br $LN4@WndProc
$LN18@WndProc:
; Line 184
  001bc	28 00 00 00 00	 call ?GetLogLocation@@$$FYAPEA_WXZ
  001c1	13 0a		 stloc.s 10	; logLocation$
; Line 187
  001c3	11 0a		 ldloc.s 10	; logLocation$
  001c5	28 00 00 00 00	 call ?ConvertBSTRToString@_com_util@@$$FYAPEADPEA_W@Z
  001ca	7f 00 00 00 00	 ldsflda $SG68874
  001cf	28 00 00 00 00	 call ?strcmp@@$$J0YAHPEBD0@Z
  001d4	2d 25		 brtrue.s $LN17@WndProc
; Line 190
  001d6	7e 00 00 00 00	 ldsfld ?hInst@@3PEAUHINSTANCE__@@EA
  001db	1f 69		 ldc.i4.s 105	; u32 0x69
  001dd	12 10		 ldloca.s 16	; errMsg$
  001df	1f 64		 ldc.i4.s 100	; i32 0x64
  001e1	28 00 00 00 00	 call ?LoadStringW@@$$J0YAHPEAUHINSTANCE__@@IPEA_WH@Z
  001e6	26		 pop 
; Line 191
  001e7	02		 ldarg.0 	; hWnd$
  001e8	12 10		 ldloca.s 16	; errMsg$
  001ea	7f 00 00 00 00	 ldsflda ?szTitle@@3PA_WA
  001ef	16		 ldc.i.0 0	; u32 0x0
  001f0	28 00 00 00 00	 call ?MessageBox@@$$J0YAHPEAUHWND__@@PEB_W1I@Z
  001f5	26		 pop 
; Line 193
  001f6	38 42 01 00 00	 br $LN16@WndProc
$LN17@WndProc:
; Line 195
  001fb	7f 00 00 00 00	 ldsflda $SG68876
  00200	13 04		 stloc.s 4	; Location$
; Line 197
  00202	11 04		 ldloc.s 4	; Location$
  00204	16		 ldc.i.0 0	; i32 0x0
  00205	1f 11		 ldc.i4.s 17	; u32 0x11
  00207	28 00 00 00 00	 call ?FindFirstChangeNotificationW@@$$J0YAPEAXPEB_WHK@Z
  0020c	80 00 00 00 00	 stsfld ?fileChange@@3PEAXEA
; Line 198
  00211	7e 00 00 00 00	 ldsfld ?fileChange@@3PEAXEA
  00216	21 ff ff ff ff
	ff ff ff ff	 ldc.i8 18446744073709551615 ; u64 0xffffffffffffffff
  0021f	33 0a		 bne.un.s $LN15@WndProc
; Line 201
  00221	28 00 00 00 00	 call ?GetLastError@@$$J0YAKXZ
  00226	28 00 00 00 00	 call ?ExitProcess@@$$J0YAXI@Z
$LN15@WndProc:
; Line 204
  0022b	16		 ldc.i.0 0	; i64 0x0
  0022c	6a		 conv.i8 
  0022d	16		 ldc.i.0 0	; u64 0x0
  0022e	6a		 conv.i8 
  0022f	7e 00 00 00 00	 ldsfld __unep@?WaitForNewFile@@$$FYAKPEAX@Z
  00234	16		 ldc.i.0 0	; i64 0x0
  00235	6a		 conv.i8 
  00236	16		 ldc.i.0 0	; u32 0x0
  00237	7f 00 00 00 00	 ldsflda ?ThreadId@@3KA
  0023c	28 00 00 00 00	 call ?CreateThread@@$$J0YAPEAXPEAU_SECURITY_ATTRIBUTES@@_KP6AKPEAX@Z2KPEAK@Z
  00241	26		 pop 
; Line 206
  00242	12 0f		 ldloca.s 15	; Location1$68877
  00244	11 04		 ldloc.s 4	; Location$
  00246	28 00 00 00 00	 call ?wcscpy@@$$J0YAPEA_WPEA_WPEB_W@Z
  0024b	26		 pop 
; Line 207
  0024c	12 0f		 ldloca.s 15	; Location1$68877
  0024e	7f 00 00 00 00	 ldsflda $SG68881
  00253	28 00 00 00 00	 call ?wcscat@@$$J0YAPEA_WPEA_WPEB_W@Z
  00258	26		 pop 
; Line 208
  00259	12 0f		 ldloca.s 15	; Location1$68877
  0025b	7f 00 00 00 00	 ldsflda ?ffd@@3U_WIN32_FIND_DATAW@@A
  00260	28 00 00 00 00	 call ?FindFirstFileW@@$$J0YAPEAXPEB_WPEAU_WIN32_FIND_DATAW@@@Z
  00265	13 07		 stloc.s 7	; fileHandle$68882
$LN13@WndProc:
; Line 218
  00267	7f 00 00 00 00	 ldsflda ?ffd@@3U_WIN32_FIND_DATAW@@A
  0026c	4a		 ldind.i4 
  0026d	1f 10		 ldc.i4.s 16	; u32 0x10
  0026f	5f		 and 
  00270	2c 02		 brfalse.s $LN10@WndProc
; Line 222
  00272	2b 72		 br.s $LN12@WndProc
$LN10@WndProc:
; Line 224
  00274	12 0e		 ldloca.s 14	; fileTime$68891
  00276	7f 00 00 00 00	 ldsflda ?ffd@@3U_WIN32_FIND_DATAW@@A
  0027b	1f 14		 ldc.i4.s 20	; i32 0x14
  0027d	58		 add 
  0027e	1e		 ldc.i.8 8	; u32 0x8
  0027f	fe 12 04	 unaligned 4	; u32 0x4
  00282	fe 17		 cpblk 
; Line 225
  00284	06		 ldloc.0 	; logFile$
  00285	2c 32		 brfalse.s $LN8@WndProc
; Line 227
  00287	12 0e		 ldloca.s 14	; fileTime$68891
  00289	06		 ldloc.0 	; logFile$
  0028a	28 00 00 00 00	 call ?CompareFileTime@@$$J0YAJPEBU_FILETIME@@0@Z
  0028f	13 09		 stloc.s 9	; writeTime$68893
; Line 228
  00291	11 09		 ldloc.s 9	; writeTime$68893
  00293	17		 ldc.i.1 1	; i32 0x1
  00294	33 21		 bne.un.s $LN7@WndProc
; Line 230
  00296	06		 ldloc.0 	; logFile$
  00297	1e		 ldc.i.8 8	; i64 0x8
  00298	6a		 conv.i8 
  00299	58		 add 
  0029a	7f 00 00 00 00	 ldsflda ?ffd@@3U_WIN32_FIND_DATAW@@A
  0029f	1f 2c		 ldc.i4.s 44	; i32 0x2c
  002a1	58		 add 
  002a2	28 00 00 00 00	 call ?wcscpy@@$$J0YAPEA_WPEA_WPEB_W@Z
  002a7	26		 pop 
; Line 231
  002a8	06		 ldloc.0 	; logFile$
  002a9	7f 00 00 00 00	 ldsflda ?ffd@@3U_WIN32_FIND_DATAW@@A
  002ae	1f 14		 ldc.i4.s 20	; i32 0x14
  002b0	58		 add 
  002b1	1e		 ldc.i.8 8	; u32 0x8
  002b2	fe 12 04	 unaligned 4	; u32 0x4
  002b5	fe 17		 cpblk 
$LN7@WndProc:
; Line 234
  002b7	2b 2d		 br.s $LN12@WndProc
$LN8@WndProc:
; Line 236
  002b9	20 10 02 00 00	 ldc.i4 528	; u64 0x210
  002be	6a		 conv.i8 
  002bf	28 00 00 00 00	 call ??2@$$FYAPEAX_K@Z
  002c4	0a		 stloc.0 	; logFile$
; Line 237
  002c5	06		 ldloc.0 	; logFile$
  002c6	1e		 ldc.i.8 8	; i64 0x8
  002c7	6a		 conv.i8 
  002c8	58		 add 
  002c9	7f 00 00 00 00	 ldsflda ?ffd@@3U_WIN32_FIND_DATAW@@A
  002ce	1f 2c		 ldc.i4.s 44	; i32 0x2c
  002d0	58		 add 
  002d1	28 00 00 00 00	 call ?wcscpy@@$$J0YAPEA_WPEA_WPEB_W@Z
  002d6	26		 pop 
; Line 238
  002d7	06		 ldloc.0 	; logFile$
  002d8	7f 00 00 00 00	 ldsflda ?ffd@@3U_WIN32_FIND_DATAW@@A
  002dd	1f 14		 ldc.i4.s 20	; i32 0x14
  002df	58		 add 
  002e0	1e		 ldc.i.8 8	; u32 0x8
  002e1	fe 12 04	 unaligned 4	; u32 0x4
  002e4	fe 17		 cpblk 
$LN12@WndProc:
; Line 246
  002e6	11 07		 ldloc.s 7	; fileHandle$68882
  002e8	7f 00 00 00 00	 ldsflda ?ffd@@3U_WIN32_FIND_DATAW@@A
  002ed	28 00 00 00 00	 call ?FindNextFileW@@$$J0YAHPEAXPEAU_WIN32_FIND_DATAW@@@Z
  002f2	3a 70 ff ff ff	 brtrue $LN13@WndProc
; Line 249
  002f7	20 40 03 00 00	 ldc.i4 832	; u64 0x340
  002fc	6a		 conv.i8 
  002fd	28 00 00 00 00	 call ??2@$$FYAPEAX_K@Z
  00302	0d		 stloc.3 	; $T68901
$LN31@WndProc:
  00303	09		 ldloc.3 	; $T68901
  00304	2c 08		 brfalse.s $LN28@WndProc
  00306	09		 ldloc.3 	; $T68901
  00307	28 00 00 00 00	 call ??0SPLogParser@@$$FQEAA@XZ
  0030c	2b 02		 br.s $LN29@WndProc
$LN28@WndProc:
  0030e	16		 ldc.i.0 0	; i64 0x0
  0030f	6a		 conv.i8 
$LN29@WndProc:
  00310	13 08		 stloc.s 8	; $T68903
  00312	de 07		 leave.s $LN32@WndProc
$LN33@WndProc:
  00314	09		 ldloc.3 	; $T68901
  00315	28 00 00 00 00	 call ??3@$$FYAXPEAX@Z
  0031a	dc		 endfinally 
$LN32@WndProc:
  0031b	11 08		 ldloc.s 8	; $T68903
  0031d	13 06		 stloc.s 6	; parser$68899
; Line 255
  0031f	11 06		 ldloc.s 6	; parser$68899
  00321	11 04		 ldloc.s 4	; Location$
  00323	06		 ldloc.0 	; logFile$
  00324	1e		 ldc.i.8 8	; i64 0x8
  00325	6a		 conv.i8 
  00326	58		 add 
  00327	28 00 00 00 00	 call ?OpenFileReading@SPLogParser@@$$FQEAAPEAXPEA_WQEA_W@Z
  0032c	13 05		 stloc.s 5	; memFile$68906
; Line 256
  0032e	11 05		 ldloc.s 5	; memFile$68906
  00330	2c 0b		 brfalse.s $LN16@WndProc
; Line 258
  00332	11 06		 ldloc.s 6	; parser$68899
  00334	11 05		 ldloc.s 5	; memFile$68906
  00336	11 07		 ldloc.s 7	; fileHandle$68882
  00338	28 00 00 00 00	 call ?ParseFile@SPLogParser@@$$FQEAAXPEAX0@Z
$LN16@WndProc:
; Line 262
  0033d	2b 0c		 br.s $LN19@WndProc
$LN4@WndProc:
; Line 267
  0033f	02		 ldarg.0 	; hWnd$
  00340	03		 ldarg.1 	; message$
  00341	04		 ldarg.2 	; wParam$
  00342	05		 ldarg.3 	; lParam$
  00343	28 00 00 00 00	 call ?DefWindowProcW@@$$J0YA_JPEAUHWND__@@I_K_J@Z
  00348	0c		 stloc.2 	; $T77541
  00349	2b 2e		 br.s $LN27@WndProc
$LN19@WndProc:
; Line 269
  0034b	2b 29		 br.s $LN24@WndProc
$LN3@WndProc:
; Line 271
  0034d	02		 ldarg.0 	; hWnd$
  0034e	12 0d		 ldloca.s 13	; ps$
  00350	28 00 00 00 00	 call ?BeginPaint@@$$J0YAPEAUHDC__@@PEAUHWND__@@PEAUtagPAINTSTRUCT@@@Z
  00355	13 0c		 stloc.s 12	; hdc$
; Line 273
  00357	02		 ldarg.0 	; hWnd$
  00358	12 0d		 ldloca.s 13	; ps$
  0035a	28 00 00 00 00	 call ?EndPaint@@$$J0YAHPEAUHWND__@@PEBUtagPAINTSTRUCT@@@Z
  0035f	26		 pop 
; Line 274
  00360	2b 14		 br.s $LN24@WndProc
$LN2@WndProc:
; Line 276
  00362	16		 ldc.i.0 0	; i32 0x0
  00363	28 00 00 00 00	 call ?PostQuitMessage@@$$J0YAXH@Z
; Line 277
  00368	2b 0c		 br.s $LN24@WndProc
$LN1@WndProc:
; Line 279
  0036a	02		 ldarg.0 	; hWnd$
  0036b	03		 ldarg.1 	; message$
  0036c	04		 ldarg.2 	; wParam$
  0036d	05		 ldarg.3 	; lParam$
  0036e	28 00 00 00 00	 call ?DefWindowProcW@@$$J0YA_JPEAUHWND__@@I_K_J@Z
  00373	0c		 stloc.2 	; $T77541
  00374	2b 03		 br.s $LN27@WndProc
$LN24@WndProc:
; Line 281
  00376	16		 ldc.i.0 0	; i64 0x0
  00377	6a		 conv.i8 
  00378	0c		 stloc.2 	; $T77541
$LN27@WndProc:
; Line 282
  00379	08		 ldloc.2 	; $T77541
  0037a	2a		 ret 
 .end ?WndProc@@$$FYA_JPEAUHWND__@@I_K_J@Z		; WndProc
;	.proc.end.i8
_TEXT	ENDS
PUBLIC	__mep@?WndProc@@$$FYA_JPEAUHWND__@@I_K_J@Z
PUBLIC	__m2mep@?WndProc@@$$FYA_JPEAUHWND__@@I_K_J@Z
PUBLIC	?WndProc@@YA_JPEAUHWND__@@I_K_J@Z		; WndProc
;	COMDAT __mep@?WndProc@@$$FYA_JPEAUHWND__@@I_K_J@Z
data	SEGMENT
__mep@?WndProc@@$$FYA_JPEAUHWND__@@I_K_J@Z TOKEN 0A000142
data	ENDS
;	COMDAT __m2mep@?WndProc@@$$FYA_JPEAUHWND__@@I_K_J@Z
data	SEGMENT
__m2mep@?WndProc@@$$FYA_JPEAUHWND__@@I_K_J@Z DD FLAT:?WndProc@@$$FYA_JPEAUHWND__@@I_K_J@Z
; Function compile flags: /Odtp
data	ENDS
;	COMDAT nep
_TEXT	SEGMENT
?WndProc@@YA_JPEAUHWND__@@I_K_J@Z PROC			; WndProc, COMDAT
  00000	eb 08		 jmp	 SHORT $LN1@WndProc@2
  00002	0f 0b		 ud2
  00004	ff 25 00 00 00
	00		 jmp	 QWORD PTR __m2mep@?WndProc@@$$FYA_JPEAUHWND__@@I_K_J@Z
$LN1@WndProc@2:
  0000a	ff 25 00 00 00
	00		 jmp	 QWORD PTR __mep@?WndProc@@$$FYA_JPEAUHWND__@@I_K_J@Z
?WndProc@@YA_JPEAUHWND__@@I_K_J@Z ENDP			; WndProc
.global	
	.bss
.local	,4
; Function compile flags: /Odtp
	.text
	.comdat	any, ??0_bstr_t@@$$FQEAA@AEBV0@@Z
.global	??0_bstr_t@@$$FQEAA@AEBV0@@Z			; _bstr_t::_bstr_t
??0_bstr_t@@$$FQEAA@AEBV0@@Z:				; _bstr_t::_bstr_t
;	.proc.def	D:J(JJ)

; Function Header:
; max stack depth = 2
; function size = 12 bytes
; local varsig tk = 0x0 
; Exception Information:
; 0 handlers, each consisting of filtered handlers

;	.formal.i8 1,"s$" SIG: Optional C Binding Modifier(token:0x53AF561).ptr.Optional C Binding Modifier(token:0x53AF564).valueType (token:0x53AF566)
;	.formal.i8 0,"this$" SIG: Optional C Binding Modifier(token:0x53B9CCD).Optional C Binding Modifier(token:0x53B9CCF).ptr.valueType (token:0x53B9CD2)

;	.proc.beg
; File c:\program files (x86)\microsoft visual studio 9.0\vc\include\comutil.h
; Line 304
  0000b	02		 ldarg.0 	; this$
  0000c	03		 ldarg.1 	; s$
  0000d	4c		 ldind.i8 
  0000e	55		 stind.i8 
; Line 305
  0000f	02		 ldarg.0 	; this$
  00010	28 00 00 00 00	 call ?_AddRef@_bstr_t@@$$FAEAAXXZ
; Line 306
  00015	02		 ldarg.0 	; this$
  00016	2a		 ret 
 .end ??0_bstr_t@@$$FQEAA@AEBV0@@Z			; _bstr_t::_bstr_t
;	.proc.end.i8
_TEXT	ENDS
PUBLIC	__mep@??0_bstr_t@@$$FQEAA@AEBV0@@Z
PUBLIC	__m2mep@??0_bstr_t@@$$FQEAA@AEBV0@@Z
PUBLIC	__t2m@??0_bstr_t@@QEAA@AEBV0@@Z
;	COMDAT __mep@??0_bstr_t@@$$FQEAA@AEBV0@@Z
data	SEGMENT
__mep@??0_bstr_t@@$$FQEAA@AEBV0@@Z TOKEN 0A000020
data	ENDS
;	COMDAT __m2mep@??0_bstr_t@@$$FQEAA@AEBV0@@Z
data	SEGMENT
__m2mep@??0_bstr_t@@$$FQEAA@AEBV0@@Z DD FLAT:??0_bstr_t@@$$FQEAA@AEBV0@@Z
; Function compile flags: /Odtp
data	ENDS
;	COMDAT nep
_TEXT	SEGMENT
__t2m@??0_bstr_t@@QEAA@AEBV0@@Z PROC			; COMDAT
  00000	eb 08		 jmp	 SHORT $LN1@
  00002	0f 0b		 ud2
$LN2@:
  00004	ff 25 00 00 00
	00		 jmp	 QWORD PTR __m2mep@??0_bstr_t@@$$FQEAA@AEBV0@@Z
$LN1@:
  0000a	ff 25 00 00 00
	00		 jmp	 QWORD PTR __mep@??0_bstr_t@@$$FQEAA@AEBV0@@Z
__t2m@??0_bstr_t@@QEAA@AEBV0@@Z ENDP
.global	
	.bss
.local	$T77580,0
.local	,4
; Function compile flags: /Odtp
	.text
	.comdat	any, ??4_Iterator_base@std@@$$FQEAAAEAV01@AEBV01@@Z
.global	??4_Iterator_base@std@@$$FQEAAAEAV01@AEBV01@@Z	; std::_Iterator_base::operator=
??4_Iterator_base@std@@$$FQEAAAEAV01@AEBV01@@Z:		; std::_Iterator_base::operator=
;	.proc.def	D:J(JJ)

; Function Header:
; max stack depth = 2
; function size = 56 bytes
; local varsig tk = 0x1100006C 
; Exception Information:
; 1 handlers, each consisting of filtered handlers

;	.formal.i8 1,"_Right$" SIG: Optional C Binding Modifier(token:0x538DAB5).ptr.Optional C Binding Modifier(token:0x538DAB8).valueType (token:0x538DABA)
;	.formal.i8 0,"this$" SIG: Optional C Binding Modifier(token:0x53ACF59).Optional C Binding Modifier(token:0x53ACF5B).ptr.valueType (token:0x53ACF5E)
;	.local.i8 0,"$T77575" SIG: Optional C Binding Modifier(token:0x5316101).ptr.valueType (token:0x5316104)
;	.local.mb4   1,"_Lock$53607" SIG: valueType (token:0x5393F95)

;	.proc.beg
; File c:\program files (x86)\microsoft visual studio 9.0\vc\include\xutility
; Line 149
  0000b	02		 ldarg.0 	; this$
  0000c	4c		 ldind.i8 
  0000d	03		 ldarg.1 	; _Right$
  0000e	4c		 ldind.i8 
  0000f	2e 2f		 beq.s $LN1@operator
; Line 151
  00011	12 01		 ldloca.s 1	; _Lock$53607
  00013	19		 ldc.i.3 3	; i32 0x3
  00014	28 00 00 00 00	 call ??0_Lockit@std@@$$FQEAA@H@Z
  00019	26		 pop 
$LN5@operator:
; Line 152
  0001b	02		 ldarg.0 	; this$
  0001c	28 00 00 00 00	 call ?_Orphan_me@_Iterator_base@std@@$$FQEAAXXZ
; Line 153
  00021	02		 ldarg.0 	; this$
  00022	03		 ldarg.1 	; _Right$
  00023	4c		 ldind.i8 
  00024	28 00 00 00 00	 call ?_Adopt@_Iterator_base@std@@$$FQEAAXPEBV_Container_base_secure@2@@Z
  00029	de 0e		 leave.s $LN6@operator
$LN7@operator:
  0002b	fe 06 00 00 00
	00		 ldftn ??1_Lockit@std@@$$FQEAA@XZ
  00031	12 01		 ldloca.s 1	; _Lock$53607
  00033	28 00 00 00 00	 call ?___CxxCallUnwindDtor@@$$J0YMXP6MXPEAX@Z0@Z
  00038	dc		 endfinally 
$LN6@operator:
; Line 154
  00039	12 01		 ldloca.s 1	; _Lock$53607
  0003b	28 00 00 00 00	 call ??1_Lockit@std@@$$FQEAA@XZ
$LN1@operator:
; Line 155
  00040	02		 ldarg.0 	; this$
  00041	0a		 stloc.0 	; $T77575
; Line 156
  00042	06		 ldloc.0 	; $T77575
  00043	2a		 ret 
 .end ??4_Iterator_base@std@@$$FQEAAAEAV01@AEBV01@@Z	; std::_Iterator_base::operator=
;	.proc.end.i8
_TEXT	ENDS
PUBLIC	__mep@??4_Iterator_base@std@@$$FQEAAAEAV01@AEBV01@@Z
PUBLIC	__m2mep@??4_Iterator_base@std@@$$FQEAAAEAV01@AEBV01@@Z
PUBLIC	__t2m@??4_Iterator_base@std@@QEAAAEAV01@AEBV01@@Z
;	COMDAT __mep@??4_Iterator_base@std@@$$FQEAAAEAV01@AEBV01@@Z
data	SEGMENT
__mep@??4_Iterator_base@std@@$$FQEAAAEAV01@AEBV01@@Z TOKEN 0A000066
data	ENDS
;	COMDAT __m2mep@??4_Iterator_base@std@@$$FQEAAAEAV01@AEBV01@@Z
data	SEGMENT
__m2mep@??4_Iterator_base@std@@$$FQEAAAEAV01@AEBV01@@Z DD FLAT:??4_Iterator_base@std@@$$FQEAAAEAV01@AEBV01@@Z
; Function compile flags: /Odtp
data	ENDS
;	COMDAT nep
_TEXT	SEGMENT
__t2m@??4_Iterator_base@std@@QEAAAEAV01@AEBV01@@Z PROC	; COMDAT
  00000	eb 08		 jmp	 SHORT $LN1@
  00002	0f 0b		 ud2
  00004	ff 25 00 00 00
	00		 jmp	 QWORD PTR __m2mep@??4_Iterator_base@std@@$$FQEAAAEAV01@AEBV01@@Z
$LN1@:
  0000a	ff 25 00 00 00
	00		 jmp	 QWORD PTR __mep@??4_Iterator_base@std@@$$FQEAAAEAV01@AEBV01@@Z
__t2m@??4_Iterator_base@std@@QEAAAEAV01@AEBV01@@Z ENDP
.global	__unep@?WndProc@@$$FYA_JPEAUHWND__@@I_K_J@Z
.global	
	.bss
.local	$T77592,0
.local	,4
; File d:\mystuff\ulslogview\ulslogview\ulslogview.cpp
	.rdata
	.comdat	any, __unep@?WndProc@@$$FYA_JPEAUHWND__@@I_K_J@Z

__unep@?WndProc@@$$FYA_JPEAUHWND__@@I_K_J@Z:
	DQ	?WndProc@@YA_JPEAUHWND__@@I_K_J@Z
; Function compile flags: /Odtp
	.text
.global	?MyRegisterClass@@$$FYAGPEAUHINSTANCE__@@@Z	; MyRegisterClass
?MyRegisterClass@@$$FYAGPEAUHINSTANCE__@@@Z:		; MyRegisterClass
;	.proc.def	D:I(J)

; Function Header:
; max stack depth = 3
; function size = 134 bytes
; local varsig tk = 0x1100006E 
; Exception Information:
; 0 handlers, each consisting of filtered handlers

;	.formal.i8 0,"hInstance$" SIG: ptr.valueType (token:0x53AA842)
;	.local.u2 0,"$T77590" SIG: u2
;	.local.mb80  1,"wcex$" SIG: valueType (token:0x5396515)

;	.proc.beg
; Line 97
  0000b	12 01		 ldloca.s 1	; wcex$
  0000d	1f 50		 ldc.i4.s 80	; u32 0x50
  0000f	54		 stind.i4 
; Line 99
  00010	12 01		 ldloca.s 1	; wcex$
  00012	1a		 ldc.i.4 4	; i32 0x4
  00013	58		 add 
  00014	19		 ldc.i.3 3	; u32 0x3
  00015	54		 stind.i4 
; Line 100
  00016	12 01		 ldloca.s 1	; wcex$
  00018	1e		 ldc.i.8 8	; i32 0x8
  00019	58		 add 
  0001a	7e 00 00 00 00	 ldsfld __unep@?WndProc@@$$FYA_JPEAUHWND__@@I_K_J@Z
  0001f	55		 stind.i8 
; Line 101
  00020	12 01		 ldloca.s 1	; wcex$
  00022	1f 10		 ldc.i4.s 16	; i32 0x10
  00024	58		 add 
  00025	16		 ldc.i.0 0	; i32 0x0
  00026	54		 stind.i4 
; Line 102
  00027	12 01		 ldloca.s 1	; wcex$
  00029	1f 14		 ldc.i4.s 20	; i32 0x14
  0002b	58		 add 
  0002c	16		 ldc.i.0 0	; i32 0x0
  0002d	54		 stind.i4 
; Line 103
  0002e	12 01		 ldloca.s 1	; wcex$
  00030	1f 18		 ldc.i4.s 24	; i32 0x18
  00032	58		 add 
  00033	02		 ldarg.0 	; hInstance$
  00034	55		 stind.i8 
; Line 104
  00035	12 01		 ldloca.s 1	; wcex$
  00037	1f 20		 ldc.i4.s 32	; i32 0x20
  00039	58		 add 
  0003a	02		 ldarg.0 	; hInstance$
  0003b	1f 65		 ldc.i4.s 101	; i64 0x65
  0003d	6a		 conv.i8 
  0003e	28 00 00 00 00	 call ?LoadIconW@@$$J0YAPEAUHICON__@@PEAUHINSTANCE__@@PEB_W@Z
  00043	55		 stind.i8 
; Line 105
  00044	12 01		 ldloca.s 1	; wcex$
  00046	1f 28		 ldc.i4.s 40	; i32 0x28
  00048	58		 add 
  00049	16		 ldc.i.0 0	; i64 0x0
  0004a	6a		 conv.i8 
  0004b	20 00 7f 00 00	 ldc.i4 32512	; i64 0x7f00
  00050	6a		 conv.i8 
  00051	28 00 00 00 00	 call ?LoadCursorW@@$$J0YAPEAUHICON__@@PEAUHINSTANCE__@@PEB_W@Z
  00056	55		 stind.i8 
; Line 106
  00057	12 01		 ldloca.s 1	; wcex$
  00059	1f 30		 ldc.i4.s 48	; i32 0x30
  0005b	58		 add 
  0005c	1c		 ldc.i.6 6	; i64 0x6
  0005d	6a		 conv.i8 
  0005e	55		 stind.i8 
; Line 107
  0005f	12 01		 ldloca.s 1	; wcex$
  00061	1f 38		 ldc.i4.s 56	; i32 0x38
  00063	58		 add 
  00064	1f 68		 ldc.i4.s 104	; i64 0x68
  00066	6a		 conv.i8 
  00067	55		 stind.i8 
; Line 108
  00068	12 01		 ldloca.s 1	; wcex$
  0006a	1f 40		 ldc.i4.s 64	; i32 0x40
  0006c	58		 add 
  0006d	7f 00 00 00 00	 ldsflda ?szWindowClass@@3PA_WA
  00072	55		 stind.i8 
; Line 109
  00073	12 01		 ldloca.s 1	; wcex$
  00075	1f 48		 ldc.i4.s 72	; i32 0x48
  00077	58		 add 
  00078	12 01		 ldloca.s 1	; wcex$
  0007a	1f 18		 ldc.i4.s 24	; i32 0x18
  0007c	58		 add 
  0007d	4c		 ldind.i8 
  0007e	1f 65		 ldc.i4.s 101	; i64 0x65
  00080	6a		 conv.i8 
  00081	28 00 00 00 00	 call ?LoadIconW@@$$J0YAPEAUHICON__@@PEAUHINSTANCE__@@PEB_W@Z
  00086	55		 stind.i8 
; Line 111
  00087	12 01		 ldloca.s 1	; wcex$
  00089	28 00 00 00 00	 call ?RegisterClassExW@@$$J0YAGPEBUtagWNDCLASSEXW@@@Z
  0008e	0a		 stloc.0 	; $T77590
; Line 112
  0008f	06		 ldloc.0 	; $T77590
  00090	2a		 ret 
 .end ?MyRegisterClass@@$$FYAGPEAUHINSTANCE__@@@Z	; MyRegisterClass
;	.proc.end.u2
_TEXT	ENDS
PUBLIC	__mep@?MyRegisterClass@@$$FYAGPEAUHINSTANCE__@@@Z
PUBLIC	__m2mep@?MyRegisterClass@@$$FYAGPEAUHINSTANCE__@@@Z
PUBLIC	?MyRegisterClass@@YAGPEAUHINSTANCE__@@@Z	; MyRegisterClass
;	COMDAT __mep@?MyRegisterClass@@$$FYAGPEAUHINSTANCE__@@@Z
data	SEGMENT
__mep@?MyRegisterClass@@$$FYAGPEAUHINSTANCE__@@@Z TOKEN 0A000140
data	ENDS
;	COMDAT __m2mep@?MyRegisterClass@@$$FYAGPEAUHINSTANCE__@@@Z
data	SEGMENT
__m2mep@?MyRegisterClass@@$$FYAGPEAUHINSTANCE__@@@Z DD FLAT:?MyRegisterClass@@$$FYAGPEAUHINSTANCE__@@@Z
; Function compile flags: /Odtp
data	ENDS
;	COMDAT nep
_TEXT	SEGMENT
?MyRegisterClass@@YAGPEAUHINSTANCE__@@@Z PROC		; MyRegisterClass, COMDAT
  00000	eb 08		 jmp	 SHORT $LN1@MyRegister
  00002	0f 0b		 ud2
$LN2@MyRegister:
  00004	ff 25 00 00 00
	00		 jmp	 QWORD PTR __m2mep@?MyRegisterClass@@$$FYAGPEAUHINSTANCE__@@@Z
$LN1@MyRegister:
  0000a	ff 25 00 00 00
	00		 jmp	 QWORD PTR __mep@?MyRegisterClass@@$$FYAGPEAUHINSTANCE__@@@Z
?MyRegisterClass@@YAGPEAUHINSTANCE__@@@Z ENDP		; MyRegisterClass
; Function compile flags: /Odtp
	.text
	.comdat	any, ??0_Iterator_base@std@@$$FQEAA@AEBV01@@Z
.global	??0_Iterator_base@std@@$$FQEAA@AEBV01@@Z	; std::_Iterator_base::_Iterator_base
??0_Iterator_base@std@@$$FQEAA@AEBV01@@Z:		; std::_Iterator_base::_Iterator_base
;	.proc.def	D:J(JJ)

; Function Header:
; max stack depth = 2
; function size = 21 bytes
; local varsig tk = 0x0 
; Exception Information:
; 0 handlers, each consisting of filtered handlers

;	.formal.i8 1,"_Right$" SIG: Optional C Binding Modifier(token:0x538DAB5).ptr.Optional C Binding Modifier(token:0x538DAB8).valueType (token:0x538DABA)
;	.formal.i8 0,"this$" SIG: Optional C Binding Modifier(token:0x53ACF59).Optional C Binding Modifier(token:0x53ACF5B).ptr.valueType (token:0x53ACF5E)

;	.proc.beg
; File c:\program files (x86)\microsoft visual studio 9.0\vc\include\xutility
; Line 143
  0000b	02		 ldarg.0 	; this$
  0000c	16		 ldc.i.0 0	; i64 0x0
  0000d	6a		 conv.i8 
  0000e	55		 stind.i8 
  0000f	02		 ldarg.0 	; this$
  00010	1e		 ldc.i.8 8	; i64 0x8
  00011	6a		 conv.i8 
  00012	58		 add 
  00013	16		 ldc.i.0 0	; i64 0x0
  00014	6a		 conv.i8 
  00015	55		 stind.i8 
; Line 144
  00016	02		 ldarg.0 	; this$
  00017	03		 ldarg.1 	; _Right$
  00018	28 00 00 00 00	 call ??4_Iterator_base@std@@$$FQEAAAEAV01@AEBV01@@Z
  0001d	26		 pop 
; Line 145
  0001e	02		 ldarg.0 	; this$
  0001f	2a		 ret 
 .end ??0_Iterator_base@std@@$$FQEAA@AEBV01@@Z		; std::_Iterator_base::_Iterator_base
;	.proc.end.i8
_TEXT	ENDS
PUBLIC	__mep@??0_Iterator_base@std@@$$FQEAA@AEBV01@@Z
PUBLIC	__m2mep@??0_Iterator_base@std@@$$FQEAA@AEBV01@@Z
PUBLIC	__t2m@??0_Iterator_base@std@@QEAA@AEBV01@@Z
;	COMDAT __mep@??0_Iterator_base@std@@$$FQEAA@AEBV01@@Z
data	SEGMENT
__mep@??0_Iterator_base@std@@$$FQEAA@AEBV01@@Z TOKEN 0A000065
data	ENDS
;	COMDAT __m2mep@??0_Iterator_base@std@@$$FQEAA@AEBV01@@Z
data	SEGMENT
__m2mep@??0_Iterator_base@std@@$$FQEAA@AEBV01@@Z DD FLAT:??0_Iterator_base@std@@$$FQEAA@AEBV01@@Z
; Function compile flags: /Odtp
data	ENDS
;	COMDAT nep
_TEXT	SEGMENT
__t2m@??0_Iterator_base@std@@QEAA@AEBV01@@Z PROC	; COMDAT
  00000	eb 08		 jmp	 SHORT $LN1@
  00002	0f 0b		 ud2
$LN2@:
  00004	ff 25 00 00 00
	00		 jmp	 QWORD PTR __m2mep@??0_Iterator_base@std@@$$FQEAA@AEBV01@@Z
$LN1@:
  0000a	ff 25 00 00 00
	00		 jmp	 QWORD PTR __mep@??0_Iterator_base@std@@$$FQEAA@AEBV01@@Z
__t2m@??0_Iterator_base@std@@QEAA@AEBV01@@Z ENDP
.global	
.global	
	.bss
.local	$T77613,0
.local	,4
.local	,4
; Function compile flags: /Odtp
	.text
.global	?wWinMain@@$$J0YAHPEAUHINSTANCE__@@0PEA_WH@Z	; wWinMain
?wWinMain@@$$J0YAHPEAUHINSTANCE__@@0PEA_WH@Z:		; wWinMain
;	.proc.def	D:I(JJJI)

; Function Header:
; max stack depth = 4
; function size = 124 bytes
; local varsig tk = 0x11000071 
; Exception Information:
; 0 handlers, each consisting of filtered handlers

;	.formal.i4 3,"nCmdShow$" SIG: i4
;	.formal.i8 0,"hInstance$" SIG: ptr.valueType (token:0x53AA842)
;	.local.mb48  2,"msg$" SIG: valueType (token:0x53CC9C9)
;	.local.i8 1,"hAccelTable$" SIG: ptr.valueType (token:0x53A2BFE)
;	.local.i4 0,"$T77610" SIG: i4

;	.proc.beg
; File d:\mystuff\ulslogview\ulslogview\ulslogview.cpp
; Line 53
  0000b	7e 00 00 00 00	 ldsfld ?hInst@@3PEAUHINSTANCE__@@EA
  00010	1f 67		 ldc.i4.s 103	; u32 0x67
  00012	7f 00 00 00 00	 ldsflda ?szTitle@@3PA_WA
  00017	1f 64		 ldc.i4.s 100	; i32 0x64
  00019	28 00 00 00 00	 call ?LoadStringW@@$$J0YAHPEAUHINSTANCE__@@IPEA_WH@Z
  0001e	26		 pop 
; Line 54
  0001f	7e 00 00 00 00	 ldsfld ?hInst@@3PEAUHINSTANCE__@@EA
  00024	1f 68		 ldc.i4.s 104	; u32 0x68
  00026	7f 00 00 00 00	 ldsflda ?szWindowClass@@3PA_WA
  0002b	1f 64		 ldc.i4.s 100	; i32 0x64
  0002d	28 00 00 00 00	 call ?LoadStringW@@$$J0YAHPEAUHINSTANCE__@@IPEA_WH@Z
  00032	26		 pop 
; Line 55
  00033	02		 ldarg.0 	; hInstance$
  00034	28 00 00 00 00	 call ?MyRegisterClass@@$$FYAGPEAUHINSTANCE__@@@Z
  00039	26		 pop 
; Line 58
  0003a	02		 ldarg.0 	; hInstance$
  0003b	05		 ldarg.3 	; nCmdShow$
  0003c	28 00 00 00 00	 call ?InitInstance@@$$FYAHPEAUHINSTANCE__@@H@Z
  00041	2d 45		 brtrue.s $LN4@wWinMain
; Line 60
  00043	16		 ldc.i.0 0	; i32 0x0
  00044	0a		 stloc.0 	; $T77610
  00045	2b 7f		 br.s $LN5@wWinMain
$LN4@wWinMain:
; Line 63
  00488	02		 ldarg.0 	; hInstance$
  00489	1f 65		 ldc.i4.s 101	; i64 0x65
  0048b	6a		 conv.i8 
  0048c	28 00 00 00 00	 call ?LoadAcceleratorsW@@$$J0YAPEAUHACCEL__@@PEAUHINSTANCE__@@PEB_W@Z
  00491	0b		 stloc.1 	; hAccelTable$
$LN3@wWinMain:
; Line 66
  00492	12 02		 ldloca.s 2	; msg$
  00494	16		 ldc.i.0 0	; i64 0x0
  00495	6a		 conv.i8 
  00496	16		 ldc.i.0 0	; u32 0x0
  00497	16		 ldc.i.0 0	; u32 0x0
  00498	28 00 00 00 00	 call ?GetMessage@@$$J0YAHPEAUtagMSG@@PEAUHWND__@@II@Z
  0049d	2c 1f		 brfalse.s $LN2@wWinMain
; Line 68
  0049f	12 02		 ldloca.s 2	; msg$
  004a1	4c		 ldind.i8 
  004a2	07		 ldloc.1 	; hAccelTable$
  004a3	12 02		 ldloca.s 2	; msg$
  004a5	28 00 00 00 00	 call ?TranslateAcceleratorW@@$$J0YAHPEAUHWND__@@PEAUHACCEL__@@PEAUtagMSG@@@Z
  004aa	2d 10		 brtrue.s $LN1@wWinMain
; Line 70
  004ac	12 02		 ldloca.s 2	; msg$
  004ae	28 00 00 00 00	 call ?TranslateMessage@@$$J0YAHPEBUtagMSG@@@Z
  004b3	26		 pop 
; Line 71
  004b4	12 02		 ldloca.s 2	; msg$
  004b6	28 00 00 00 00	 call ?DispatchMessage@@$$J0YA_JPEBUtagMSG@@@Z
  004bb	26		 pop 
$LN1@wWinMain:
; Line 73
  004bc	2b d4		 br.s $LN3@wWinMain
$LN2@wWinMain:
; Line 75
  004be	12 02		 ldloca.s 2	; msg$
  004c0	1f 10		 ldc.i4.s 16	; i32 0x10
  004c2	58		 add 
  004c3	4c		 ldind.i8 
  004c4	69		 conv.i4 
  004c5	0a		 stloc.0 	; $T77610
$LN5@wWinMain:
; Line 76
  004c6	06		 ldloc.0 	; $T77610
  004c7	2a		 ret 
 .end ?wWinMain@@$$J0YAHPEAUHINSTANCE__@@0PEA_WH@Z	; wWinMain
;	.proc.end.i4
_TEXT	ENDS
PUBLIC	__mep@?wWinMain@@$$J0YAHPEAUHINSTANCE__@@0PEA_WH@Z
PUBLIC	__m2mep@?wWinMain@@$$J0YAHPEAUHINSTANCE__@@0PEA_WH@Z
PUBLIC	wWinMain
;	COMDAT __mep@?wWinMain@@$$J0YAHPEAUHINSTANCE__@@0PEA_WH@Z
data	SEGMENT
__mep@?wWinMain@@$$J0YAHPEAUHINSTANCE__@@0PEA_WH@Z TOKEN 0A00013F
data	ENDS
;	COMDAT __m2mep@?wWinMain@@$$J0YAHPEAUHINSTANCE__@@0PEA_WH@Z
data	SEGMENT
__m2mep@?wWinMain@@$$J0YAHPEAUHINSTANCE__@@0PEA_WH@Z DD FLAT:?wWinMain@@$$J0YAHPEAUHINSTANCE__@@0PEA_WH@Z
; Function compile flags: /Odtp
data	ENDS
;	COMDAT nep
_TEXT	SEGMENT
wWinMain PROC						; COMDAT
  00000	eb 08		 jmp	 SHORT $LN1@wWinMain@2
  00002	0f 0b		 ud2
$LN2@wWinMain@2:
  00004	ff 25 00 00 00
	00		 jmp	 QWORD PTR __m2mep@?wWinMain@@$$J0YAHPEAUHINSTANCE__@@0PEA_WH@Z
$LN1@wWinMain@2:
  0000a	ff 25 00 00 00
	00		 jmp	 QWORD PTR __mep@?wWinMain@@$$J0YAHPEAUHINSTANCE__@@0PEA_WH@Z
wWinMain ENDP
_TEXT	ENDS
END
